	.arch armv6k
	.fpu vfp
	.eabi_attribute 28, 1
	.eabi_attribute 20, 1
	.eabi_attribute 21, 1
	.eabi_attribute 23, 3
	.eabi_attribute 24, 1
	.eabi_attribute 25, 1
	.eabi_attribute 26, 1
	.eabi_attribute 30, 2
	.eabi_attribute 34, 1
	.eabi_attribute 18, 4
	.file	"Block.c"
	.text
.Ltext0:
	.cfi_sections	.debug_frame
	.file 1 "/Users/blackout/Desktop/Craftus-Rehabilitated/source/blocks/Block.c"
	.section	.rodata.str1.4,"aMS",%progbits,1
	.align	2
.LC1:
	.ascii	"romfs:/textures/blocks/stone.png\000"
	.align	2
.LC2:
	.ascii	"romfs:/textures/blocks/dirt.png\000"
	.align	2
.LC3:
	.ascii	"romfs:/textures/blocks/cobblestone.png\000"
	.align	2
.LC4:
	.ascii	"romfs:/textures/blocks/grass_side.png\000"
	.align	2
.LC5:
	.ascii	"romfs:/textures/blocks/grass_top.png\000"
	.align	2
.LC6:
	.ascii	"romfs:/textures/blocks/stonebrick.png\000"
	.align	2
.LC7:
	.ascii	"romfs:/textures/blocks/sand.png\000"
	.align	2
.LC8:
	.ascii	"romfs:/textures/blocks/log_oak.png\000"
	.align	2
.LC9:
	.ascii	"romfs:/textures/blocks/log_oak_top.png\000"
	.align	2
.LC10:
	.ascii	"romfs:/textures/blocks/leaves_oak.png\000"
	.align	2
.LC11:
	.ascii	"romfs:/textures/blocks/glass.png\000"
	.align	2
.LC12:
	.ascii	"romfs:/textures/blocks/brick.png\000"
	.align	2
.LC13:
	.ascii	"romfs:/textures/blocks/planks_oak.png\000"
	.align	2
.LC14:
	.ascii	"romfs:/textures/blocks/wool.png\000"
	.align	2
.LC15:
	.ascii	"romfs:/textures/blocks/bedrock.png\000"
	.align	2
.LC16:
	.ascii	"romfs:/textures/blocks/gravel.png\000"
	.align	2
.LC17:
	.ascii	"romfs:/textures/blocks/coarse_dirt.png\000"
	.align	2
.LC18:
	.ascii	"romfs:/textures/blocks/door_top.png\000"
	.align	2
.LC19:
	.ascii	"romfs:/textures/blocks/door_bottom.png\000"
	.align	2
.LC20:
	.ascii	"romfs:/textures/blocks/snow_grass_side.png\000"
	.align	2
.LC21:
	.ascii	"romfs:/textures/blocks/snow.png\000"
	.align	2
.LC22:
	.ascii	"romfs:/textures/blocks/obsidian.png\000"
	.align	2
.LC23:
	.ascii	"romfs:/textures/blocks/sandstone_side.png\000"
	.align	2
.LC24:
	.ascii	"romfs:/textures/blocks/sandstone_top.png\000"
	.align	2
.LC25:
	.ascii	"romfs:/textures/blocks/sandstone_bottom.png\000"
	.align	2
.LC26:
	.ascii	"romfs:/textures/blocks/netherrack.png\000"
	.align	2
.LC27:
	.ascii	"romfs:/textures/blocks/smooth_stone.png\000"
	.align	2
.LC28:
	.ascii	"romfs:/textures/blocks/grass_path_side.png\000"
	.align	2
.LC29:
	.ascii	"romfs:/textures/blocks/grass_path_top.png\000"
	.align	2
.LC30:
	.ascii	"romfs:/textures/blocks/crafting_table_side.png\000"
	.align	2
.LC31:
	.ascii	"romfs:/textures/blocks/crafting_table_top.png\000"
	.section	.text.Block_Init,"ax",%progbits
	.align	2
	.global	Block_Init
	.syntax unified
	.arm
	.type	Block_Init, %function
Block_Init:
.LFB121:
	.loc 1 60 19 view -0
	.cfi_startproc
	@ args = 0, pretend = 0, frame = 8
	@ frame_needed = 0, uses_anonymous_args = 0
	.loc 1 61 2 view .LVU1
	.loc 1 60 19 is_stmt 0 view .LVU2
	push	{r4, r5, lr}
	.cfi_def_cfa_offset 12
	.cfi_offset 4, -12
	.cfi_offset 5, -8
	.cfi_offset 14, -4
	sub	sp, sp, #12
	.cfi_def_cfa_offset 24
	.loc 1 63 15 view .LVU3
	mov	r4, sp
	.loc 1 61 2 view .LVU4
	ldr	r5, .L4
	mov	r2, #31
	mov	r0, r5
	ldr	r1, .L4+4
	bl	Texture_MapInit
.LVL0:
	.loc 1 63 2 is_stmt 1 view .LVU5
	.loc 1 63 15 is_stmt 0 view .LVU6
	mov	r1, r5
	mov	r0, r4
	ldr	r2, .L4+8
	bl	Texture_MapGetIcon
.LVL1:
	ldm	r4, {r0, r1}
	add	r3, r5, #536
	stm	r3, {r0, r1}
	.loc 1 63 100 view .LVU7
	ldr	r2, .L4+12
	mov	r1, r5
	mov	r0, r4
	bl	Texture_MapGetIcon
.LVL2:
	ldm	r4, {r0, r1}
	add	r3, r5, #544
	stm	r3, {r0, r1}
	.loc 1 63 190 view .LVU8
	ldr	r2, .L4+16
	mov	r1, r5
	mov	r0, r4
	bl	Texture_MapGetIcon
.LVL3:
	ldm	r4, {r0, r1}
	add	r3, r5, #552
	stm	r3, {r0, r1}
	.loc 1 63 286 view .LVU9
	ldr	r2, .L4+20
	mov	r1, r5
	mov	r0, r4
	bl	Texture_MapGetIcon
.LVL4:
	ldm	r4, {r0, r1}
	add	r3, r5, #560
	stm	r3, {r0, r1}
	.loc 1 63 380 view .LVU10
	ldr	r2, .L4+24
	mov	r1, r5
	mov	r0, r4
	bl	Texture_MapGetIcon
.LVL5:
	ldm	r4, {r0, r1}
	add	r3, r5, #568
	stm	r3, {r0, r1}
	.loc 1 63 474 view .LVU11
	ldr	r2, .L4+28
	mov	r1, r5
	mov	r0, r4
	bl	Texture_MapGetIcon
.LVL6:
	ldm	r4, {r0, r1}
	add	r3, r5, #576
	stm	r3, {r0, r1}
	.loc 1 63 563 view .LVU12
	ldr	r2, .L4+32
	mov	r1, r5
	mov	r0, r4
	bl	Texture_MapGetIcon
.LVL7:
	ldm	r4, {r0, r1}
	add	r3, r5, #584
	stm	r3, {r0, r1}
	.loc 1 63 653 view .LVU13
	ldr	r2, .L4+36
	mov	r1, r5
	mov	r0, r4
	bl	Texture_MapGetIcon
.LVL8:
	ldm	r4, {r0, r1}
	add	r3, r5, #592
	stm	r3, {r0, r1}
	.loc 1 63 745 view .LVU14
	ldr	r2, .L4+40
	mov	r1, r5
	mov	r0, r4
	bl	Texture_MapGetIcon
.LVL9:
	ldm	r4, {r0, r1}
	add	r3, r5, #600
	stm	r3, {r0, r1}
	.loc 1 63 841 view .LVU15
	ldr	r2, .L4+44
	mov	r1, r5
	mov	r0, r4
	bl	Texture_MapGetIcon
.LVL10:
	ldm	r4, {r0, r1}
	add	r3, r5, #608
	stm	r3, {r0, r1}
	.loc 1 63 931 view .LVU16
	ldr	r2, .L4+48
	mov	r1, r5
	mov	r0, r4
	bl	Texture_MapGetIcon
.LVL11:
	ldm	r4, {r0, r1}
	add	r3, r5, #616
	stm	r3, {r0, r1}
	.loc 1 63 1016 view .LVU17
	ldr	r2, .L4+52
	mov	r1, r5
	mov	r0, r4
	bl	Texture_MapGetIcon
.LVL12:
	ldm	r4, {r0, r1}
	add	r3, r5, #624
	stm	r3, {r0, r1}
	.loc 1 63 1105 view .LVU18
	ldr	r2, .L4+56
	mov	r1, r5
	mov	r0, r4
	bl	Texture_MapGetIcon
.LVL13:
	ldm	r4, {r0, r1}
	add	r3, r5, #632
	stm	r3, {r0, r1}
	.loc 1 63 1194 view .LVU19
	ldr	r2, .L4+60
	mov	r1, r5
	mov	r0, r4
	bl	Texture_MapGetIcon
.LVL14:
	ldm	r4, {r0, r1}
	add	r3, r5, #640
	stm	r3, {r0, r1}
	.loc 1 63 1280 view .LVU20
	ldr	r2, .L4+64
	mov	r1, r5
	mov	r0, r4
	bl	Texture_MapGetIcon
.LVL15:
	ldm	r4, {r0, r1}
	add	r3, r5, #648
	stm	r3, {r0, r1}
	.loc 1 63 1368 view .LVU21
	ldr	r2, .L4+68
	mov	r1, r5
	mov	r0, r4
	bl	Texture_MapGetIcon
.LVL16:
	ldm	r4, {r0, r1}
	add	r3, r5, #656
	stm	r3, {r0, r1}
	.loc 1 63 1455 view .LVU22
	ldr	r2, .L4+72
	mov	r1, r5
	mov	r0, r4
	bl	Texture_MapGetIcon
.LVL17:
	ldm	r4, {r0, r1}
	add	r3, r5, #664
	stm	r3, {r0, r1}
	.loc 1 63 1549 view .LVU23
	ldr	r2, .L4+76
	mov	r1, r5
	mov	r0, r4
	bl	Texture_MapGetIcon
.LVL18:
	ldm	r4, {r0, r1}
	add	r3, r5, #672
	stm	r3, {r0, r1}
	.loc 1 63 1643 view .LVU24
	ldr	r2, .L4+80
	mov	r1, r5
	mov	r0, r4
	bl	Texture_MapGetIcon
.LVL19:
	ldm	r4, {r0, r1}
	add	r3, r5, #680
	stm	r3, {r0, r1}
	.loc 1 63 1744 view .LVU25
	ldr	r2, .L4+84
	mov	r1, r5
	mov	r0, r4
	bl	Texture_MapGetIcon
.LVL20:
	ldm	r4, {r0, r1}
	add	r3, r5, #688
	stm	r3, {r0, r1}
	.loc 1 63 1838 view .LVU26
	ldr	r2, .L4+88
	mov	r1, r5
	mov	r0, r4
	bl	Texture_MapGetIcon
.LVL21:
	ldm	r4, {r0, r1}
	add	r3, r5, #696
	stm	r3, {r0, r1}
	.loc 1 63 1925 view .LVU27
	ldr	r2, .L4+92
	mov	r1, r5
	mov	r0, r4
	bl	Texture_MapGetIcon
.LVL22:
	ldm	r4, {r0, r1}
	add	r3, r5, #704
	stm	r3, {r0, r1}
	.loc 1 63 2022 view .LVU28
	ldr	r2, .L4+96
	mov	r1, r5
	mov	r0, r4
	bl	Texture_MapGetIcon
.LVL23:
	ldm	r4, {r0, r1}
	add	r3, r5, #720
	stm	r3, {r0, r1}
	.loc 1 63 2124 view .LVU29
	ldr	r2, .L4+100
	mov	r1, r5
	mov	r0, r4
	bl	Texture_MapGetIcon
.LVL24:
	ldm	r4, {r0, r1}
	add	r3, r5, #728
	stm	r3, {r0, r1}
	.loc 1 63 2228 view .LVU30
	ldr	r2, .L4+104
	mov	r1, r5
	mov	r0, r4
	bl	Texture_MapGetIcon
.LVL25:
	ldm	r4, {r0, r1}
	add	r3, r5, #736
	stm	r3, {r0, r1}
	.loc 1 63 2329 view .LVU31
	ldr	r2, .L4+108
	mov	r1, r5
	mov	r0, r4
	bl	Texture_MapGetIcon
.LVL26:
	ldm	r4, {r0, r1}
	add	r3, r5, #712
	stm	r3, {r0, r1}
	.loc 1 63 2426 view .LVU32
	ldr	r2, .L4+112
	mov	r1, r5
	mov	r0, r4
	bl	Texture_MapGetIcon
.LVL27:
	ldm	r4, {r0, r1}
	add	r3, r5, #744
	stm	r3, {r0, r1}
	.loc 1 63 2528 view .LVU33
	ldr	r2, .L4+116
	mov	r1, r5
	mov	r0, r4
	bl	Texture_MapGetIcon
.LVL28:
	ldm	r4, {r0, r1}
	add	r3, r5, #752
	stm	r3, {r0, r1}
	.loc 1 63 2632 view .LVU34
	ldr	r2, .L4+120
	mov	r1, r5
	mov	r0, r4
	bl	Texture_MapGetIcon
.LVL29:
	ldm	r4, {r0, r1}
	add	r3, r5, #760
	stm	r3, {r0, r1}
	.loc 1 63 2740 view .LVU35
	ldr	r2, .L4+124
	mov	r1, r5
	mov	r0, r4
	bl	Texture_MapGetIcon
.LVL30:
	ldm	r4, {r0, r1}
	add	r3, r5, #768
	stm	r3, {r0, r1}
	.loc 1 63 2852 view .LVU36
	ldr	r2, .L4+128
	mov	r1, r5
	mov	r0, r4
	bl	Texture_MapGetIcon
.LVL31:
	ldm	r4, {r0, r1}
	add	r5, r5, #776
	stm	r5, {r0, r1}
	.loc 1 65 1 view .LVU37
	add	sp, sp, #12
	.cfi_def_cfa_offset 12
	@ sp needed
	pop	{r4, r5, pc}
.L5:
	.align	2
.L4:
	.word	.LANCHOR1
	.word	.LANCHOR0
	.word	.LC1
	.word	.LC2
	.word	.LC3
	.word	.LC4
	.word	.LC5
	.word	.LC6
	.word	.LC7
	.word	.LC8
	.word	.LC9
	.word	.LC10
	.word	.LC11
	.word	.LC12
	.word	.LC13
	.word	.LC14
	.word	.LC15
	.word	.LC16
	.word	.LC17
	.word	.LC18
	.word	.LC19
	.word	.LC20
	.word	.LC21
	.word	.LC22
	.word	.LC23
	.word	.LC24
	.word	.LC25
	.word	.LC26
	.word	.LC27
	.word	.LC28
	.word	.LC29
	.word	.LC30
	.word	.LC31
	.cfi_endproc
.LFE121:
	.size	Block_Init, .-Block_Init
	.section	.text.Block_Deinit,"ax",%progbits
	.align	2
	.global	Block_Deinit
	.syntax unified
	.arm
	.type	Block_Deinit, %function
Block_Deinit:
.LFB122:
	.loc 1 66 21 is_stmt 1 view -0
	.cfi_startproc
	@ args = 0, pretend = 0, frame = 0
	@ frame_needed = 0, uses_anonymous_args = 0
	@ link register save eliminated.
	.loc 1 66 23 view .LVU39
	ldr	r0, .L7
	b	C3D_TexDelete
.LVL32:
.L8:
	.align	2
.L7:
	.word	.LANCHOR1
	.cfi_endproc
.LFE122:
	.size	Block_Deinit, .-Block_Deinit
	.section	.text.Block_GetTextureMap,"ax",%progbits
	.align	2
	.global	Block_GetTextureMap
	.syntax unified
	.arm
	.type	Block_GetTextureMap, %function
Block_GetTextureMap:
.LFB123:
	.loc 1 68 29 view -0
	.cfi_startproc
	@ args = 0, pretend = 0, frame = 0
	@ frame_needed = 0, uses_anonymous_args = 0
	@ link register save eliminated.
	.loc 1 68 31 view .LVU41
	.loc 1 68 59 is_stmt 0 view .LVU42
	ldr	r0, .L10
	bx	lr
.L11:
	.align	2
.L10:
	.word	.LANCHOR1
	.cfi_endproc
.LFE123:
	.size	Block_GetTextureMap, .-Block_GetTextureMap
	.section	.text.Block_GetTexture,"ax",%progbits
	.align	2
	.global	Block_GetTexture
	.syntax unified
	.arm
	.type	Block_GetTexture, %function
Block_GetTexture:
.LVL33:
.LFB124:
	.loc 1 70 92 is_stmt 1 view -0
	.cfi_startproc
	@ args = 0, pretend = 0, frame = 0
	@ frame_needed = 0, uses_anonymous_args = 0
	@ link register save eliminated.
	.loc 1 71 2 view .LVU44
	.loc 1 72 2 view .LVU45
	cmp	r0, #25
	ldrls	pc, [pc, r0, asl #2]
	b	.L54
.L15:
	.word	.L12
	.word	.L39
	.word	.L51
	.word	.L37
	.word	.L36
	.word	.L35
	.word	.L34
	.word	.L33
	.word	.L32
	.word	.L31
	.word	.L30
	.word	.L29
	.word	.L48
	.word	.L27
	.word	.L26
	.word	.L25
	.word	.L24
	.word	.L23
	.word	.L22
	.word	.L21
	.word	.L20
	.word	.L19
	.word	.L18
	.word	.L17
	.word	.L16
	.word	.L14
.L51:
	.loc 1 198 6 view .LVU46
.LVL34:
	.loc 1 198 8 is_stmt 0 view .LVU47
	ldr	r2, .L61
.LVL35:
	.loc 1 198 8 view .LVU48
	ldr	r2, [r2, #548]
.LVL36:
	.loc 1 199 6 is_stmt 1 view .LVU49
.L13:
	.loc 1 210 2 discriminator 1 view .LVU50
	.loc 1 211 2 discriminator 1 view .LVU51
	.loc 1 210 12 is_stmt 0 discriminator 1 view .LVU52
	str	r2, [r3]	@ unaligned
.L12:
	.loc 1 212 1 view .LVU53
	bx	lr
.LVL37:
.L48:
	.loc 1 185 6 is_stmt 1 view .LVU54
	.loc 1 185 8 is_stmt 0 view .LVU55
	ldr	r2, .L61
.LVL38:
	.loc 1 185 8 view .LVU56
	ldr	r2, [r2, #636]
.LVL39:
	.loc 1 186 6 is_stmt 1 view .LVU57
	b	.L13
.LVL40:
.L21:
	.loc 1 147 6 view .LVU58
	.loc 1 147 8 is_stmt 0 view .LVU59
	ldr	r2, .L61
.LVL41:
	.loc 1 147 8 view .LVU60
	ldr	r2, [r2, #700]
.LVL42:
	.loc 1 148 6 is_stmt 1 view .LVU61
	b	.L13
.LVL43:
.L26:
	.loc 1 133 4 view .LVU62
	.loc 1 133 6 is_stmt 0 view .LVU63
	ldr	r2, .L61
.LVL44:
	.loc 1 133 6 view .LVU64
	ldr	r2, [r2, #652]
.LVL45:
	.loc 1 134 4 is_stmt 1 view .LVU65
	b	.L13
.LVL46:
.L24:
	.loc 1 139 4 view .LVU66
	.loc 1 139 6 is_stmt 0 view .LVU67
	ldr	r2, .L61
.LVL47:
	.loc 1 139 6 view .LVU68
	ldr	r2, [r2, #676]
.LVL48:
	.loc 1 140 4 is_stmt 1 view .LVU69
	b	.L13
.LVL49:
.L29:
	.loc 1 124 4 view .LVU70
	.loc 1 124 6 is_stmt 0 view .LVU71
	ldr	r2, .L61
.LVL50:
	.loc 1 124 6 view .LVU72
	ldr	r2, [r2, #628]
.LVL51:
	.loc 1 125 4 is_stmt 1 view .LVU73
	b	.L13
.LVL52:
.L37:
	.loc 1 82 4 view .LVU74
	cmp	r1, #2
	beq	.L51
	.loc 1 90 8 is_stmt 0 view .LVU75
	ldr	r2, .L61
.LVL53:
	.loc 1 90 8 view .LVU76
	cmp	r1, #3
	.loc 1 84 6 is_stmt 1 view .LVU77
.LVL54:
	.loc 1 84 8 is_stmt 0 view .LVU78
	ldreq	r2, [r2, #572]
.LVL55:
	.loc 1 85 6 is_stmt 1 view .LVU79
	.loc 1 90 6 view .LVU80
	.loc 1 90 8 is_stmt 0 view .LVU81
	ldrne	r2, [r2, #564]
.LVL56:
	.loc 1 91 6 is_stmt 1 view .LVU82
	b	.L13
.LVL57:
.L27:
	.loc 1 130 4 view .LVU83
	.loc 1 130 6 is_stmt 0 view .LVU84
	ldr	r2, .L61
.LVL58:
	.loc 1 130 6 view .LVU85
	ldr	r2, [r2, #644]
.LVL59:
	.loc 1 131 4 is_stmt 1 view .LVU86
	b	.L13
.LVL60:
.L22:
	.loc 1 145 4 view .LVU87
	cmp	r1, #2
	beq	.L51
	cmp	r1, #3
	beq	.L21
	.loc 1 153 6 view .LVU88
.LVL61:
	.loc 1 153 8 is_stmt 0 view .LVU89
	ldr	r2, .L61
.LVL62:
	.loc 1 153 8 view .LVU90
	ldr	r2, [r2, #692]
.LVL63:
	.loc 1 154 6 is_stmt 1 view .LVU91
	b	.L13
.LVL64:
.L23:
	.loc 1 142 4 view .LVU92
	.loc 1 142 6 is_stmt 0 view .LVU93
	ldr	r2, .L61
.LVL65:
	.loc 1 142 6 view .LVU94
	ldr	r2, [r2, #684]
.LVL66:
	.loc 1 143 4 is_stmt 1 view .LVU95
	b	.L13
.LVL67:
.L25:
	.loc 1 136 4 view .LVU96
	.loc 1 136 6 is_stmt 0 view .LVU97
	ldr	r2, .L61
.LVL68:
	.loc 1 136 6 view .LVU98
	ldr	r2, [r2, #668]
.LVL69:
	.loc 1 137 4 is_stmt 1 view .LVU99
	b	.L13
.LVL70:
.L39:
	.loc 1 79 4 view .LVU100
	.loc 1 79 6 is_stmt 0 view .LVU101
	ldr	r2, .L61
.LVL71:
	.loc 1 79 6 view .LVU102
	ldr	r2, [r2, #540]
.LVL72:
	.loc 1 80 4 is_stmt 1 view .LVU103
	b	.L13
.LVL73:
.L20:
	.loc 1 161 4 view .LVU104
	.loc 1 161 6 is_stmt 0 view .LVU105
	ldr	r2, .L61
.LVL74:
	.loc 1 161 6 view .LVU106
	ldr	r2, [r2, #708]
.LVL75:
	.loc 1 162 4 is_stmt 1 view .LVU107
	b	.L13
.LVL76:
.L18:
	.loc 1 167 4 view .LVU108
	cmp	r1, #2
	beq	.L45
	cmp	r1, #3
	beq	.L46
	.loc 1 175 6 view .LVU109
.LVL77:
	.loc 1 175 8 is_stmt 0 view .LVU110
	ldr	r2, .L61
.LVL78:
	.loc 1 175 8 view .LVU111
	ldr	r2, [r2, #724]
.LVL79:
	.loc 1 176 6 is_stmt 1 view .LVU112
	b	.L13
.LVL80:
.L19:
	.loc 1 164 4 view .LVU113
	.loc 1 164 6 is_stmt 0 view .LVU114
	ldr	r2, .L61
.LVL81:
	.loc 1 164 6 view .LVU115
	ldr	r2, [r2, #716]
.LVL82:
	.loc 1 165 4 is_stmt 1 view .LVU116
	b	.L13
.LVL83:
.L14:
	.loc 1 196 4 view .LVU117
	cmp	r1, #2
	beq	.L51
	cmp	r1, #3
	beq	.L52
	.loc 1 204 6 view .LVU118
.LVL84:
	.loc 1 204 8 is_stmt 0 view .LVU119
	ldr	r2, .L61
.LVL85:
	.loc 1 204 8 view .LVU120
	ldr	r2, [r2, #756]
.LVL86:
	.loc 1 205 6 is_stmt 1 view .LVU121
	b	.L13
.LVL87:
.L16:
	.loc 1 183 4 view .LVU122
	cmp	r1, #2
	beq	.L48
	cmp	r1, #3
	beq	.L49
	.loc 1 191 6 view .LVU123
.LVL88:
	.loc 1 191 8 is_stmt 0 view .LVU124
	ldr	r2, .L61
.LVL89:
	.loc 1 191 8 view .LVU125
	ldr	r2, [r2, #772]
.LVL90:
	.loc 1 192 6 is_stmt 1 view .LVU126
	b	.L13
.LVL91:
.L17:
	.loc 1 180 4 view .LVU127
	.loc 1 180 6 is_stmt 0 view .LVU128
	ldr	r2, .L61
.LVL92:
	.loc 1 180 6 view .LVU129
	ldr	r2, [r2, #748]
.LVL93:
	.loc 1 181 4 is_stmt 1 view .LVU130
	b	.L13
.LVL94:
.L33:
	.loc 1 109 4 view .LVU131
	.loc 1 109 6 is_stmt 0 view .LVU132
	ldr	r2, .L61
.LVL95:
	.loc 1 109 6 view .LVU133
	ldr	r2, [r2, #660]
.LVL96:
	.loc 1 110 4 is_stmt 1 view .LVU134
	b	.L13
.LVL97:
.L34:
	.loc 1 98 4 view .LVU135
	.loc 1 104 8 is_stmt 0 view .LVU136
	ldr	r2, .L61
.LVL98:
	.loc 1 104 8 view .LVU137
	sub	r1, r1, #2
.LVL99:
	.loc 1 104 8 view .LVU138
	cmp	r1, #1
	.loc 1 101 6 is_stmt 1 view .LVU139
.LVL100:
	.loc 1 101 8 is_stmt 0 view .LVU140
	ldrls	r2, [r2, #604]
.LVL101:
	.loc 1 102 6 is_stmt 1 view .LVU141
	.loc 1 104 6 view .LVU142
	.loc 1 104 8 is_stmt 0 view .LVU143
	ldrhi	r2, [r2, #596]
.LVL102:
	.loc 1 105 6 is_stmt 1 view .LVU144
	b	.L13
.LVL103:
.L35:
	.loc 1 112 4 view .LVU145
	.loc 1 112 6 is_stmt 0 view .LVU146
	ldr	r2, .L61
.LVL104:
	.loc 1 112 6 view .LVU147
	ldr	r2, [r2, #588]
.LVL105:
	.loc 1 113 4 is_stmt 1 view .LVU148
	b	.L13
.LVL106:
.L36:
	.loc 1 95 4 view .LVU149
	.loc 1 95 6 is_stmt 0 view .LVU150
	ldr	r2, .L61
.LVL107:
	.loc 1 95 6 view .LVU151
	ldr	r2, [r2, #556]
.LVL108:
	.loc 1 96 4 is_stmt 1 view .LVU152
	b	.L13
.LVL109:
.L31:
	.loc 1 118 4 view .LVU153
	.loc 1 118 6 is_stmt 0 view .LVU154
	ldr	r2, .L61
.LVL110:
	.loc 1 118 6 view .LVU155
	ldr	r2, [r2, #620]
.LVL111:
	.loc 1 119 4 is_stmt 1 view .LVU156
	b	.L13
.LVL112:
.L32:
	.loc 1 115 4 view .LVU157
	.loc 1 115 6 is_stmt 0 view .LVU158
	ldr	r2, .L61
.LVL113:
	.loc 1 115 6 view .LVU159
	ldr	r2, [r2, #612]
.LVL114:
	.loc 1 116 4 is_stmt 1 view .LVU160
	b	.L13
.LVL115:
.L30:
	.loc 1 121 4 view .LVU161
	.loc 1 121 6 is_stmt 0 view .LVU162
	ldr	r2, .L61
.LVL116:
	.loc 1 121 6 view .LVU163
	ldr	r2, [r2, #580]
.LVL117:
	.loc 1 122 4 is_stmt 1 view .LVU164
	b	.L13
.LVL118:
.L49:
	.loc 1 188 6 view .LVU165
	.loc 1 188 8 is_stmt 0 view .LVU166
	ldr	r2, .L61
.LVL119:
	.loc 1 188 8 view .LVU167
	ldr	r2, [r2, #780]
.LVL120:
	.loc 1 189 6 is_stmt 1 view .LVU168
	b	.L13
.LVL121:
.L46:
	.loc 1 172 6 view .LVU169
	.loc 1 172 8 is_stmt 0 view .LVU170
	ldr	r2, .L61
.LVL122:
	.loc 1 172 8 view .LVU171
	ldr	r2, [r2, #732]
.LVL123:
	.loc 1 173 6 is_stmt 1 view .LVU172
	b	.L13
.LVL124:
.L45:
	.loc 1 169 6 view .LVU173
	.loc 1 169 8 is_stmt 0 view .LVU174
	ldr	r2, .L61
.LVL125:
	.loc 1 169 8 view .LVU175
	ldr	r2, [r2, #740]
.LVL126:
	.loc 1 170 6 is_stmt 1 view .LVU176
	b	.L13
.LVL127:
.L52:
	.loc 1 201 6 view .LVU177
	.loc 1 201 8 is_stmt 0 view .LVU178
	ldr	r2, .L61
.LVL128:
	.loc 1 201 8 view .LVU179
	ldr	r2, [r2, #764]
.LVL129:
	.loc 1 202 6 is_stmt 1 view .LVU180
	b	.L13
.LVL130:
.L54:
	.loc 1 72 2 is_stmt 0 view .LVU181
	mov	r2, #0
.LVL131:
	.loc 1 72 2 view .LVU182
	b	.L13
.L62:
	.align	2
.L61:
	.word	.LANCHOR1
	.cfi_endproc
.LFE124:
	.size	Block_GetTexture, .-Block_GetTexture
	.section	.text.Block_GetColor,"ax",%progbits
	.align	2
	.global	Block_GetColor
	.syntax unified
	.arm
	.type	Block_GetColor, %function
Block_GetColor:
.LVL132:
.LFB125:
	.loc 1 219 92 is_stmt 1 view -0
	.cfi_startproc
	@ args = 0, pretend = 0, frame = 64
	@ frame_needed = 0, uses_anonymous_args = 0
	.loc 1 220 2 view .LVU184
	.loc 1 220 28 is_stmt 0 view .LVU185
	cmp	r0, #3
	cmpeq	r2, #3
	moveq	r2, #1
.LVL133:
	.loc 1 220 28 view .LVU186
	movne	r2, #0
	.loc 1 220 59 view .LVU187
	cmp	r0, #8
	orreq	r2, r2, #1
	.loc 1 219 92 view .LVU188
	push	{r4, r5, lr}
	.cfi_def_cfa_offset 12
	.cfi_offset 4, -12
	.cfi_offset 5, -8
	.cfi_offset 14, -4
	.loc 1 220 59 view .LVU189
	cmp	r2, #0
	.loc 1 219 92 view .LVU190
	mov	r4, r3
	sub	sp, sp, #68
	.cfi_def_cfa_offset 80
	.loc 1 220 59 view .LVU191
	bne	.L69
	.loc 1 227 17 view .LVU192
	mov	ip, sp
	ldr	lr, .L71
	.loc 1 229 5 view .LVU193
	cmp	r0, #13
	mov	r5, r1
	.loc 1 227 2 is_stmt 1 view .LVU194
	.loc 1 227 17 is_stmt 0 view .LVU195
	ldmia	lr!, {r0, r1, r2, r3}
.LVL134:
	.loc 1 227 17 view .LVU196
	stmia	ip!, {r0, r1, r2, r3}
	ldmia	lr!, {r0, r1, r2, r3}
	stmia	ip!, {r0, r1, r2, r3}
	ldmia	lr!, {r0, r1, r2, r3}
	stmia	ip!, {r0, r1, r2, r3}
	ldm	lr, {r0, r1, r2, r3}
	stm	ip, {r0, r1, r2, r3}
	.loc 1 229 2 is_stmt 1 view .LVU197
	movne	r2, #255
	movne	r1, r2
	movne	r3, r2
	.loc 1 229 5 is_stmt 0 view .LVU198
	beq	.L70
.L66:
	.loc 1 230 14 view .LVU199
	strb	r2, [r4]
	.loc 1 231 14 view .LVU200
	strb	r1, [r4, #1]
	.loc 1 232 14 view .LVU201
	strb	r3, [r4, #2]
	.loc 1 238 1 view .LVU202
	add	sp, sp, #68
	.cfi_remember_state
	.cfi_def_cfa_offset 12
	@ sp needed
	pop	{r4, r5, pc}
.LVL135:
.L69:
	.cfi_restore_state
	.loc 1 221 3 is_stmt 1 view .LVU203
	.loc 1 222 3 view .LVU204
	.loc 1 221 14 is_stmt 0 view .LVU205
	mov	r3, #123
.LVL136:
	.loc 1 221 14 view .LVU206
	ldr	r2, .L71+4
	.loc 1 232 14 view .LVU207
	strb	r3, [r4, #2]
	.loc 1 221 14 view .LVU208
	strh	r2, [r4]	@ unaligned
	.loc 1 223 3 is_stmt 1 view .LVU209
	.loc 1 224 3 view .LVU210
	.loc 1 238 1 is_stmt 0 view .LVU211
	add	sp, sp, #68
	.cfi_remember_state
	.cfi_def_cfa_offset 12
	@ sp needed
	pop	{r4, r5, pc}
.LVL137:
.L70:
	.cfi_restore_state
	.loc 1 230 3 is_stmt 1 view .LVU212
	.loc 1 230 22 is_stmt 0 view .LVU213
	add	r3, sp, #64
	add	r1, r3, r5, lsl #2
	ldr	r3, [r1, #-64]
	.loc 1 230 33 view .LVU214
	lsr	r2, r3, #16
	.loc 1 231 35 view .LVU215
	lsr	r1, r3, #8
	.loc 1 230 14 view .LVU216
	uxtb	r2, r2
	.loc 1 231 3 is_stmt 1 view .LVU217
	.loc 1 231 14 is_stmt 0 view .LVU218
	uxtb	r1, r1
	.loc 1 232 3 is_stmt 1 view .LVU219
	.loc 1 232 14 is_stmt 0 view .LVU220
	uxtb	r3, r3
	b	.L66
.L72:
	.align	2
.L71:
	.word	.LANCHOR2
	.word	-10612
	.cfi_endproc
.LFE125:
	.size	Block_GetColor, .-Block_GetColor
	.section	.text.Block_Opaque,"ax",%progbits
	.align	2
	.global	Block_Opaque
	.syntax unified
	.arm
	.type	Block_Opaque, %function
Block_Opaque:
.LVL138:
.LFB126:
	.loc 1 240 49 is_stmt 1 view -0
	.cfi_startproc
	@ args = 0, pretend = 0, frame = 0
	@ frame_needed = 0, uses_anonymous_args = 0
	@ link register save eliminated.
	.loc 1 240 51 view .LVU222
	.loc 1 240 128 is_stmt 0 view .LVU223
	cmp	r0, #0
	cmpne	r0, #9
	.loc 1 240 64 view .LVU224
	mov	r3, r0
	.loc 1 240 128 view .LVU225
	movne	r0, #1
.LVL139:
	.loc 1 240 128 view .LVU226
	moveq	r0, #0
	bxeq	lr
	.loc 1 240 128 discriminator 1 view .LVU227
	sub	r3, r3, #16
	cmp	r3, #1
	movls	r0, #0
	movhi	r0, #1
	.loc 1 240 159 discriminator 1 view .LVU228
	bx	lr
	.cfi_endproc
.LFE126:
	.size	Block_Opaque, .-Block_Opaque
	.global	BlockNames
	.section	.rodata.str1.4
	.align	2
.LC32:
	.ascii	"Air\000"
	.align	2
.LC33:
	.ascii	"Stone\000"
	.align	2
.LC34:
	.ascii	"Dirt\000"
	.align	2
.LC35:
	.ascii	"Grass\000"
	.align	2
.LC36:
	.ascii	"Cobblestone\000"
	.align	2
.LC37:
	.ascii	"Sand\000"
	.align	2
.LC38:
	.ascii	"Log\000"
	.align	2
.LC39:
	.ascii	"Leaves\000"
	.align	2
.LC40:
	.ascii	"Glass\000"
	.align	2
.LC41:
	.ascii	"Stone Bricks\000"
	.align	2
.LC42:
	.ascii	"Bricks\000"
	.align	2
.LC43:
	.ascii	"Planks\000"
	.align	2
.LC44:
	.ascii	"Wool\000"
	.align	2
.LC45:
	.ascii	"Bedrock\000"
	.align	2
.LC46:
	.ascii	"Gravel\000"
	.align	2
.LC47:
	.ascii	"Water\000"
	.align	2
.LC48:
	.ascii	"Coarse\000"
	.align	2
.LC49:
	.ascii	"Door_Top\000"
	.align	2
.LC50:
	.ascii	"Door_Bottom\000"
	.align	2
.LC51:
	.ascii	"Snow_Grass\000"
	.align	2
.LC52:
	.ascii	"Snow\000"
	.align	2
.LC53:
	.ascii	"Obsidian\000"
	.align	2
.LC54:
	.ascii	"Netherrack\000"
	.align	2
.LC55:
	.ascii	"Sandstone\000"
	.align	2
.LC56:
	.ascii	"Smooth_Stone\000"
	.align	2
.LC57:
	.ascii	"Crafting_Table\000"
	.global	texture_files
	.section	.rodata
	.align	2
	.set	.LANCHOR2,. + 0
.LC0:
	.word	16777215
	.word	14188339
	.word	11685080
	.word	6724056
	.word	15066419
	.word	8375321
	.word	15892389
	.word	5000268
	.word	10066329
	.word	5013401
	.word	8339378
	.word	3361970
	.word	6704179
	.word	6717235
	.word	10040115
	.word	1644825
	.data
	.align	2
	.set	.LANCHOR0,. + 0
	.type	texture_files, %object
	.size	texture_files, 124
texture_files:
	.word	.LC1
	.word	.LC2
	.word	.LC3
	.word	.LC4
	.word	.LC5
	.word	.LC6
	.word	.LC7
	.word	.LC8
	.word	.LC9
	.word	.LC10
	.word	.LC11
	.word	.LC12
	.word	.LC13
	.word	.LC14
	.word	.LC15
	.word	.LC16
	.word	.LC17
	.word	.LC18
	.word	.LC19
	.word	.LC20
	.word	.LC21
	.word	.LC22
	.word	.LC23
	.word	.LC24
	.word	.LC25
	.word	.LC26
	.word	.LC27
	.word	.LC28
	.word	.LC29
	.word	.LC30
	.word	.LC31
	.type	BlockNames, %object
	.size	BlockNames, 104
BlockNames:
	.word	.LC32
	.word	.LC33
	.word	.LC34
	.word	.LC35
	.word	.LC36
	.word	.LC37
	.word	.LC38
	.word	.LC39
	.word	.LC40
	.word	.LC41
	.word	.LC42
	.word	.LC43
	.word	.LC44
	.word	.LC45
	.word	.LC46
	.word	.LC47
	.word	.LC48
	.word	.LC49
	.word	.LC50
	.word	.LC51
	.word	.LC52
	.word	.LC53
	.word	.LC54
	.word	.LC55
	.word	.LC56
	.word	.LC57
	.bss
	.align	2
	.set	.LANCHOR1,. + 0
	.type	textureMap, %object
	.size	textureMap, 536
textureMap:
	.space	536
	.type	icon, %object
	.size	icon, 248
icon:
	.space	248
	.text
.Letext0:
	.file 2 "/opt/devkitpro/devkitARM/arm-none-eabi/include/machine/_default_types.h"
	.file 3 "/opt/devkitpro/devkitARM/arm-none-eabi/include/sys/_stdint.h"
	.file 4 "/Users/blackout/Desktop/Craftus-Rehabilitated/include/world/Direction.h"
	.file 5 "/Users/blackout/Desktop/Craftus-Rehabilitated/include/blocks/Block.h"
	.file 6 "/opt/devkitpro/devkitARM/lib/gcc/arm-none-eabi/12.2.0/include/stddef.h"
	.file 7 "/opt/devkitPro//libctru/include/3ds/types.h"
	.file 8 "/opt/devkitPro//libctru/include/3ds/services/csnd.h"
	.file 9 "/opt/devkitPro//libctru/include/3ds/services/ndm.h"
	.file 10 "/opt/devkitPro//libctru/include/3ds/gpu/enums.h"
	.file 11 "/opt/devkitPro//libctru/include/3ds/ndsp/channel.h"
	.file 12 "/opt/devkitPro//libctru/include/3ds/applets/error.h"
	.file 13 "/opt/devkitPro//libctru/include/c3d/texture.h"
	.file 14 "/Users/blackout/Desktop/Craftus-Rehabilitated/include/rendering/TextureMap.h"