	.arch armv6k
	.fpu vfp
	.eabi_attribute 28, 1
	.eabi_attribute 20, 1
	.eabi_attribute 21, 1
	.eabi_attribute 23, 3
	.eabi_attribute 24, 1
	.eabi_attribute 25, 1
	.eabi_attribute 26, 1
	.eabi_attribute 30, 2
	.eabi_attribute 34, 1
	.eabi_attribute 18, 4
	.file	"CommandLine.c"
	.text
.Ltext0:
	.cfi_sections	.debug_frame
	.file 1 "/Users/blackout/Desktop/Craftus-Rehabilitated/source/misc/CommandLine.c"
	.section	.rodata.str1.4,"aMS",%progbits,1
	.align	2
.LC0:
	.ascii	"tp %f %f %f\000"
	.align	2
.LC1:
	.ascii	"teleported to %f, %f %f\000"
	.section	.text.CommandLine_Execute,"ax",%progbits
	.align	2
	.global	CommandLine_Execute
	.syntax unified
	.arm
	.type	CommandLine_Execute, %function
CommandLine_Execute:
.LVL0:
.LFB143:
	.loc 1 22 74 view -0
	.cfi_startproc
	@ args = 0, pretend = 0, frame = 16
	@ frame_needed = 0, uses_anonymous_args = 0
	.loc 1 23 2 view .LVU1
	.loc 1 22 74 is_stmt 0 view .LVU2
	push	{r4, r5, lr}
	.cfi_def_cfa_offset 12
	.cfi_offset 4, -12
	.cfi_offset 5, -8
	.cfi_offset 14, -4
	.loc 1 23 15 view .LVU3
	mov	r0, r2
.LVL1:
	.loc 1 22 74 view .LVU4
	sub	sp, sp, #36
	.cfi_def_cfa_offset 48
	.loc 1 22 74 view .LVU5
	mov	r4, r2
	mov	r5, r1
	.loc 1 23 15 view .LVU6
	bl	strlen
.LVL2:
	.loc 1 24 2 is_stmt 1 view .LVU7
	.loc 1 24 5 is_stmt 0 view .LVU8
	cmp	r0, #0
	.loc 1 24 5 view .LVU9
	beq	.L1
	.loc 1 24 18 discriminator 1 view .LVU10
	ldrb	r3, [r4]	@ zero_extendqisi2
	cmp	r3, #47
	beq	.L10
.LVL3:
.L1:
	.loc 1 40 1 view .LVU11
	add	sp, sp, #36
	.cfi_remember_state
	.cfi_def_cfa_offset 12
	@ sp needed
	pop	{r4, r5, pc}
.LVL4:
.L10:
	.cfi_restore_state
	.loc 1 25 3 is_stmt 1 view .LVU12
	.loc 1 25 6 is_stmt 0 view .LVU13
	cmp	r0, #8
	bhi	.L11
	.loc 1 35 3 is_stmt 1 view .LVU14
	.loc 1 35 6 is_stmt 0 view .LVU15
	cmp	r0, #2
	bne	.L1
	.loc 1 35 19 discriminator 1 view .LVU16
	ldrb	r3, [r4, #1]	@ zero_extendqisi2
	cmp	r3, #100
.LBB2:
	.loc 1 36 4 is_stmt 1 discriminator 1 view .LVU17
	.loc 1 37 4 discriminator 1 view .LVU18
	.loc 1 37 18 is_stmt 0 discriminator 1 view .LVU19
	ldreq	r2, .L12+4
	ldrbeq	r3, [r2]	@ zero_extendqisi2
	eoreq	r3, r3, #1
	strbeq	r3, [r2]
	b	.L1
.L11:
	.loc 1 37 18 discriminator 1 view .LVU20
.LBE2:
.LBB3:
	.loc 1 26 4 is_stmt 1 view .LVU21
	.loc 1 27 4 view .LVU22
	.loc 1 27 8 is_stmt 0 view .LVU23
	add	r3, sp, #28
	str	r3, [sp]
	ldr	r1, .L12+8
	add	r3, sp, #24
	add	r2, sp, #20
	add	r0, r4, #1
.LVL5:
	.loc 1 27 8 view .LVU24
	bl	sscanf
.LVL6:
	.loc 1 27 7 view .LVU25
	cmp	r0, #3
	bne	.L1
	.loc 1 28 5 is_stmt 1 view .LVU26
	.loc 1 29 28 is_stmt 0 view .LVU27
	vldr.32	s15, [sp, #24]
	.loc 1 30 24 view .LVU28
	vldr.32	s13, [sp, #28]
	.loc 1 28 24 view .LVU29
	vldr.32	s14, [sp, #20]
	.loc 1 29 28 view .LVU30
	vldr.32	s12, .L12
	.loc 1 31 5 view .LVU31
	vcvt.f64.f32	d4, s15
	vcvt.f64.f32	d5, s13
	vcvt.f64.f32	d3, s14
	.loc 1 29 28 view .LVU32
	vadd.f32	s15, s15, s12
	.loc 1 30 24 view .LVU33
	vstr.32	s13, [r5, #8]
	.loc 1 28 24 view .LVU34
	vstr.32	s14, [r5]
	.loc 1 29 5 is_stmt 1 view .LVU35
	.loc 1 31 5 is_stmt 0 view .LVU36
	vmov	r2, r3, d3
	vstr.64	d4, [sp]
	vstr.64	d5, [sp, #8]
	ldr	r0, .L12+12
	.loc 1 29 24 view .LVU37
	vstr.32	s15, [r5, #4]
	.loc 1 30 5 is_stmt 1 view .LVU38
	.loc 1 31 5 view .LVU39
	bl	DebugUI_Log
.LVL7:
	.loc 1 32 5 view .LVU40
	b	.L1
.L13:
	.align	2
.L12:
	.word	1065353216
	.word	showDebugInfo
	.word	.LC0
	.word	.LC1
.LBE3:
	.cfi_endproc
.LFE143:
	.size	CommandLine_Execute, .-CommandLine_Execute
	.section	.rodata.str1.4
	.align	2
.LC2:
	.ascii	"Enter command\000"
	.section	.text.CommandLine_Activate,"ax",%progbits
	.align	2
	.global	CommandLine_Activate
	.syntax unified
	.arm
	.type	CommandLine_Activate, %function
CommandLine_Activate:
.LVL8:
.LFB142:
	.loc 1 10 57 view -0
	.cfi_startproc
	@ args = 0, pretend = 0, frame = 0
	@ frame_needed = 0, uses_anonymous_args = 0
	.loc 1 11 2 view .LVU42
	.loc 1 12 2 view .LVU43
	.loc 1 13 2 view .LVU44
	.loc 1 10 57 is_stmt 0 view .LVU45
	push	{r4, r5, r6, lr}
	.cfi_def_cfa_offset 16
	.cfi_offset 4, -16
	.cfi_offset 5, -12
	.cfi_offset 6, -8
	.cfi_offset 14, -4
	.loc 1 13 2 view .LVU46
	mov	r3, #64
	mov	r2, #2
	.loc 1 10 57 view .LVU47
	mov	r4, r0
	mov	r5, r1
	.loc 1 13 2 view .LVU48
	ldr	r0, .L17
.LVL9:
	.loc 1 13 2 view .LVU49
	mov	r1, #3
.LVL10:
	.loc 1 13 2 view .LVU50
	bl	swkbdInit
.LVL11:
	.loc 1 14 2 is_stmt 1 view .LVU51
	ldr	r1, .L17+4
	ldr	r0, .L17
	bl	swkbdSetHintText
.LVL12:
	.loc 1 16 2 view .LVU52
	.loc 1 16 15 is_stmt 0 view .LVU53
	ldr	r1, .L17+8
	mov	r2, #64
	sub	r0, r1, #1024
	bl	swkbdInputText
.LVL13:
	.loc 1 17 2 is_stmt 1 view .LVU54
	.loc 1 17 5 is_stmt 0 view .LVU55
	cmp	r0, #2
	popne	{r4, r5, r6, pc}
	.loc 1 18 3 is_stmt 1 view .LVU56
	mov	r1, r5
	mov	r0, r4
.LVL14:
	.loc 1 20 1 is_stmt 0 view .LVU57
	pop	{r4, r5, r6, lr}
	.cfi_restore 14
	.cfi_restore 6
	.cfi_restore 5
	.cfi_restore 4
	.cfi_def_cfa_offset 0
.LVL15:
	.loc 1 18 3 view .LVU58
	ldr	r2, .L17+8
	b	CommandLine_Execute
.LVL16:
.L18:
	.loc 1 18 3 view .LVU59
	.align	2
.L17:
	.word	.LANCHOR0
	.word	.LC2
	.word	.LANCHOR0+1024
	.cfi_endproc
.LFE142:
	.size	CommandLine_Activate, .-CommandLine_Activate
	.bss
	.align	2
	.set	.LANCHOR0,. + 0
	.type	swkbd.1, %object
	.size	swkbd.1, 1024
swkbd.1:
	.space	1024
	.type	textBuffer.0, %object
	.size	textBuffer.0, 64
textBuffer.0:
	.space	64
	.text
.Letext0:
	.file 2 "/opt/devkitpro/devkitARM/arm-none-eabi/include/machine/_default_types.h"
	.file 3 "/opt/devkitpro/devkitARM/arm-none-eabi/include/sys/_stdint.h"
	.file 4 "/Users/blackout/Desktop/Craftus-Rehabilitated/include/world/Direction.h"
	.file 5 "/Users/blackout/Desktop/Craftus-Rehabilitated/include/blocks/Block.h"
	.file 6 "/Users/blackout/Desktop/Craftus-Rehabilitated/include/misc/Xorshift.h"
	.file 7 "/opt/devkitpro/devkitARM/lib/gcc/arm-none-eabi/12.2.0/include/stddef.h"
	.file 8 "/opt/devkitpro/devkitARM/arm-none-eabi/include/sys/lock.h"
	.file 9 "/Users/blackout/Desktop/Craftus-Rehabilitated/include/rendering/VBOCache.h"
	.file 10 "/Users/blackout/Desktop/Craftus-Rehabilitated/include/world/Chunk.h"
	.file 11 "/opt/devkitPro//libctru/include/3ds/types.h"
	.file 12 "/opt/devkitPro//libctru/include/3ds/synchronization.h"
	.file 13 "/opt/devkitPro//libctru/include/3ds/applets/swkbd.h"
	.file 14 "/Users/blackout/Desktop/Craftus-Rehabilitated/include/world/WorkQueue.h"
	.file 15 "/Users/blackout/Desktop/Craftus-Rehabilitated/include/world/World.h"
	.file 16 "/Users/blackout/Desktop/Craftus-Rehabilitated/include/inventory/ItemStack.h"
	.file 17 "/Users/blackout/Desktop/Craftus-Rehabilitated/include/misc/VecMath.h"
	.file 18 "/Users/blackout/Desktop/Craftus-Rehabilitated/include/misc/Raycast.h"
	.file 19 "/Users/blackout/Desktop/Craftus-Rehabilitated/include/entity/Player.h"
	.file 20 "/opt/devkitpro/devkitARM/arm-none-eabi/include/stdio.h"
	.file 21 "/opt/devkitpro/devkitARM/arm-none-eabi/include/string.h"
	.file 22 "/Users/blackout/Desktop/Craftus-Rehabilitated/include/gui/DebugUI.h"