	.arch armv6k
	.fpu vfp
	.eabi_attribute 28, 1
	.eabi_attribute 20, 1
	.eabi_attribute 21, 1
	.eabi_attribute 23, 3
	.eabi_attribute 24, 1
	.eabi_attribute 25, 1
	.eabi_attribute 26, 1
	.eabi_attribute 30, 2
	.eabi_attribute 34, 1
	.eabi_attribute 18, 4
	.file	"Hand.c"
	.text
.Ltext0:
	.cfi_sections	.debug_frame
	.file 1 "/Users/blackout/Desktop/Craftus-Rehabilitated/source/rendering/Hand.c"
	.section	.rodata.str1.4,"aMS",%progbits,1
	.align	2
.LC2:
	.ascii	"romfs:/textures/entity/steve.png\000"
	.section	.text.Hand_Init,"ax",%progbits
	.align	2
	.global	Hand_Init
	.syntax unified
	.arm
	.type	Hand_Init, %function
Hand_Init:
.LFB224:
	.loc 1 15 18 view -0
	.cfi_startproc
	@ args = 0, pretend = 0, frame = 0
	@ frame_needed = 0, uses_anonymous_args = 0
	.loc 1 16 2 view .LVU1
	.loc 1 15 18 is_stmt 0 view .LVU2
	push	{r4, lr}
	.cfi_def_cfa_offset 8
	.cfi_offset 4, -8
	.cfi_offset 14, -4
	.loc 1 16 12 view .LVU3
	mov	r0, #576
	bl	linearAlloc
.LVL0:
	.loc 1 18 1 view .LVU4
	pop	{r4, lr}
	.cfi_restore 14
	.cfi_restore 4
	.cfi_def_cfa_offset 0
	.loc 1 16 10 view .LVU5
	ldr	r3, .L4
	.loc 1 17 2 view .LVU6
	ldr	r1, .L4+4
	.loc 1 16 10 view .LVU7
	str	r0, [r3], #4
	.loc 1 17 2 is_stmt 1 view .LVU8
	mov	r0, r3
	b	Texture_Load
.LVL1:
.L5:
	.align	2
.L4:
	.word	.LANCHOR0
	.word	.LC2
	.cfi_endproc
.LFE224:
	.size	Hand_Init, .-Hand_Init
	.section	.text.Hand_Deinit,"ax",%progbits
	.align	2
	.global	Hand_Deinit
	.syntax unified
	.arm
	.type	Hand_Deinit, %function
Hand_Deinit:
.LFB225:
	.loc 1 19 20 view -0
	.cfi_startproc
	@ args = 0, pretend = 0, frame = 0
	@ frame_needed = 0, uses_anonymous_args = 0
	.loc 1 20 2 view .LVU10
	.loc 1 19 20 is_stmt 0 view .LVU11
	push	{r4, lr}
	.cfi_def_cfa_offset 8
	.cfi_offset 4, -8
	.cfi_offset 14, -4
	.loc 1 20 2 view .LVU12
	ldr	r4, .L8
	ldr	r0, [r4], #4
	bl	linearFree
.LVL2:
	.loc 1 21 2 is_stmt 1 view .LVU13
	mov	r0, r4
	.loc 1 22 1 is_stmt 0 view .LVU14
	pop	{r4, lr}
	.cfi_restore 14
	.cfi_restore 4
	.cfi_def_cfa_offset 0
	.loc 1 21 2 view .LVU15
	b	C3D_TexDelete
.LVL3:
.L9:
	.align	2
.L8:
	.word	.LANCHOR0
	.cfi_endproc
.LFE225:
	.size	Hand_Deinit, .-Hand_Deinit
	.section	.text.Hand_Draw,"ax",%progbits
	.align	2
	.global	Hand_Draw
	.syntax unified
	.arm
	.type	Hand_Draw, %function
Hand_Draw:
.LVL4:
.LFB226:
	.loc 1 24 87 is_stmt 1 view -0
	.cfi_startproc
	@ args = 0, pretend = 0, frame = 192
	@ frame_needed = 0, uses_anonymous_args = 0
	.loc 1 24 87 is_stmt 0 view .LVU17
	push	{r4, r5, r6, r7, r8, r9, r10, fp, lr}
	.cfi_def_cfa_offset 36
	.cfi_offset 4, -36
	.cfi_offset 5, -32
	.cfi_offset 6, -28
	.cfi_offset 7, -24
	.cfi_offset 8, -20
	.cfi_offset 9, -16
	.cfi_offset 10, -12
	.cfi_offset 11, -8
	.cfi_offset 14, -4
	vpush.64	{d8, d9}
	.cfi_def_cfa_offset 52
	.cfi_offset 80, -52
	.cfi_offset 81, -48
	.cfi_offset 82, -44
	.cfi_offset 83, -40
	sub	sp, sp, #204
	.cfi_def_cfa_offset 256
	.loc 1 24 87 view .LVU18
	mov	r4, r3
	mov	r7, r2
	mov	r5, r2
	mov	r8, r2
	str	r2, [sp, #12]
	mov	r6, r0
.LBB46:
.LBB47:
.LBB48:
.LBB49:
.LBB50:
	.file 2 "/opt/devkitPro//libctru/include/c3d/maths.h"
	.loc 2 285 2 view .LVU19
	mov	r2, #64
.LBE50:
.LBE49:
.LBE48:
.LBE47:
.LBE46:
	.loc 1 24 87 view .LVU20
	mov	r9, r1
.LBB61:
.LBB58:
.LBB55:
.LBB53:
.LBB51:
	.loc 2 285 2 view .LVU21
	add	r0, sp, #136
.LVL5:
	.loc 2 285 2 view .LVU22
	mov	r1, #0
.LVL6:
	.loc 2 285 2 view .LVU23
	bl	memset
.LVL7:
	.loc 2 285 2 view .LVU24
.LBE51:
.LBE53:
	.loc 2 309 14 view .LVU25
	mov	r3, #1065353216
.LBE55:
.LBE58:
.LBE61:
	.loc 1 28 31 view .LVU26
	vldr.32	s0, [r4, #20]
.LBB62:
.LBB59:
.LBB56:
	.loc 2 309 14 view .LVU27
	str	r3, [sp, #148]	@ float
	.loc 2 310 14 view .LVU28
	str	r3, [sp, #160]	@ float
	.loc 2 311 14 view .LVU29
	str	r3, [sp, #172]	@ float
	.loc 2 312 14 view .LVU30
	str	r3, [sp, #184]	@ float
.LBE56:
.LBE59:
.LBE62:
	.loc 1 28 31 view .LVU31
	bl	sinf
.LVL8:
	.loc 1 28 53 view .LVU32
	vldr.32	s13, .L57
	.loc 1 28 29 view .LVU33
	vldr.32	s14, .L57+4
	.loc 1 24 87 view .LVU34
	lsr	r8, r8, #16
	uxtb	r8, r8
	lsr	r5, r5, #8
	.loc 1 28 83 view .LVU35
	cmp	r8, #0
	.loc 1 28 31 view .LVU36
	vmov.f32	s15, s0
	.loc 1 28 29 view .LVU37
	vmla.f32	s14, s0, s13
	uxtb	r7, r7
.LVL9:
	.loc 1 28 29 view .LVU38
	uxtb	r5, r5
.LVL10:
	.loc 1 25 2 is_stmt 1 view .LVU39
	.loc 1 26 2 view .LVU40
	.loc 1 27 2 view .LVU41
.LBB63:
.LBI46:
	.loc 2 319 20 view .LVU42
	.loc 2 321 2 view .LVU43
.LBB60:
.LBI47:
	.loc 2 306 20 view .LVU44
.LBB57:
	.loc 2 308 2 view .LVU45
.LBB54:
.LBI49:
	.loc 2 283 20 view .LVU46
.LBB52:
	.loc 2 285 2 view .LVU47
	.loc 2 285 2 is_stmt 0 view .LVU48
.LBE52:
.LBE54:
	.loc 2 309 2 is_stmt 1 view .LVU49
	.loc 2 310 2 view .LVU50
	.loc 2 311 2 view .LVU51
	.loc 2 312 2 view .LVU52
	.loc 2 312 2 is_stmt 0 view .LVU53
.LBE57:
.LBE60:
.LBE63:
	.loc 1 28 2 is_stmt 1 view .LVU54
	.loc 1 28 83 is_stmt 0 view .LVU55
	bne	.L51
	.loc 1 29 74 view .LVU56
	vcmpe.f32	s0, #0
	.loc 1 28 2 view .LVU57
	vldr.32	s13, .L57+8
	.loc 1 29 74 view .LVU58
	vmrs	APSR_nzcv, FPSCR
	.loc 1 28 2 view .LVU59
	vadd.f32	s0, s14, s13
	.loc 1 29 74 view .LVU60
	bmi	.L52
	.loc 1 29 101 view .LVU61
	vldr.32	s14, .L57+12
	.loc 1 28 2 view .LVU62
	vldr.32	s1, .L57+16
	vldr.32	s2, .L57+20
	mov	r1, #1
	vnmls.f32	s1, s15, s14
	add	r0, sp, #136
	bl	Mtx_Translate
.LVL11:
	.loc 1 30 2 is_stmt 1 view .LVU63
.L28:
	.loc 1 24 87 is_stmt 0 view .LVU64
	vldr.32	s0, .L57+24
	b	.L13
.L51:
	.loc 1 29 74 view .LVU65
	vcmpe.f32	s0, #0
	.loc 1 28 2 view .LVU66
	vldr.32	s13, .L57+28
	.loc 1 29 74 view .LVU67
	vmrs	APSR_nzcv, FPSCR
	.loc 1 28 2 view .LVU68
	vadd.f32	s0, s14, s13
	vldr.32	s1, .L57+16
	.loc 1 29 101 view .LVU69
	vldr.32	s14, .L57+12
	.loc 1 28 2 view .LVU70
	vldr.32	s2, .L57+32
	mov	r1, #1
	add	r0, sp, #136
	.loc 1 29 74 view .LVU71
	bmi	.L53
	.loc 1 28 2 view .LVU72
	vnmls.f32	s1, s15, s14
	bl	Mtx_Translate
.LVL12:
	.loc 1 30 2 is_stmt 1 view .LVU73
.L31:
	.loc 1 24 87 is_stmt 0 view .LVU74
	vldr.32	s0, .L57+36
.L13:
	.loc 1 30 2 discriminator 4 view .LVU75
	mov	r1, #1
	add	r0, sp, #136
	bl	Mtx_RotateX
.LVL13:
	.loc 1 31 2 is_stmt 1 discriminator 4 view .LVU76
	vldr.32	s0, .L57+36
	mov	r1, #1
	add	r0, sp, #136
	bl	Mtx_RotateY
.LVL14:
	.loc 1 32 2 discriminator 4 view .LVU77
	.loc 1 32 12 is_stmt 0 discriminator 4 view .LVU78
	vldr.32	s15, [r4, #76]
	.loc 1 32 5 discriminator 4 view .LVU79
	vldr.32	s14, .L57+40
	vcmpe.f32	s15, s14
	vmrs	APSR_nzcv, FPSCR
	bgt	.L54
	.loc 1 38 2 is_stmt 1 view .LVU80
	.loc 1 38 5 is_stmt 0 view .LVU81
	cmp	r8, #0
	.loc 1 39 2 view .LVU82
	vldrne.32	s2, .L57+44
	.loc 1 38 5 view .LVU83
	beq	.L55
.L16:
	.loc 1 39 2 discriminator 4 view .LVU84
	vldr.32	s1, .L57+44
	.loc 1 45 2 discriminator 4 view .LVU85
	ldr	fp, .L57+48
	mov	r4, #0
.LVL15:
	.loc 1 45 2 discriminator 4 view .LVU86
	mov	r10, fp
	.loc 1 39 2 discriminator 4 view .LVU87
	vmov.f32	s0, s1
	add	r0, sp, #136
	bl	Mtx_Scale
.LVL16:
	.loc 1 41 2 is_stmt 1 discriminator 4 view .LVU88
	mov	r1, r9
	add	r2, sp, #136
	add	r0, sp, #72
	bl	Mtx_Multiply
.LVL17:
	.loc 1 43 2 discriminator 4 view .LVU89
.LBB64:
.LBI64:
	.file 3 "/opt/devkitPro//libctru/include/c3d/uniforms.h"
	.loc 3 38 20 discriminator 4 view .LVU90
	.loc 3 40 2 discriminator 4 view .LVU91
.LBB65:
.LBI65:
	.loc 3 30 20 discriminator 4 view .LVU92
.LBB66:
.LBB67:
.LBB68:
	.loc 3 18 16 discriminator 4 view .LVU93
	.loc 3 19 3 discriminator 4 view .LVU94
	.loc 3 18 26 discriminator 4 view .LVU95
	.loc 3 18 16 discriminator 4 view .LVU96
	.loc 3 19 3 discriminator 4 view .LVU97
	.loc 3 18 26 discriminator 4 view .LVU98
	.loc 3 18 16 discriminator 4 view .LVU99
	.loc 3 19 3 discriminator 4 view .LVU100
	.loc 3 18 26 discriminator 4 view .LVU101
	.loc 3 18 16 discriminator 4 view .LVU102
	.loc 3 19 3 discriminator 4 view .LVU103
	.loc 3 19 31 is_stmt 0 discriminator 4 view .LVU104
	ldr	r3, .L57+52
	ldr	r2, .L57+56
.LBE68:
.LBE67:
	.loc 3 35 10 discriminator 4 view .LVU105
	ldr	lr, .L57+60
.LBB70:
.LBB69:
	.loc 3 19 31 discriminator 4 view .LVU106
	str	r2, [r3, r6]	@ unaligned
	.loc 3 18 26 is_stmt 1 discriminator 4 view .LVU107
.LVL18:
	.loc 3 18 16 discriminator 4 view .LVU108
	.loc 3 20 2 discriminator 4 view .LVU109
	.loc 3 20 2 is_stmt 0 discriminator 4 view .LVU110
.LBE69:
.LBE70:
	.loc 3 34 2 is_stmt 1 discriminator 4 view .LVU111
	.loc 3 34 16 discriminator 4 view .LVU112
	.loc 3 35 10 is_stmt 0 discriminator 4 view .LVU113
	add	lr, lr, r6, lsl #4
	add	ip, sp, #72
.LVL19:
	.loc 3 35 10 discriminator 4 view .LVU114
	ldmia	ip!, {r0, r1, r2, r3}
.LVL20:
	.loc 3 35 10 discriminator 4 view .LVU115
	stmia	lr!, {r0, r1, r2, r3}
	ldmia	ip!, {r0, r1, r2, r3}
	stmia	lr!, {r0, r1, r2, r3}
	ldmia	ip!, {r0, r1, r2, r3}
	stmia	lr!, {r0, r1, r2, r3}
	ldm	ip, {r0, r1, r2, r3}
	stm	lr, {r0, r1, r2, r3}
.LVL21:
	.loc 3 35 10 discriminator 4 view .LVU116
.LBE66:
.LBE65:
.LBE64:
	.loc 1 45 2 is_stmt 1 discriminator 4 view .LVU117
	ldr	r0, [r10], #4
	mov	r2, #576
	ldr	r1, .L57+64
	str	r10, [sp, #8]
	bl	memcpy
.LVL22:
	.loc 1 46 2 discriminator 4 view .LVU118
.LBB71:
	.loc 1 46 7 discriminator 4 view .LVU119
	.loc 1 46 20 discriminator 4 view .LVU120
	.loc 1 47 3 discriminator 4 view .LVU121
	.loc 1 47 6 is_stmt 0 discriminator 4 view .LVU122
	cmp	r8, r4
	.loc 1 46 11 discriminator 4 view .LVU123
	mov	r6, r4
.LVL23:
	.loc 1 47 6 discriminator 4 view .LVU124
	bne	.L56
.LVL24:
.L17:
	.loc 1 67 4 is_stmt 1 view .LVU125
	mov	r0, #0
	ldr	r1, [sp, #8]
	bl	C3D_TexBind
.LVL25:
	.loc 1 69 4 view .LVU126
	.loc 1 69 7 is_stmt 0 view .LVU127
	cmp	r6, #1
	ble	.L23
.LBB72:
.LBB73:
	.loc 1 94 45 view .LVU128
	ldr	r5, [fp]
	add	ip, r5, r4
.L24:
	.loc 1 94 45 view .LVU129
	add	r4, r4, #96
	add	r5, r5, r4
	lsl	r8, r6, #2
.L26:
	.loc 1 83 5 is_stmt 1 discriminator 3 view .LVU130
	.loc 1 85 5 discriminator 3 view .LVU131
	.loc 1 85 19 is_stmt 0 discriminator 3 view .LVU132
	ldr	r7, .L57+68
	add	lr, sp, #24
	ldmia	r7!, {r0, r1, r2, r3}
	stmia	lr!, {r0, r1, r2, r3}
	ldmia	r7!, {r0, r1, r2, r3}
	stmia	lr!, {r0, r1, r2, r3}
	ldm	r7, {r0, r1, r2, r3}
	stm	lr, {r0, r1, r2, r3}
	.loc 1 94 5 is_stmt 1 discriminator 3 view .LVU133
	.loc 1 94 53 is_stmt 0 discriminator 3 view .LVU134
	ldrsh	r2, [ip, #6]
	.loc 1 94 37 discriminator 3 view .LVU135
	add	r1, sp, #200
	.loc 1 95 53 discriminator 3 view .LVU136
	ldrsh	r3, [ip, #8]
	.loc 1 94 37 discriminator 3 view .LVU137
	add	r2, r8, r2
	add	r2, r1, r2, lsl #1
	.loc 1 94 24 discriminator 3 view .LVU138
	ldrh	r2, [r2, #-176]
	.loc 1 95 37 discriminator 3 view .LVU139
	add	r3, r3, #2
	add	r3, r8, r3
	add	r3, r1, r3, lsl #1
	.loc 1 94 24 discriminator 3 view .LVU140
	strh	r2, [ip, #6]	@ movhi
	.loc 1 95 5 is_stmt 1 discriminator 3 view .LVU141
.LBE73:
	.loc 1 82 22 is_stmt 0 discriminator 3 view .LVU142
	add	ip, ip, #16
.LBB74:
	.loc 1 95 24 discriminator 3 view .LVU143
	ldrh	r3, [r3, #-176]
.LBE74:
	.loc 1 82 22 discriminator 3 view .LVU144
	cmp	ip, r5
.LBB75:
	.loc 1 95 24 discriminator 3 view .LVU145
	strh	r3, [ip, #-8]	@ movhi
.LBE75:
	.loc 1 82 28 is_stmt 1 discriminator 3 view .LVU146
	.loc 1 82 22 discriminator 3 view .LVU147
	bne	.L26
.LBE72:
	.loc 1 46 26 discriminator 2 view .LVU148
	add	r6, r6, #1
.LVL26:
	.loc 1 46 20 discriminator 2 view .LVU149
	cmp	r6, #6
	bne	.L17
.LVL27:
.L22:
	.loc 1 46 20 is_stmt 0 discriminator 2 view .LVU150
.LBE71:
	.loc 1 100 2 is_stmt 1 view .LVU151
	mov	r2, #255
	mov	r1, #7
	mov	r0, #1
	bl	C3D_AlphaTest
.LVL28:
	.loc 1 102 2 view .LVU152
	.loc 1 102 25 is_stmt 0 view .LVU153
	bl	C3D_GetBufInfo
.LVL29:
	.loc 1 104 2 view .LVU154
	mov	r7, #0
	.loc 1 102 25 view .LVU155
	mov	r4, r0
.LVL30:
	.loc 1 103 2 is_stmt 1 view .LVU156
	.loc 1 104 2 is_stmt 0 view .LVU157
	ldr	r6, .L57+72
.LVL31:
	.loc 1 103 2 view .LVU158
	bl	BufInfo_Init
.LVL32:
	.loc 1 104 2 is_stmt 1 view .LVU159
	mov	r3, #4
	ldr	r1, [fp]
	mov	r2, #16
	mov	r0, r4
	strd	r6, [sp]
	bl	BufInfo_Add
.LVL33:
	.loc 1 106 2 view .LVU160
	mov	r1, #0
	mov	r2, #36
	mov	r0, r1
	bl	C3D_DrawArrays
.LVL34:
	.loc 1 108 2 view .LVU161
	mov	r2, #0
	mov	r1, #6
	mov	r0, r2
	bl	C3D_AlphaTest
.LVL35:
	.loc 1 109 1 is_stmt 0 view .LVU162
	add	sp, sp, #204
	.cfi_remember_state
	.cfi_def_cfa_offset 52
	@ sp needed
	vldm	sp!, {d8-d9}
	.cfi_restore 82
	.cfi_restore 83
	.cfi_restore 80
	.cfi_restore 81
	.cfi_def_cfa_offset 36
	pop	{r4, r5, r6, r7, r8, r9, r10, fp, pc}
.LVL36:
.L52:
	.cfi_restore_state
	.loc 1 29 101 view .LVU163
	vldr.32	s14, .L57+12
	.loc 1 28 2 view .LVU164
	vldr.32	s1, .L57+16
	vldr.32	s2, .L57+20
	mov	r1, #1
	vnmla.f32	s1, s15, s14
	add	r0, sp, #136
	bl	Mtx_Translate
.LVL37:
	.loc 1 30 2 is_stmt 1 view .LVU165
	b	.L28
.L53:
	.loc 1 28 2 is_stmt 0 view .LVU166
	vnmla.f32	s1, s15, s14
	bl	Mtx_Translate
.LVL38:
	.loc 1 30 2 is_stmt 1 view .LVU167
	b	.L31
.LVL39:
.L23:
.LBB91:
.LBB76:
	.loc 1 71 5 view .LVU168
	.loc 1 71 19 is_stmt 0 view .LVU169
	add	r3, sp, #24
	mov	lr, r3
	ldr	r7, .L57+76
.LBB77:
.LBB78:
	.loc 1 76 21 view .LVU170
	ldr	r5, [fp]
.LBE78:
.LBE77:
	.loc 1 71 19 view .LVU171
	ldmia	r7!, {r0, r1, r2, r3}
	stmia	lr!, {r0, r1, r2, r3}
	ldm	r7, {r0, r1, r2, r3}
	add	ip, r5, r4
	stm	lr, {r0, r1, r2, r3}
	.loc 1 74 5 is_stmt 1 view .LVU172
.LBB82:
	.loc 1 74 10 view .LVU173
.LVL40:
	.loc 1 74 23 view .LVU174
.LBE82:
	.loc 1 71 19 is_stmt 0 view .LVU175
	mov	lr, ip
	eor	r9, r6, #1
	add	r8, r5, #96
	lsl	r9, r9, #1
	add	r8, r8, r4
	lsl	r10, r6, #1
.LVL41:
.L25:
.LBB83:
.LBB79:
	.loc 1 75 6 is_stmt 1 discriminator 3 view .LVU176
	.loc 1 76 6 discriminator 3 view .LVU177
	.loc 1 77 10 is_stmt 0 discriminator 3 view .LVU178
	ldrsh	r1, [lr, #8]
	.loc 1 76 10 discriminator 3 view .LVU179
	ldrsh	r3, [lr, #6]
.LVL42:
	.loc 1 77 6 is_stmt 1 discriminator 3 view .LVU180
	.loc 1 78 6 discriminator 3 view .LVU181
	.loc 1 78 79 is_stmt 0 discriminator 3 view .LVU182
	add	r2, r9, r1
	add	r2, r3, r2, lsl #1
	add	r0, sp, #200
	add	r2, r0, r2, lsl #2
	.loc 1 78 25 discriminator 3 view .LVU183
	ldrh	r2, [r2, #-176]
	.loc 1 79 79 discriminator 3 view .LVU184
	add	r1, r10, r1
.LVL43:
	.loc 1 79 79 discriminator 3 view .LVU185
	add	r3, r3, r1, lsl #1
.LVL44:
	.loc 1 79 79 discriminator 3 view .LVU186
	add	r3, r0, r3, lsl #2
	.loc 1 78 25 discriminator 3 view .LVU187
	strh	r2, [lr, #6]	@ movhi
.LVL45:
	.loc 1 79 6 is_stmt 1 discriminator 3 view .LVU188
.LBE79:
	.loc 1 74 23 is_stmt 0 discriminator 3 view .LVU189
	add	lr, lr, #16
.LVL46:
.LBB80:
	.loc 1 79 25 discriminator 3 view .LVU190
	ldrh	r3, [r3, #-174]
.LBE80:
	.loc 1 74 23 discriminator 3 view .LVU191
	cmp	r8, lr
.LBB81:
	.loc 1 79 25 discriminator 3 view .LVU192
	strh	r3, [lr, #-8]	@ movhi
.LVL47:
	.loc 1 79 25 discriminator 3 view .LVU193
.LBE81:
	.loc 1 74 29 is_stmt 1 discriminator 3 view .LVU194
	.loc 1 74 23 discriminator 3 view .LVU195
	bne	.L25
	b	.L24
.LVL48:
.L56:
	.loc 1 74 23 is_stmt 0 discriminator 3 view .LVU196
.LBE83:
.LBE76:
.LBB84:
.LBB85:
.LBB86:
	.loc 1 59 76 view .LVU197
	ldr	r8, .L57+80
.LVL49:
.L21:
	.loc 1 59 76 view .LVU198
.LBE86:
.LBE85:
	.loc 1 48 4 is_stmt 1 view .LVU199
	.loc 1 49 4 view .LVU200
	.loc 1 50 4 view .LVU201
	uxtb	r9, r6
	mov	r1, r9
	mov	r2, r5
	mov	r0, r7
	add	r3, sp, #24
	bl	Block_GetTexture
.LVL50:
	.loc 1 51 4 view .LVU202
	mov	r2, r9
	mov	r1, r5
	mov	r0, r7
	add	r3, sp, #20
	bl	Block_GetColor
.LVL51:
	.loc 1 56 4 view .LVU203
.LBB90:
	.loc 1 56 9 view .LVU204
	.loc 1 56 22 view .LVU205
.LBB87:
	.loc 1 59 34 is_stmt 0 view .LVU206
	ldr	r3, [fp]
	.loc 1 59 84 view .LVU207
	ldrh	r9, [sp, #24]
	add	r1, r3, #96
	.loc 1 60 84 view .LVU208
	ldrh	lr, [sp, #26]
	.loc 1 62 32 view .LVU209
	ldrh	ip, [sp, #20]
	.loc 1 64 32 view .LVU210
	ldrb	r0, [sp, #22]	@ zero_extendqisi2
	add	r3, r3, r4
	add	r1, r1, r4
.LVL52:
.L20:
	.loc 1 57 5 is_stmt 1 view .LVU211
	.loc 1 59 5 view .LVU212
	.loc 1 59 76 is_stmt 0 view .LVU213
	ldrsh	r2, [r3, #6]
	.loc 1 62 25 view .LVU214
	strh	ip, [r3, #10]	@ movhi
	.loc 1 59 76 view .LVU215
	cmp	r2, #1
	.loc 1 60 76 view .LVU216
	ldrsh	r2, [r3, #8]
	.loc 1 59 76 view .LVU217
	movne	r10, #1
	moveq	r10, r8
	.loc 1 60 76 view .LVU218
	cmp	r2, #1
	movne	r2, #1
	moveq	r2, r8
	.loc 1 64 25 view .LVU219
	strb	r0, [r3, #12]
.LBE87:
	.loc 1 56 22 view .LVU220
	add	r3, r3, #16
.LBB88:
	.loc 1 59 76 view .LVU221
	add	r10, r9, r10
	.loc 1 60 76 view .LVU222
	add	r2, lr, r2
.LBE88:
	.loc 1 56 22 view .LVU223
	cmp	r1, r3
.LBB89:
	.loc 1 59 24 view .LVU224
	strh	r10, [r3, #-10]	@ movhi
	.loc 1 60 5 is_stmt 1 view .LVU225
	.loc 1 60 24 is_stmt 0 view .LVU226
	strh	r2, [r3, #-8]	@ movhi
	.loc 1 62 5 is_stmt 1 view .LVU227
	.loc 1 63 5 view .LVU228
	.loc 1 64 5 view .LVU229
.LBE89:
	.loc 1 56 28 view .LVU230
	.loc 1 56 22 view .LVU231
	bne	.L20
.LBE90:
.LBE84:
	.loc 1 46 26 view .LVU232
	add	r6, r6, #1
.LVL53:
	.loc 1 46 20 view .LVU233
	cmp	r6, #6
	add	r4, r4, #96
	bne	.L21
	b	.L22
.L58:
	.align	2
.L57:
	.word	1022739087
	.word	1056964608
	.word	1045220557
	.word	1008981770
	.word	1059984507
	.word	-1077097267
	.word	1062045612
	.word	0
	.word	-1080452710
	.word	1043511490
	.word	-1110651699
	.word	1049582633
	.word	.LANCHOR0
	.word	C3D_FVUnifDirty
	.word	16843009
	.word	C3D_FVUnif
	.word	cube_sides_lut
	.word	.LANCHOR1+32
	.word	12816
	.word	.LANCHOR1
	.word	4095
	.word	1036831949
	.word	1050253722
.LVL54:
.L54:
	.loc 1 46 20 is_stmt 0 view .LVU234
.LBE91:
.LBB92:
	.loc 1 33 3 is_stmt 1 view .LVU235
	.loc 1 33 48 is_stmt 0 view .LVU236
	vldr.32	s14, .L57+84
	.loc 1 33 56 view .LVU237
	vldr.32	s18, .L57+88
	.loc 1 33 48 view .LVU238
	vadd.f32	s15, s15, s14
	.loc 1 33 56 view .LVU239
	vdiv.f32	s14, s15, s18
	.loc 1 33 74 view .LVU240
	vldr.64	d6, .L59
	.loc 1 33 56 view .LVU241
	vcvt.f64.f32	d7, s14
	.loc 1 33 74 view .LVU242
	vmul.f64	d7, d7, d6
	.loc 1 33 16 view .LVU243
	vcvt.f32.f64	s16, d7
	vmov.f32	s0, s16
	bl	sinf
.LVL55:
	vmov.f32	s15, s0
	.loc 1 34 13 view .LVU244
	vmov.f32	s0, s16
	.loc 1 33 16 view .LVU245
	vmov.f32	s16, s15
.LVL56:
	.loc 1 34 3 is_stmt 1 view .LVU246
	.loc 1 34 13 is_stmt 0 view .LVU247
	bl	cosf
.LVL57:
	.loc 1 35 3 view .LVU248
	vneg.f32	s16, s16
.LVL58:
	.loc 1 35 3 view .LVU249
	mov	r1, #1
	.loc 1 34 13 view .LVU250
	vmov.f32	s17, s0
.LVL59:
	.loc 1 35 3 is_stmt 1 view .LVU251
	add	r0, sp, #136
	vmov.f32	s0, s16
.LVL60:
	.loc 1 35 3 is_stmt 0 view .LVU252
	bl	Mtx_RotateX
.LVL61:
	.loc 1 36 3 is_stmt 1 view .LVU253
	vldr.32	s2, .L59+8
	vnmul.f32	s1, s17, s18
	vmul.f32	s2, s16, s2
	vldr.32	s0, .L59+12
	mov	r1, #1
	add	r0, sp, #136
	bl	Mtx_Translate
.LVL62:
.LBE92:
	.loc 1 38 2 view .LVU254
	.loc 1 38 5 is_stmt 0 view .LVU255
	cmp	r8, #0
	.loc 1 39 2 view .LVU256
	vldrne.32	s2, .L59+16
	.loc 1 38 5 view .LVU257
	bne	.L16
.LVL63:
.L55:
	.loc 1 38 25 is_stmt 1 discriminator 1 view .LVU258
	vldr.32	s0, .L59+20
	mov	r1, #1
	add	r0, sp, #136
	bl	Mtx_RotateZ
.LVL64:
	.loc 1 39 2 discriminator 1 view .LVU259
	vldr.32	s2, .L59+24
	b	.L16
.L60:
	.align	3
.L59:
	.word	1413754136
	.word	1074340347
	.word	1048576000
	.word	0
	.word	1049582633
	.word	1060288706
	.word	1061997773
	.cfi_endproc
.LFE226:
	.size	Hand_Draw, .-Hand_Draw
	.section	.rodata
	.align	2
	.set	.LANCHOR1,. + 0
.LC0:
	.short	0
	.short	1
	.short	0
	.short	0
	.short	1
	.short	1
	.short	1
	.short	0
	.short	1
	.short	0
	.short	1
	.short	1
	.short	0
	.short	0
	.short	0
	.short	1
.LC1:
	.short	24576
	.short	26624
	.short	10240
	.short	16384
	.short	20480
	.short	22528
	.short	10240
	.short	16384
	.short	26624
	.short	28672
	.short	10240
	.short	16384
	.short	22528
	.short	24576
	.short	10240
	.short	16384
	.short	24576
	.short	26624
	.short	8192
	.short	10240
	.short	22528
	.short	24576
	.short	8192
	.short	10240
	.bss
	.align	2
	.set	.LANCHOR0,. + 0
	.type	handVBO, %object
	.size	handVBO, 4
handVBO:
	.space	4
	.type	steveTexture, %object
	.size	steveTexture, 24
steveTexture:
	.space	24
	.text
.Letext0:
	.file 4 "/opt/devkitpro/devkitARM/arm-none-eabi/include/machine/_default_types.h"
	.file 5 "/opt/devkitpro/devkitARM/arm-none-eabi/include/sys/_stdint.h"
	.file 6 "/opt/devkitpro/devkitARM/lib/gcc/arm-none-eabi/12.2.0/include/stddef.h"
	.file 7 "/opt/devkitPro//libctru/include/3ds/types.h"
	.file 8 "/opt/devkitpro/devkitARM/arm-none-eabi/include/sys/lock.h"
	.file 9 "/opt/devkitPro//libctru/include/3ds/synchronization.h"
	.file 10 "/opt/devkitPro//libctru/include/3ds/services/csnd.h"
	.file 11 "/opt/devkitPro//libctru/include/3ds/services/ndm.h"
	.file 12 "/opt/devkitPro//libctru/include/3ds/gpu/enums.h"
	.file 13 "/opt/devkitPro//libctru/include/3ds/ndsp/channel.h"
	.file 14 "/opt/devkitPro//libctru/include/3ds/applets/error.h"
	.file 15 "/opt/devkitPro//libctru/include/c3d/types.h"
	.file 16 "/opt/devkitPro//libctru/include/c3d/buffers.h"
	.file 17 "/opt/devkitPro//libctru/include/c3d/texture.h"
	.file 18 "/Users/blackout/Desktop/Craftus-Rehabilitated/include/world/Direction.h"
	.file 19 "/Users/blackout/Desktop/Craftus-Rehabilitated/include/blocks/Block.h"
	.file 20 "/Users/blackout/Desktop/Craftus-Rehabilitated/include/misc/Xorshift.h"
	.file 21 "/Users/blackout/Desktop/Craftus-Rehabilitated/include/rendering/VBOCache.h"
	.file 22 "/Users/blackout/Desktop/Craftus-Rehabilitated/include/world/Chunk.h"
	.file 23 "/Users/blackout/Desktop/Craftus-Rehabilitated/include/world/WorkQueue.h"
	.file 24 "/Users/blackout/Desktop/Craftus-Rehabilitated/include/world/World.h"
	.file 25 "/Users/blackout/Desktop/Craftus-Rehabilitated/include/inventory/ItemStack.h"
	.file 26 "/Users/blackout/Desktop/Craftus-Rehabilitated/include/misc/VecMath.h"
	.file 27 "/Users/blackout/Desktop/Craftus-Rehabilitated/include/misc/Raycast.h"
	.file 28 "/Users/blackout/Desktop/Craftus-Rehabilitated/include/entity/Player.h"
	.file 29 "/Users/blackout/Desktop/Craftus-Rehabilitated/include/rendering/VertexFmt.h"
	.file 30 "/opt/devkitpro/devkitARM/arm-none-eabi/include/string.h"
	.file 31 "/opt/devkitPro//libctru/include/c3d/base.h"
	.file 32 "/opt/devkitPro//libctru/include/c3d/effect.h"
	.file 33 "/opt/devkitpro/devkitARM/arm-none-eabi/include/math.h"
	.file 34 "/opt/devkitPro//libctru/include/3ds/allocator/linear.h"
	.file 35 "/Users/blackout/Desktop/Craftus-Rehabilitated/include/rendering/TextureMap.h"
	.file 36 "<built-in>"