	.arch armv6k
	.fpu vfp
	.eabi_attribute 28, 1
	.eabi_attribute 20, 1
	.eabi_attribute 21, 1
	.eabi_attribute 23, 3
	.eabi_attribute 24, 1
	.eabi_attribute 25, 1
	.eabi_attribute 26, 1
	.eabi_attribute 30, 2
	.eabi_attribute 34, 1
	.eabi_attribute 18, 4
	.file	"lodepng.c"
	.text
.Ltext0:
	.cfi_sections	.debug_frame
	.file 1 "/Users/blackout/Desktop/Craftus-Rehabilitated/dependencies/lodepng/lodepng.c"
	.section	.text.bpmnode_create,"ax",%progbits
	.align	2
	.syntax unified
	.arm
	.type	bpmnode_create, %function
bpmnode_create:
.LVL0:
.LFB38:
	.loc 1 699 1 view -0
	.cfi_startproc
	@ args = 0, pretend = 0, frame = 0
	@ frame_needed = 0, uses_anonymous_args = 0
	.loc 1 700 3 view .LVU1
	.loc 1 701 3 view .LVU2
	.loc 1 704 3 view .LVU3
	.loc 1 699 1 is_stmt 0 view .LVU4
	push	{r4, r5, r6, r7, r8, lr}
	.cfi_def_cfa_offset 24
	.cfi_offset 4, -24
	.cfi_offset 5, -20
	.cfi_offset 6, -16
	.cfi_offset 7, -12
	.cfi_offset 8, -8
	.cfi_offset 14, -4
	.loc 1 699 1 view .LVU5
	mov	r4, r1
	.loc 1 723 17 view .LVU6
	ldr	r1, [r0, #16]
.LVL1:
	.loc 1 699 1 view .LVU7
	mov	r5, r2
	mov	r6, r3
	.loc 1 704 5 view .LVU8
	ldrd	r2, [r0, #8]
.LVL2:
	.loc 1 704 5 view .LVU9
	cmp	r3, r2
	.loc 1 723 27 view .LVU10
	addcc	r1, r1, r3, lsl #2
	.loc 1 723 43 view .LVU11
	addcc	r3, r3, #1
	.loc 1 704 5 view .LVU12
	bcc	.L3
.LVL3:
	.loc 1 707 18 is_stmt 1 view .LVU13
	.loc 1 707 26 is_stmt 0 view .LVU14
	ldr	r2, [r0]
	.loc 1 708 26 view .LVU15
	ldr	r7, [r0, #20]
	.loc 1 707 18 view .LVU16
	cmp	r2, #0
	beq	.L4
	ldr	ip, [r0, #4]
	.loc 1 707 66 view .LVU17
	mov	r8, #0
	mov	lr, ip
	add	r3, ip, r2, lsl #4
.LVL4:
.L5:
	.loc 1 707 42 is_stmt 1 discriminator 3 view .LVU18
	.loc 1 707 66 is_stmt 0 discriminator 3 view .LVU19
	str	r8, [lr, #12]
	.loc 1 707 37 is_stmt 1 discriminator 3 view .LVU20
	.loc 1 707 18 discriminator 3 view .LVU21
	add	lr, lr, #16
	cmp	r3, lr
	bne	.L5
.LVL5:
	.loc 1 708 18 view .LVU22
	cmp	r7, #0
	beq	.L9
.L7:
.LBB793:
	.loc 1 711 80 is_stmt 0 view .LVU23
	mov	lr, #1
	.loc 1 711 23 view .LVU24
	ldr	r3, [r0, #24]
	add	r7, r3, r7, lsl #2
	sub	r8, r7, #4
	ldr	r7, [r0, #28]
	sub	r3, r3, #4
	sub	r7, r7, #4
.LVL6:
.L14:
	.loc 1 710 7 is_stmt 1 view .LVU25
	.loc 1 711 7 view .LVU26
	.loc 1 711 16 is_stmt 0 view .LVU27
	ldr	ip, [r3, #4]!
.LVL7:
	.loc 1 711 42 is_stmt 1 view .LVU28
	cmp	ip, #0
	beq	.L13
.L10:
	.loc 1 711 67 discriminator 3 view .LVU29
	.loc 1 711 80 is_stmt 0 discriminator 3 view .LVU30
	str	lr, [ip, #12]
	.loc 1 711 53 is_stmt 1 discriminator 3 view .LVU31
	ldr	ip, [ip, #8]
.LVL8:
	.loc 1 711 42 discriminator 3 view .LVU32
	cmp	ip, #0
	bne	.L10
.L13:
	.loc 1 712 7 view .LVU33
	.loc 1 712 16 is_stmt 0 view .LVU34
	ldr	ip, [r7, #4]!
.LVL9:
	.loc 1 712 42 is_stmt 1 view .LVU35
	cmp	ip, #0
	beq	.L12
.L11:
	.loc 1 712 67 discriminator 3 view .LVU36
	.loc 1 712 80 is_stmt 0 discriminator 3 view .LVU37
	str	lr, [ip, #12]
	.loc 1 712 53 is_stmt 1 discriminator 3 view .LVU38
	ldr	ip, [ip, #8]
.LVL10:
	.loc 1 712 42 discriminator 3 view .LVU39
	cmp	ip, #0
	bne	.L11
.L12:
	.loc 1 712 42 is_stmt 0 discriminator 3 view .LVU40
.LBE793:
	.loc 1 708 38 is_stmt 1 view .LVU41
	.loc 1 708 18 view .LVU42
	cmp	r8, r3
	bne	.L14
	.loc 1 715 5 view .LVU43
	.loc 1 715 20 is_stmt 0 view .LVU44
	mov	r3, #0
	.loc 1 716 18 view .LVU45
	cmp	r2, #0
	.loc 1 715 20 view .LVU46
	str	r3, [r0, #8]
	.loc 1 716 5 is_stmt 1 view .LVU47
.LVL11:
	.loc 1 716 18 view .LVU48
	beq	.L8
	ldr	ip, [r0, #4]
.LVL12:
.L16:
	.loc 1 699 1 is_stmt 0 view .LVU49
	mov	lr, #0
	b	.L18
.LVL13:
.L33:
	.loc 1 699 1 view .LVU50
	ldr	ip, [r0, #4]
.LVL14:
.L18:
	.loc 1 718 7 is_stmt 1 view .LVU51
	.loc 1 718 36 view .LVU52
	.loc 1 716 37 view .LVU53
	.loc 1 718 24 is_stmt 0 view .LVU54
	add	ip, ip, lr, lsl #4
	.loc 1 718 9 view .LVU55
	ldr	r3, [ip, #12]
	.loc 1 716 37 view .LVU56
	add	lr, lr, #1
.LVL15:
	.loc 1 716 18 is_stmt 1 view .LVU57
	.loc 1 718 9 is_stmt 0 view .LVU58
	cmp	r3, #0
	.loc 1 718 57 view .LVU59
	ldreq	r3, [r0, #8]
	.loc 1 718 66 view .LVU60
	addeq	r7, r3, #1
	streq	r7, [r0, #8]
	.loc 1 718 70 view .LVU61
	streq	ip, [r1, r3, lsl #2]
	.loc 1 716 18 view .LVU62
	cmp	r2, lr
	bne	.L33
.LVL16:
.L8:
	.loc 1 720 5 is_stmt 1 view .LVU63
	.loc 1 699 1 is_stmt 0 view .LVU64
	mov	r3, #1
.L3:
	.loc 1 723 3 is_stmt 1 view .LVU65
	.loc 1 723 43 is_stmt 0 view .LVU66
	str	r3, [r0, #12]
	.loc 1 723 10 view .LVU67
	ldr	r0, [r1]
.LVL17:
	.loc 1 724 3 is_stmt 1 view .LVU68
	.loc 1 725 17 is_stmt 0 view .LVU69
	strd	r4, [r0]
	.loc 1 726 3 is_stmt 1 view .LVU70
	.loc 1 726 16 is_stmt 0 view .LVU71
	str	r6, [r0, #8]
	.loc 1 727 3 is_stmt 1 view .LVU72
	.loc 1 728 1 is_stmt 0 view .LVU73
	pop	{r4, r5, r6, r7, r8, pc}
.LVL18:
.L4:
	.loc 1 708 18 is_stmt 1 view .LVU74
	cmp	r7, #0
	.loc 1 715 20 is_stmt 0 view .LVU75
	streq	r7, [r0, #8]
	.loc 1 708 18 view .LVU76
	bne	.L7
	b	.L8
.L9:
	.loc 1 715 5 is_stmt 1 view .LVU77
	.loc 1 715 20 is_stmt 0 view .LVU78
	str	r7, [r0, #8]
	.loc 1 716 5 is_stmt 1 view .LVU79
	.loc 1 716 18 view .LVU80
	b	.L16
	.cfi_endproc
.LFE38:
	.size	bpmnode_create, .-bpmnode_create
	.section	.text.boundaryPM,"ax",%progbits
	.align	2
	.syntax unified
	.arm
	.type	boundaryPM, %function
boundaryPM:
.LVL19:
.LFB40:
	.loc 1 759 1 view -0
	.cfi_startproc
	@ args = 4, pretend = 0, frame = 8
	@ frame_needed = 0, uses_anonymous_args = 0
	.loc 1 760 3 view .LVU82
	.loc 1 759 1 is_stmt 0 view .LVU83
	push	{r4, r5, r6, r7, r8, r9, r10, fp, lr}
	.cfi_def_cfa_offset 36
	.cfi_offset 4, -36
	.cfi_offset 5, -32
	.cfi_offset 6, -28
	.cfi_offset 7, -24
	.cfi_offset 8, -20
	.cfi_offset 9, -16
	.cfi_offset 10, -12
	.cfi_offset 11, -8
	.cfi_offset 14, -4
	mov	r4, r3
	.loc 1 760 29 view .LVU84
	ldr	r5, [r0, #28]
	.loc 1 762 5 view .LVU85
	cmp	r3, #0
	.loc 1 760 38 view .LVU86
	lsl	r7, r3, #2
	ldr	r3, [r5, r3, lsl #2]
.LVL20:
	.loc 1 759 1 view .LVU87
	mov	r10, r2
	mov	fp, r0
	mov	r9, r1
	.loc 1 760 12 view .LVU88
	ldr	r2, [r3, #4]
.LVL21:
	.loc 1 762 3 is_stmt 1 view .LVU89
	.loc 1 759 1 is_stmt 0 view .LVU90
	sub	sp, sp, #20
	.cfi_def_cfa_offset 56
	.loc 1 760 38 view .LVU91
	add	r6, r5, r4, lsl #2
	.loc 1 762 5 view .LVU92
	beq	.L40
.LBB794:
	.loc 1 781 39 view .LVU93
	sub	r1, r10, #-2147483647
.LVL22:
	.loc 1 781 39 view .LVU94
	lsl	r1, r1, #1
	str	r1, [sp, #8]
	.loc 1 781 12 view .LVU95
	ldr	r1, [sp, #56]
.LBE794:
	.loc 1 765 10 view .LVU96
	ldr	r8, [r0, #24]
	add	r7, r7, #4
.LBB795:
	.loc 1 781 12 view .LVU97
	add	r1, r1, #1
	add	r7, r8, r7
	add	r5, r5, r4, lsl #2
	add	r8, r8, r4, lsl #2
	str	r1, [sp, #12]
	b	.L39
.LVL23:
.L45:
	.loc 1 783 7 view .LVU98
	ldr	r1, [sp, #56]
	mov	r3, r4
	mov	r2, r10
	str	r1, [sp]
	mov	r0, fp
	mov	r1, r9
	bl	boundaryPM
.LVL24:
	.loc 1 784 7 is_stmt 1 view .LVU99
.LBE795:
	.loc 1 760 3 view .LVU100
	.loc 1 760 38 is_stmt 0 view .LVU101
	ldr	r3, [r5]
	.loc 1 762 5 view .LVU102
	cmp	r4, #0
	.loc 1 760 12 view .LVU103
	ldr	r2, [r3, #4]
.LVL25:
	.loc 1 762 3 is_stmt 1 view .LVU104
	.loc 1 762 5 is_stmt 0 view .LVU105
	beq	.L43
.LVL26:
.L39:
.LBB796:
	.loc 1 771 5 is_stmt 1 view .LVU106
	.loc 1 778 5 view .LVU107
	.loc 1 771 68 is_stmt 0 view .LVU108
	ldr	r0, [r5, #-4]!
	.loc 1 771 36 view .LVU109
	ldr	r1, [r8, #-4]!
	.loc 1 771 9 view .LVU110
	ldr	r0, [r0]
	ldr	r1, [r1]
	.loc 1 773 7 view .LVU111
	cmp	r10, r2
	.loc 1 783 7 view .LVU112
	sub	r4, r4, #1
	.loc 1 772 23 view .LVU113
	str	r3, [r7, #-4]!
	.loc 1 771 9 view .LVU114
	add	r1, r1, r0
.LVL27:
	.loc 1 772 5 is_stmt 1 view .LVU115
	.loc 1 773 5 view .LVU116
	.loc 1 773 7 is_stmt 0 view .LVU117
	bls	.L38
	.loc 1 773 57 discriminator 1 view .LVU118
	ldr	r0, [r9, r2, lsl #4]
	.loc 1 773 31 discriminator 1 view .LVU119
	cmp	r0, r1
	blt	.L44
.L38:
	.loc 1 778 25 view .LVU120
	ldr	r3, [r5]
	mov	r0, fp
	bl	bpmnode_create
.LVL28:
	.loc 1 783 7 is_stmt 1 view .LVU121
	.loc 1 781 7 is_stmt 0 view .LVU122
	ldrd	r2, [sp, #8]
	cmp	r3, r2
.LBE796:
	.loc 1 760 38 view .LVU123
	sub	r6, r6, #4
.LBB797:
	.loc 1 778 23 view .LVU124
	str	r0, [r6, #4]
	.loc 1 781 5 is_stmt 1 view .LVU125
	.loc 1 781 7 is_stmt 0 view .LVU126
	blt	.L45
.LVL29:
.L34:
	.loc 1 781 7 view .LVU127
.LBE797:
	.loc 1 787 1 view .LVU128
	add	sp, sp, #20
	.cfi_remember_state
	.cfi_def_cfa_offset 36
	@ sp needed
	pop	{r4, r5, r6, r7, r8, r9, r10, fp, pc}
.LVL30:
.L43:
	.cfi_restore_state
	.loc 1 787 1 view .LVU129
	mov	r7, r4
.LVL31:
.L40:
	.loc 1 764 5 is_stmt 1 view .LVU130
	.loc 1 764 7 is_stmt 0 view .LVU131
	cmp	r10, r2
	bls	.L34
	.loc 1 765 5 is_stmt 1 view .LVU132
	.loc 1 765 23 is_stmt 0 view .LVU133
	ldr	r0, [fp, #24]
	.loc 1 766 25 view .LVU134
	ldr	r1, [r9, r2, lsl #4]
	.loc 1 765 23 view .LVU135
	str	r3, [r0, r7]
	.loc 1 766 5 is_stmt 1 view .LVU136
	.loc 1 766 25 is_stmt 0 view .LVU137
	add	r2, r2, #1
.LVL32:
	.loc 1 766 25 view .LVU138
	mov	r3, #0
	mov	r0, fp
	bl	bpmnode_create
.LVL33:
	.loc 1 766 23 view .LVU139
	str	r0, [r6]
	.loc 1 787 1 view .LVU140
	add	sp, sp, #20
	.cfi_remember_state
	.cfi_def_cfa_offset 36
	@ sp needed
	pop	{r4, r5, r6, r7, r8, r9, r10, fp, pc}
.LVL34:
.L44:
	.cfi_restore_state
.LBB798:
	.loc 1 775 7 is_stmt 1 view .LVU141
	.loc 1 775 27 is_stmt 0 view .LVU142
	mov	r1, r0
.LVL35:
	.loc 1 775 27 view .LVU143
	ldr	r3, [r3, #8]
	mov	r0, fp
	add	r2, r2, #1
.LVL36:
	.loc 1 775 27 view .LVU144
	bl	bpmnode_create
.LVL37:
	.loc 1 775 25 view .LVU145
	str	r0, [r6]
	.loc 1 776 7 is_stmt 1 view .LVU146
.LBE798:
	.loc 1 787 1 is_stmt 0 view .LVU147
	add	sp, sp, #20
	.cfi_def_cfa_offset 36
	@ sp needed
	pop	{r4, r5, r6, r7, r8, r9, r10, fp, pc}
	.loc 1 787 1 view .LVU148
	.cfi_endproc
.LFE40:
	.size	boundaryPM, .-boundaryPM
	.section	.text.huffmanDecodeSymbol,"ax",%progbits
	.align	2
	.syntax unified
	.arm
	.type	huffmanDecodeSymbol, %function
huffmanDecodeSymbol:
.LVL38:
.LFB47:
	.loc 1 949 1 is_stmt 1 view -0
	.cfi_startproc
	@ args = 0, pretend = 0, frame = 0
	@ frame_needed = 0, uses_anonymous_args = 0
	.loc 1 950 3 view .LVU150
	.loc 1 949 1 is_stmt 0 view .LVU151
	push	{r4, r5, r6, lr}
	.cfi_def_cfa_offset 16
	.cfi_offset 4, -16
	.cfi_offset 5, -12
	.cfi_offset 6, -8
	.cfi_offset 14, -4
	.loc 1 950 12 view .LVU152
	mov	r4, #0
	.loc 1 949 1 view .LVU153
	mov	r6, r0
	.loc 1 953 8 view .LVU154
	ldr	lr, [r1]
	b	.L50
.LVL39:
.L47:
	.loc 1 958 48 view .LVU155
	ldrb	ip, [r6, lr, lsr #3]	@ zero_extendqisi2
	.loc 1 958 8 view .LVU156
	ldr	r0, [r2]
	.loc 1 958 59 view .LVU157
	asr	ip, ip, r5
	.loc 1 958 75 view .LVU158
	and	ip, ip, #1
	.loc 1 958 26 view .LVU159
	add	ip, ip, r4, lsl #1
	.loc 1 959 5 view .LVU160
	add	lr, lr, #1
	.loc 1 958 8 view .LVU161
	ldr	r0, [r0, ip, lsl #2]
.LVL40:
	.loc 1 959 5 is_stmt 1 view .LVU162
	str	lr, [r1]
	.loc 1 960 5 view .LVU163
	.loc 1 960 21 is_stmt 0 view .LVU164
	ldr	ip, [r2, #16]
	.loc 1 960 7 view .LVU165
	cmp	ip, r0
	.loc 1 961 18 view .LVU166
	sub	r4, r0, ip
.LVL41:
	.loc 1 963 5 is_stmt 1 view .LVU167
	.loc 1 960 7 is_stmt 0 view .LVU168
	pophi	{r4, r5, r6, pc}
	.loc 1 963 7 view .LVU169
	cmp	ip, r4
	bls	.L49
.LVL42:
.L50:
	.loc 1 951 3 is_stmt 1 view .LVU170
	.loc 1 953 5 view .LVU171
	.loc 1 958 5 view .LVU172
	.loc 1 961 10 view .LVU173
	.loc 1 953 7 is_stmt 0 view .LVU174
	cmp	r3, lr
	.loc 1 958 67 view .LVU175
	and	r5, lr, #7
	.loc 1 953 7 view .LVU176
	bhi	.L47
.L49:
	.loc 1 953 35 view .LVU177
	mvn	r0, #0
	pop	{r4, r5, r6, pc}
	.cfi_endproc
.LFE47:
	.size	huffmanDecodeSymbol, .-huffmanDecodeSymbol
	.section	.text.getHash,"ax",%progbits
	.align	2
	.syntax unified
	.arm
	.type	getHash, %function
getHash:
.LVL43:
.LFB60:
	.loc 1 1422 1 is_stmt 1 view -0
	.cfi_startproc
	@ args = 0, pretend = 0, frame = 0
	@ frame_needed = 0, uses_anonymous_args = 0
	@ link register save eliminated.
	.loc 1 1423 3 view .LVU179
	.loc 1 1424 3 view .LVU180
	.loc 1 1424 10 is_stmt 0 view .LVU181
	add	r3, r2, #2
	.loc 1 1424 5 view .LVU182
	cmp	r3, r1
	bcs	.L53
	.loc 1 1430 5 is_stmt 1 view .LVU183
.LVL44:
	.loc 1 1431 5 view .LVU184
	.loc 1 1432 5 view .LVU185
	.loc 1 1431 30 is_stmt 0 view .LVU186
	add	r1, r0, r2
.LVL45:
	.loc 1 1432 40 view .LVU187
	ldrb	r3, [r0, r3]	@ zero_extendqisi2
	.loc 1 1431 40 view .LVU188
	ldrb	r1, [r1, #1]	@ zero_extendqisi2
	.loc 1 1430 15 view .LVU189
	ldrb	r2, [r0, r2]	@ zero_extendqisi2
.LVL46:
	.loc 1 1432 15 view .LVU190
	lsl	r0, r3, #8
.LVL47:
	.loc 1 1432 12 view .LVU191
	eor	r0, r0, r1, lsl #4
	eor	r0, r0, r2
.LVL48:
	.loc 1 1432 12 view .LVU192
	bx	lr
.LVL49:
.L53:
.LBB799:
	.loc 1 1434 5 is_stmt 1 view .LVU193
	.loc 1 1435 5 view .LVU194
	.loc 1 1435 7 is_stmt 0 view .LVU195
	cmp	r2, r1
	bcs	.L57
	.loc 1 1436 5 is_stmt 1 view .LVU196
.LVL50:
	.loc 1 1437 5 view .LVU197
	.loc 1 1437 18 view .LVU198
	.loc 1 1435 7 is_stmt 0 view .LVU199
	mov	r3, #0
	add	r2, r0, r2
.LVL51:
	.loc 1 1435 7 view .LVU200
	add	r1, r0, r1
.LVL52:
	.loc 1 1435 7 view .LVU201
.LBE799:
	.loc 1 1423 12 view .LVU202
	mov	r0, r3
.LVL53:
.L56:
.LBB800:
	.loc 1 1437 34 is_stmt 1 discriminator 3 view .LVU203
	.loc 1 1437 59 is_stmt 0 discriminator 3 view .LVU204
	ldrb	ip, [r2], #1	@ zero_extendqisi2
.LVL54:
	.loc 1 1437 18 discriminator 3 view .LVU205
	cmp	r1, r2
	.loc 1 1437 41 discriminator 3 view .LVU206
	eor	r0, r0, ip, lsl r3
.LVL55:
	.loc 1 1437 29 is_stmt 1 discriminator 3 view .LVU207
	.loc 1 1437 18 discriminator 3 view .LVU208
	add	r3, r3, #8
	bne	.L56
.LBE800:
	.loc 1 1439 17 is_stmt 0 view .LVU209
	uxth	r0, r0
.LVL56:
	.loc 1 1439 3 is_stmt 1 view .LVU210
	.loc 1 1439 17 is_stmt 0 view .LVU211
	bx	lr
.LVL57:
.L57:
.LBB801:
	.loc 1 1435 28 view .LVU212
	mov	r0, #0
.LVL58:
	.loc 1 1435 28 view .LVU213
.LBE801:
	.loc 1 1440 1 view .LVU214
	bx	lr
	.cfi_endproc
.LFE60:
	.size	getHash, .-getHash
	.section	.text.updateHashChain,"ax",%progbits
	.align	2
	.syntax unified
	.arm
	.type	updateHashChain, %function
updateHashChain:
.LVL59:
.LFB62:
	.loc 1 1455 1 is_stmt 1 view -0
	.cfi_startproc
	@ args = 0, pretend = 0, frame = 0
	@ frame_needed = 0, uses_anonymous_args = 0
	.loc 1 1456 3 view .LVU216
	.loc 1 1456 19 is_stmt 0 view .LVU217
	ldr	ip, [r0, #8]
	.loc 1 1455 1 view .LVU218
	push	{r4, r5, lr}
	.cfi_def_cfa_offset 12
	.cfi_offset 4, -12
	.cfi_offset 5, -8
	.cfi_offset 14, -4
	.loc 1 1457 16 view .LVU219
	ldr	lr, [r0]
	.loc 1 1456 19 view .LVU220
	str	r2, [ip, r1, lsl #2]
	.loc 1 1457 3 is_stmt 1 view .LVU221
	.loc 1 1457 16 is_stmt 0 view .LVU222
	ldr	r4, [lr, r2, lsl #2]
	.loc 1 1457 44 view .LVU223
	lsl	ip, r1, #1
	.loc 1 1457 5 view .LVU224
	cmn	r4, #1
	.loc 1 1457 33 is_stmt 1 view .LVU225
	.loc 1 1457 51 is_stmt 0 view .LVU226
	ldrne	r5, [r0, #4]
	strhne	r4, [r5, ip]	@ movhi
	.loc 1 1458 3 is_stmt 1 view .LVU227
	.loc 1 1458 23 is_stmt 0 view .LVU228
	str	r1, [lr, r2, lsl #2]
	.loc 1 1460 3 is_stmt 1 view .LVU229
	.loc 1 1460 21 is_stmt 0 view .LVU230
	ldr	r2, [r0, #20]
.LVL60:
	.loc 1 1460 21 view .LVU231
	strh	r3, [r2, ip]	@ movhi
	.loc 1 1461 3 is_stmt 1 view .LVU232
	.loc 1 1461 17 is_stmt 0 view .LVU233
	ldr	r2, [r0, #12]
	ldr	lr, [r2, r3, lsl #2]
	.loc 1 1461 5 view .LVU234
	cmn	lr, #1
	.loc 1 1461 35 is_stmt 1 view .LVU235
	.loc 1 1461 54 is_stmt 0 view .LVU236
	ldrne	r0, [r0, #16]
.LVL61:
	.loc 1 1461 54 view .LVU237
	strhne	lr, [r0, ip]	@ movhi
	.loc 1 1462 3 is_stmt 1 view .LVU238
	.loc 1 1462 25 is_stmt 0 view .LVU239
	str	r1, [r2, r3, lsl #2]
	.loc 1 1463 1 view .LVU240
	pop	{r4, r5, pc}
	.cfi_endproc
.LFE62:
	.size	updateHashChain, .-updateHashChain
	.section	.text.checkColorValidity,"ax",%progbits
	.align	2
	.syntax unified
	.arm
	.type	checkColorValidity, %function
checkColorValidity:
.LVL62:
.LFB98:
	.loc 1 2549 1 is_stmt 1 view -0
	.cfi_startproc
	@ args = 0, pretend = 0, frame = 0
	@ frame_needed = 0, uses_anonymous_args = 0
	@ link register save eliminated.
	.loc 1 2550 3 view .LVU242
	cmp	r0, #6
	ldrls	pc, [pc, r0, asl #2]
	b	.L75
.L72:
	.word	.L74
	.word	.L75
	.word	.L71
	.word	.L73
	.word	.L71
	.word	.L75
	.word	.L71
.L71:
	.loc 1 2553 13 view .LVU243
	.loc 1 2553 22 is_stmt 0 view .LVU244
	sub	r1, r1, #8
.LVL63:
	.loc 1 2552 80 view .LVU245
	bics	r0, r1, #8
.LVL64:
	.loc 1 2552 80 view .LVU246
	movne	r0, #37
	bx	lr
.LVL65:
.L74:
	.loc 1 2552 13 is_stmt 1 view .LVU247
	.loc 1 2552 43 is_stmt 0 view .LVU248
	sub	r3, r1, #4
	.loc 1 2552 26 view .LVU249
	sub	r0, r1, #1
.LVL66:
	.loc 1 2552 43 view .LVU250
	bic	r3, r3, #4
	.loc 1 2552 15 view .LVU251
	cmp	r3, #0
	cmpne	r0, #1
	movhi	r0, #1
	movls	r0, #0
	bxls	lr
	.loc 1 2552 80 discriminator 1 view .LVU252
	cmp	r1, #16
	moveq	r0, #0
	movne	r0, #37
	bx	lr
.LVL67:
.L73:
	.loc 1 2554 13 is_stmt 1 view .LVU253
	.loc 1 2554 43 is_stmt 0 view .LVU254
	sub	r3, r1, #4
	bic	r3, r3, #4
	.loc 1 2554 26 view .LVU255
	sub	r1, r1, #1
.LVL68:
	.loc 1 2552 80 view .LVU256
	cmp	r3, #0
	cmpne	r1, #1
	movls	r0, #0
.LVL69:
	.loc 1 2552 80 view .LVU257
	movhi	r0, #37
	bx	lr
.LVL70:
.L75:
	.loc 1 2550 3 view .LVU258
	mov	r0, #31
.LVL71:
	.loc 1 2560 1 view .LVU259
	bx	lr
	.cfi_endproc
.LFE98:
	.size	checkColorValidity, .-checkColorValidity
	.section	.text.addColorBits,"ax",%progbits
	.align	2
	.syntax unified
	.arm
	.type	addColorBits, %function
addColorBits:
.LVL72:
.LFB134:
	.loc 1 2982 1 is_stmt 1 view -0
	.cfi_startproc
	@ args = 0, pretend = 0, frame = 0
	@ frame_needed = 0, uses_anonymous_args = 0
	.loc 1 2983 3 view .LVU261
	.loc 1 2983 30 is_stmt 0 view .LVU262
	cmp	r2, #1
	moveq	ip, #7
	.loc 1 2982 1 view .LVU263
	str	lr, [sp, #-4]!
	.cfi_def_cfa_offset 4
	.cfi_offset 14, -4
	.loc 1 2983 30 view .LVU264
	beq	.L82
	.loc 1 2983 30 discriminator 1 view .LVU265
	cmp	r2, #2
	moveq	ip, #3
	movne	ip, #1
.L82:
.LVL73:
	.loc 1 2985 3 is_stmt 1 discriminator 8 view .LVU266
	.loc 1 2986 3 discriminator 8 view .LVU267
	.loc 1 2986 6 is_stmt 0 discriminator 8 view .LVU268
	mvn	lr, #0
	.loc 1 2988 5 discriminator 8 view .LVU269
	tst	ip, r1
	.loc 1 2987 25 discriminator 8 view .LVU270
	bic	ip, ip, r1
.LVL74:
	.loc 1 2987 20 discriminator 8 view .LVU271
	mul	ip, r2, ip
	.loc 1 2988 24 discriminator 8 view .LVU272
	mul	r1, r1, r2
.LVL75:
	.loc 1 2986 6 discriminator 8 view .LVU273
	bic	r3, r3, lr, lsl r2
.LVL76:
	.loc 1 2987 3 is_stmt 1 discriminator 8 view .LVU274
	.loc 1 2988 3 discriminator 8 view .LVU275
	.loc 1 2989 8 discriminator 8 view .LVU276
	.loc 1 2987 6 is_stmt 0 discriminator 8 view .LVU277
	lsl	r3, r3, ip
	.loc 1 2989 30 discriminator 8 view .LVU278
	ldrbne	r2, [r0, r1, lsr #3]	@ zero_extendqisi2
.LVL77:
	.loc 1 2988 36 discriminator 8 view .LVU279
	uxtb	r3, r3
	.loc 1 2989 30 discriminator 8 view .LVU280
	orrne	r3, r3, r2
	.loc 1 2988 36 discriminator 8 view .LVU281
	strb	r3, [r0, r1, lsr #3]
	.loc 1 2990 1 discriminator 8 view .LVU282
	ldr	pc, [sp], #4
	.cfi_endproc
.LFE134:
	.size	addColorBits, .-addColorBits
	.section	.text.color_tree_get,"ax",%progbits
	.align	2
	.syntax unified
	.arm
	.type	color_tree_get, %function
color_tree_get:
.LVL78:
.LFB137:
	.loc 1 3028 1 is_stmt 1 view -0
	.cfi_startproc
	@ args = 4, pretend = 0, frame = 0
	@ frame_needed = 0, uses_anonymous_args = 0
	.loc 1 3029 3 view .LVU284
	.loc 1 3030 3 view .LVU285
	.loc 1 3030 11 is_stmt 0 view .LVU286
	mov	ip, #0
	.loc 1 3030 20 is_stmt 1 view .LVU287
	.loc 1 3028 1 is_stmt 0 view .LVU288
	push	{r4, r5, r6, r7, lr}
	.cfi_def_cfa_offset 20
	.cfi_offset 4, -20
	.cfi_offset 5, -16
	.cfi_offset 6, -12
	.cfi_offset 7, -8
	.cfi_offset 14, -4
	.loc 1 3028 1 view .LVU289
	ldrb	r6, [sp, #20]	@ zero_extendqisi2
.LVL79:
.L92:
.LBB802:
	.loc 1 3032 5 is_stmt 1 view .LVU290
	.loc 1 3033 5 view .LVU291
	.loc 1 3034 10 view .LVU292
	.loc 1 3032 21 is_stmt 0 view .LVU293
	asr	r7, r1, ip
.LVL80:
	.loc 1 3032 44 view .LVU294
	asr	r5, r2, ip
	.loc 1 3032 67 view .LVU295
	asr	r4, r3, ip
.LVL81:
	.loc 1 3032 29 view .LVU296
	and	r7, r7, #1
.LVL82:
	.loc 1 3032 52 view .LVU297
	and	r5, r5, #1
	.loc 1 3032 90 view .LVU298
	asr	lr, r6, ip
	.loc 1 3032 57 view .LVU299
	add	r5, r5, r7, lsl #1
	.loc 1 3032 75 view .LVU300
	and	r4, r4, #1
.LVL83:
	.loc 1 3032 57 view .LVU301
	add	r4, r4, r5, lsl #1
	.loc 1 3032 84 view .LVU302
	and	lr, lr, #1
	.loc 1 3033 23 view .LVU303
	add	lr, lr, r4, lsl #1
	ldr	r0, [r0, lr, lsl #2]
.LVL84:
	.loc 1 3033 23 view .LVU304
.LBE802:
	.loc 1 3030 25 is_stmt 1 view .LVU305
	add	ip, ip, #1
.LVL85:
	.loc 1 3030 20 view .LVU306
.LBB803:
	.loc 1 3033 7 is_stmt 0 view .LVU307
	cmp	r0, #0
	beq	.L93
.LBE803:
	.loc 1 3030 20 discriminator 2 view .LVU308
	cmp	ip, #8
	bne	.L92
	.loc 1 3036 3 is_stmt 1 view .LVU309
	.loc 1 3036 29 is_stmt 0 view .LVU310
	ldr	r0, [r0, #64]
.LVL86:
	.loc 1 3036 29 view .LVU311
	pop	{r4, r5, r6, r7, pc}
.LVL87:
.L93:
.LBB804:
	.loc 1 3033 35 view .LVU312
	mvn	r0, #0
.LVL88:
	.loc 1 3033 35 view .LVU313
.LBE804:
	.loc 1 3037 1 view .LVU314
	pop	{r4, r5, r6, r7, pc}
	.cfi_endproc
.LFE137:
	.size	color_tree_get, .-color_tree_get
	.section	.text.getPixelColorRGBA16,"ax",%progbits
	.align	2
	.syntax unified
	.arm
	.type	getPixelColorRGBA16, %function
getPixelColorRGBA16:
.LVL89:
.LFB144:
	.loc 1 3427 1 is_stmt 1 view -0
	.cfi_startproc
	@ args = 12, pretend = 0, frame = 0
	@ frame_needed = 0, uses_anonymous_args = 0
	.loc 1 3428 3 view .LVU316
	.loc 1 3427 1 is_stmt 0 view .LVU317
	push	{r4, r5, r6, r7, r8, r9, lr}
	.cfi_def_cfa_offset 28
	.cfi_offset 4, -28
	.cfi_offset 5, -24
	.cfi_offset 6, -20
	.cfi_offset 7, -16
	.cfi_offset 8, -12
	.cfi_offset 9, -8
	.cfi_offset 14, -4
	.loc 1 3427 1 view .LVU318
	ldr	r6, [sp, #36]
	ldr	lr, [sp, #28]
	.loc 1 3428 10 view .LVU319
	ldrb	r4, [r6]	@ zero_extendqisi2
	.loc 1 3427 1 view .LVU320
	ldr	ip, [sp, #32]
	.loc 1 3428 5 view .LVU321
	cmp	r4, #0
	bne	.L97
	.loc 1 3430 5 is_stmt 1 view .LVU322
	.loc 1 3430 31 is_stmt 0 view .LVU323
	lsl	r5, ip, #1
	.loc 1 3430 44 view .LVU324
	add	r5, r5, #1
	.loc 1 3430 40 view .LVU325
	ldrb	r7, [lr, ip, lsl #1]	@ zero_extendqisi2
	.loc 1 3430 44 view .LVU326
	ldrb	r4, [lr, r5]	@ zero_extendqisi2
	.loc 1 3430 40 view .LVU327
	add	r4, r4, r7, lsl #8
	uxth	r4, r4
	.loc 1 3430 18 view .LVU328
	strh	r4, [r2]	@ movhi
	.loc 1 3431 7 view .LVU329
	ldr	r2, [r6, #16]
.LVL90:
	.loc 1 3430 13 view .LVU330
	strh	r4, [r1]	@ movhi
	.loc 1 3431 7 view .LVU331
	cmp	r2, #0
	.loc 1 3430 8 view .LVU332
	strh	r4, [r0]	@ movhi
	.loc 1 3431 5 is_stmt 1 view .LVU333
	.loc 1 3431 7 is_stmt 0 view .LVU334
	beq	.L98
	.loc 1 3431 38 discriminator 1 view .LVU335
	ldrb	r0, [lr, ip, lsl #1]	@ zero_extendqisi2
.LVL91:
	.loc 1 3431 54 discriminator 1 view .LVU336
	ldrb	r2, [lr, r5]	@ zero_extendqisi2
	.loc 1 3431 26 discriminator 1 view .LVU337
	ldr	r1, [r6, #20]
.LVL92:
	.loc 1 3431 50 discriminator 1 view .LVU338
	add	r2, r2, r0, lsl #8
	.loc 1 3431 26 discriminator 1 view .LVU339
	cmp	r2, r1
	beq	.L101
.L98:
	.loc 1 3432 10 is_stmt 1 view .LVU340
	.loc 1 3432 13 is_stmt 0 view .LVU341
	mvn	r2, #0
	strh	r2, [r3]	@ movhi
	pop	{r4, r5, r6, r7, r8, r9, pc}
.LVL93:
.L97:
	.loc 1 3434 8 is_stmt 1 view .LVU342
	.loc 1 3434 10 is_stmt 0 view .LVU343
	cmp	r4, #2
	beq	.L110
	.loc 1 3445 8 is_stmt 1 view .LVU344
	.loc 1 3445 10 is_stmt 0 view .LVU345
	cmp	r4, #4
	beq	.L111
	.loc 1 3450 8 is_stmt 1 view .LVU346
	.loc 1 3450 10 is_stmt 0 view .LVU347
	cmp	r4, #6
	popne	{r4, r5, r6, r7, r8, r9, pc}
	.loc 1 3452 5 is_stmt 1 view .LVU348
	.loc 1 3452 35 is_stmt 0 view .LVU349
	add	r4, lr, ip, lsl #3
	.loc 1 3452 19 view .LVU350
	ldrb	lr, [lr, ip, lsl #3]	@ zero_extendqisi2
	.loc 1 3452 35 view .LVU351
	ldrb	ip, [r4, #1]	@ zero_extendqisi2
	.loc 1 3452 31 view .LVU352
	add	ip, ip, lr, lsl #8
	.loc 1 3452 8 view .LVU353
	strh	ip, [r0]	@ movhi
	.loc 1 3453 5 is_stmt 1 view .LVU354
	.loc 1 3453 19 is_stmt 0 view .LVU355
	ldrb	ip, [r4, #2]	@ zero_extendqisi2
	.loc 1 3453 35 view .LVU356
	ldrb	r0, [r4, #3]	@ zero_extendqisi2
.LVL94:
	.loc 1 3453 31 view .LVU357
	add	r0, r0, ip, lsl #8
	.loc 1 3453 8 view .LVU358
	strh	r0, [r1]	@ movhi
	.loc 1 3454 5 is_stmt 1 view .LVU359
	.loc 1 3454 19 is_stmt 0 view .LVU360
	ldrb	r0, [r4, #4]	@ zero_extendqisi2
	.loc 1 3454 35 view .LVU361
	ldrb	r1, [r4, #5]	@ zero_extendqisi2
.LVL95:
	.loc 1 3454 31 view .LVU362
	add	r1, r1, r0, lsl #8
	.loc 1 3454 8 view .LVU363
	strh	r1, [r2]	@ movhi
	.loc 1 3455 5 is_stmt 1 view .LVU364
	.loc 1 3455 19 is_stmt 0 view .LVU365
	ldrb	r1, [r4, #6]	@ zero_extendqisi2
	.loc 1 3455 35 view .LVU366
	ldrb	r2, [r4, #7]	@ zero_extendqisi2
.LVL96:
	.loc 1 3455 31 view .LVU367
	add	r2, r2, r1, lsl #8
	.loc 1 3455 8 view .LVU368
	strh	r2, [r3]	@ movhi
	.loc 1 3457 1 view .LVU369
	pop	{r4, r5, r6, r7, r8, r9, pc}
.LVL97:
.L110:
	.loc 1 3436 5 is_stmt 1 view .LVU370
	.loc 1 3436 22 is_stmt 0 view .LVU371
	add	ip, ip, ip, lsl #1
	lsl	ip, ip, #1
	.loc 1 3436 35 view .LVU372
	add	r5, ip, #1
	.loc 1 3436 19 view .LVU373
	ldrb	r7, [lr, ip]	@ zero_extendqisi2
	.loc 1 3436 35 view .LVU374
	ldrb	r4, [lr, r5]	@ zero_extendqisi2
	.loc 1 3436 31 view .LVU375
	add	r4, r4, r7, lsl #8
	.loc 1 3436 8 view .LVU376
	strh	r4, [r0]	@ movhi
	.loc 1 3437 5 is_stmt 1 view .LVU377
	.loc 1 3437 19 is_stmt 0 view .LVU378
	add	r7, ip, #2
	.loc 1 3437 35 view .LVU379
	add	r4, ip, #3
	.loc 1 3437 19 view .LVU380
	ldrb	r8, [lr, r7]	@ zero_extendqisi2
	.loc 1 3437 35 view .LVU381
	ldrb	r0, [lr, r4]	@ zero_extendqisi2
.LVL98:
	.loc 1 3437 31 view .LVU382
	add	r0, r0, r8, lsl #8
	.loc 1 3437 8 view .LVU383
	strh	r0, [r1]	@ movhi
	.loc 1 3438 5 is_stmt 1 view .LVU384
	.loc 1 3438 19 is_stmt 0 view .LVU385
	add	r8, ip, #4
	.loc 1 3438 35 view .LVU386
	add	r0, ip, #5
	.loc 1 3438 19 view .LVU387
	ldrb	r9, [lr, r8]	@ zero_extendqisi2
	.loc 1 3438 35 view .LVU388
	ldrb	r1, [lr, r0]	@ zero_extendqisi2
.LVL99:
	.loc 1 3438 31 view .LVU389
	add	r1, r1, r9, lsl #8
	.loc 1 3438 8 view .LVU390
	strh	r1, [r2]	@ movhi
	.loc 1 3439 5 is_stmt 1 view .LVU391
	.loc 1 3439 7 is_stmt 0 view .LVU392
	ldr	r2, [r6, #16]
.LVL100:
	.loc 1 3439 7 view .LVU393
	cmp	r2, #0
	beq	.L98
	.loc 1 3440 20 view .LVU394
	ldrb	r1, [lr, ip]	@ zero_extendqisi2
	.loc 1 3440 36 view .LVU395
	ldrb	r2, [lr, r5]	@ zero_extendqisi2
	.loc 1 3440 32 view .LVU396
	add	r2, r2, r1, lsl #8
	.loc 1 3440 8 view .LVU397
	ldr	r1, [r6, #20]
	cmp	r2, r1
	bne	.L98
	.loc 1 3441 20 view .LVU398
	ldrb	r1, [lr, r7]	@ zero_extendqisi2
	.loc 1 3441 36 view .LVU399
	ldrb	r2, [lr, r4]	@ zero_extendqisi2
	.loc 1 3441 32 view .LVU400
	add	r2, r2, r1, lsl #8
	.loc 1 3441 8 view .LVU401
	ldr	r1, [r6, #24]
	cmp	r2, r1
	bne	.L98
	.loc 1 3442 20 view .LVU402
	ldrb	ip, [lr, r8]	@ zero_extendqisi2
	.loc 1 3442 36 view .LVU403
	ldrb	r2, [lr, r0]	@ zero_extendqisi2
	.loc 1 3442 8 view .LVU404
	ldr	r1, [r6, #28]
	.loc 1 3442 32 view .LVU405
	add	r2, r2, ip, lsl #8
	.loc 1 3442 8 view .LVU406
	cmp	r2, r1
	bne	.L98
.L101:
	.loc 1 3431 82 is_stmt 1 discriminator 2 view .LVU407
	.loc 1 3431 85 is_stmt 0 discriminator 2 view .LVU408
	mov	r2, #0
	strh	r2, [r3]	@ movhi
	pop	{r4, r5, r6, r7, r8, r9, pc}
.LVL101:
.L111:
	.loc 1 3447 5 is_stmt 1 view .LVU409
	.loc 1 3447 45 is_stmt 0 view .LVU410
	add	r4, lr, ip, lsl #2
	.loc 1 3447 29 view .LVU411
	ldrb	lr, [lr, ip, lsl #2]	@ zero_extendqisi2
	.loc 1 3447 45 view .LVU412
	ldrb	ip, [r4, #1]	@ zero_extendqisi2
	.loc 1 3447 41 view .LVU413
	add	ip, ip, lr, lsl #8
	uxth	ip, ip
	.loc 1 3447 18 view .LVU414
	strh	ip, [r2]	@ movhi
	.loc 1 3447 13 view .LVU415
	strh	ip, [r1]	@ movhi
	.loc 1 3447 8 view .LVU416
	strh	ip, [r0]	@ movhi
	.loc 1 3448 5 is_stmt 1 view .LVU417
	.loc 1 3448 19 is_stmt 0 view .LVU418
	ldrb	r1, [r4, #2]	@ zero_extendqisi2
.LVL102:
	.loc 1 3448 35 view .LVU419
	ldrb	r2, [r4, #3]	@ zero_extendqisi2
.LVL103:
	.loc 1 3448 31 view .LVU420
	add	r2, r2, r1, lsl #8
	.loc 1 3448 8 view .LVU421
	strh	r2, [r3]	@ movhi
	pop	{r4, r5, r6, r7, r8, r9, pc}
	.cfi_endproc
.LFE144:
	.size	getPixelColorRGBA16, .-getPixelColorRGBA16
	.global	__aeabi_uidiv
	.section	.text.Adam7_getpassvalues,"ax",%progbits
	.align	2
	.syntax unified
	.arm
	.type	Adam7_getpassvalues, %function
Adam7_getpassvalues:
.LVL104:
.LFB151:
	.loc 1 3870 1 is_stmt 1 view -0
	.cfi_startproc
	@ args = 16, pretend = 0, frame = 32
	@ frame_needed = 0, uses_anonymous_args = 0
	.loc 1 3872 3 view .LVU423
	.loc 1 3875 3 view .LVU424
	.loc 1 3875 16 view .LVU425
	.loc 1 3870 1 is_stmt 0 view .LVU426
	push	{r4, r5, r6, r7, r8, r9, r10, fp, lr}
	.cfi_def_cfa_offset 36
	.cfi_offset 4, -36
	.cfi_offset 5, -32
	.cfi_offset 6, -28
	.cfi_offset 7, -24
	.cfi_offset 8, -20
	.cfi_offset 9, -16
	.cfi_offset 10, -12
	.cfi_offset 11, -8
	.cfi_offset 14, -4
	sub	sp, sp, #36
	.cfi_def_cfa_offset 72
	.loc 1 3870 1 view .LVU427
	ldr	ip, [sp, #76]
	sub	r7, r1, #4
	sub	ip, ip, #1
	str	ip, [sp, #8]
	ldr	ip, [sp, #80]
	mov	r1, r3
.LVL105:
	.loc 1 3870 1 view .LVU428
	sub	ip, ip, #1
	str	ip, [sp, #12]
	mov	ip, r2
	ldr	fp, .L132
	sub	r5, r0, #4
	add	r3, fp, #28
.LVL106:
	.loc 1 3870 1 view .LVU429
	add	r2, r0, #24
.LVL107:
	.loc 1 3870 1 view .LVU430
	mov	r8, r7
	str	r7, [sp, #16]
	mov	r4, r5
	mov	r7, fp
.LVL108:
	.loc 1 3870 1 view .LVU431
	mov	r6, r3
	add	r10, fp, #56
	add	r9, fp, #84
	str	r5, [sp, #20]
	str	r2, [sp, #4]
	str	ip, [sp, #24]
	str	r1, [sp, #28]
	b	.L116
.LVL109:
.L130:
	.loc 1 3880 7 view .LVU432
	cmp	fp, r5
	str	r0, [r8]
	.loc 1 3880 5 is_stmt 1 view .LVU433
	.loc 1 3880 7 is_stmt 0 view .LVU434
	bhi	.L114
	.loc 1 3880 32 view .LVU435
	ldr	r1, [r4]
.L115:
	.loc 1 3875 16 view .LVU436
	ldr	r3, [sp, #4]
	str	r1, [r4]
	.loc 1 3875 22 is_stmt 1 view .LVU437
	.loc 1 3875 16 view .LVU438
	cmp	r4, r3
	beq	.L129
.L116:
	.loc 1 3877 5 view .LVU439
	.loc 1 3877 29 is_stmt 0 view .LVU440
	ldr	r1, [r7], #4
	.loc 1 3877 47 view .LVU441
	ldr	r3, [sp, #8]
	.loc 1 3877 43 view .LVU442
	ldr	r0, [r6], #4
	.loc 1 3877 47 view .LVU443
	add	ip, r1, r3
	.loc 1 3877 52 view .LVU444
	sub	r0, ip, r0
	bl	__aeabi_uidiv
.LVL110:
	.loc 1 3877 14 view .LVU445
	str	r0, [r4, #4]!
	.loc 1 3878 5 is_stmt 1 view .LVU446
	.loc 1 3878 29 is_stmt 0 view .LVU447
	ldr	fp, [r10], #4
	.loc 1 3878 47 view .LVU448
	ldr	r3, [sp, #12]
	.loc 1 3878 43 view .LVU449
	ldr	r0, [r9], #4
	.loc 1 3878 47 view .LVU450
	add	r5, fp, r3
	sub	r5, r5, r0
	.loc 1 3878 52 view .LVU451
	mov	r1, fp
	mov	r0, r5
	bl	__aeabi_uidiv
.LVL111:
	.loc 1 3878 14 view .LVU452
	str	r0, [r8, #4]!
	.loc 1 3879 5 is_stmt 1 view .LVU453
	.loc 1 3879 7 is_stmt 0 view .LVU454
	ldr	ip, [r4]
	cmp	ip, #0
	bne	.L130
	str	ip, [r8]
	.loc 1 3880 5 is_stmt 1 view .LVU455
.L114:
	.loc 1 3880 32 is_stmt 0 view .LVU456
	mov	r1, #0
	b	.L115
.L129:
	.loc 1 3883 60 view .LVU457
	mov	r2, r3
	mov	r3, #0
	ldr	r1, [sp, #28]
	ldr	ip, [sp, #24]
	ldr	r0, [sp, #72]
	mov	lr, r1
	str	r3, [r0]
	mov	r4, ip
	.loc 1 3883 45 view .LVU458
	str	r3, [r1]
	.loc 1 3883 60 view .LVU459
	ldr	r7, [sp, #16]
	.loc 1 3883 23 view .LVU460
	mov	r1, r3
	.loc 1 3883 60 view .LVU461
	ldr	r5, [sp, #20]
	ldr	r6, [sp, #84]
	.loc 1 3883 3 is_stmt 1 view .LVU462
	.loc 1 3883 23 is_stmt 0 view .LVU463
	str	r3, [ip]
	.loc 1 3884 3 is_stmt 1 view .LVU464
.LVL112:
	.loc 1 3884 16 view .LVU465
	b	.L119
.LVL113:
.L131:
	.loc 1 3887 47 is_stmt 0 view .LVU466
	ldr	r1, [r4, #4]!
.L119:
	.loc 1 3887 5 is_stmt 1 view .LVU467
	.loc 1 3888 38 is_stmt 0 view .LVU468
	ldr	r3, [r5, #4]!
	.loc 1 3888 99 view .LVU469
	cmp	r3, #0
	beq	.L117
	.loc 1 3888 50 discriminator 1 view .LVU470
	ldr	ip, [r7, #4]
	.loc 1 3888 42 discriminator 1 view .LVU471
	cmp	ip, #0
	.loc 1 3888 83 discriminator 1 view .LVU472
	mulne	r3, r6, r3
	.loc 1 3888 89 discriminator 1 view .LVU473
	addne	r3, r3, #7
	.loc 1 3888 94 discriminator 1 view .LVU474
	lsrne	r3, r3, #3
	.loc 1 3888 71 discriminator 1 view .LVU475
	addne	r3, r3, #1
	.loc 1 3888 29 discriminator 1 view .LVU476
	mlane	r1, ip, r3, r1
.L117:
	.loc 1 3887 29 discriminator 2 view .LVU477
	str	r1, [r4, #4]
	.loc 1 3890 5 is_stmt 1 discriminator 2 view .LVU478
	.loc 1 3890 75 is_stmt 0 discriminator 2 view .LVU479
	ldr	r3, [r5]
	.loc 1 3890 62 discriminator 2 view .LVU480
	ldr	ip, [r7, #4]!
	.loc 1 3890 75 discriminator 2 view .LVU481
	mul	r3, r3, r6
	.loc 1 3890 47 discriminator 2 view .LVU482
	ldr	r1, [lr]
	.loc 1 3890 81 discriminator 2 view .LVU483
	add	r3, r3, #7
	.loc 1 3890 86 discriminator 2 view .LVU484
	lsr	r3, r3, #3
	.loc 1 3890 51 discriminator 2 view .LVU485
	mla	r3, ip, r3, r1
	.loc 1 3890 29 discriminator 2 view .LVU486
	str	r3, [lr, #4]!
	.loc 1 3892 5 is_stmt 1 discriminator 2 view .LVU487
	.loc 1 3892 60 is_stmt 0 discriminator 2 view .LVU488
	ldr	r3, [r5]
	ldr	ip, [r7]
	mul	r3, r3, r6
	mul	r3, ip, r3
	.loc 1 3892 33 discriminator 2 view .LVU489
	ldr	r1, [r0]
	.loc 1 3892 66 discriminator 2 view .LVU490
	add	r3, r3, #7
	.loc 1 3892 37 discriminator 2 view .LVU491
	add	r3, r1, r3, lsr #3
	.loc 1 3884 16 discriminator 2 view .LVU492
	cmp	r5, r2
	.loc 1 3892 22 discriminator 2 view .LVU493
	str	r3, [r0, #4]!
	.loc 1 3884 22 is_stmt 1 discriminator 2 view .LVU494
	.loc 1 3884 16 discriminator 2 view .LVU495
	bne	.L131
	.loc 1 3894 1 is_stmt 0 view .LVU496
	add	sp, sp, #36
	.cfi_def_cfa_offset 36
	@ sp needed
	pop	{r4, r5, r6, r7, r8, r9, r10, fp, pc}
.L133:
	.align	2
.L132:
	.word	.LANCHOR0
	.cfi_endproc
.LFE151:
	.size	Adam7_getpassvalues, .-Adam7_getpassvalues
	.section	.text.filterScanline,"ax",%progbits
	.align	2
	.syntax unified
	.arm
	.type	filterScanline, %function
filterScanline:
.LVL114:
.LFB191:
	.loc 1 5146 1 is_stmt 1 view -0
	.cfi_startproc
	@ args = 8, pretend = 0, frame = 0
	@ frame_needed = 0, uses_anonymous_args = 0
	.loc 1 5146 1 is_stmt 0 view .LVU498
	push	{r4, r5, r6, r7, r8, r9, r10, fp, lr}
	.cfi_def_cfa_offset 36
	.cfi_offset 4, -36
	.cfi_offset 5, -32
	.cfi_offset 6, -28
	.cfi_offset 7, -24
	.cfi_offset 8, -20
	.cfi_offset 9, -16
	.cfi_offset 10, -12
	.cfi_offset 11, -8
	.cfi_offset 14, -4
	.loc 1 5146 1 view .LVU499
	ldrb	lr, [sp, #40]	@ zero_extendqisi2
	.loc 1 5147 3 is_stmt 1 view .LVU500
	.loc 1 5148 3 view .LVU501
	.loc 1 5146 1 is_stmt 0 view .LVU502
	ldr	ip, [sp, #36]
	.loc 1 5148 3 view .LVU503
	cmp	lr, #4
	ldrls	pc, [pc, lr, asl #2]
	b	.L134
.L137:
	.word	.L141
	.word	.L140
	.word	.L139
	.word	.L138
	.word	.L136
.L134:
	.loc 1 5198 1 view .LVU504
	pop	{r4, r5, r6, r7, r8, r9, r10, fp, pc}
.L136:
	.loc 1 5180 7 is_stmt 1 view .LVU505
	.loc 1 5180 9 is_stmt 0 view .LVU506
	cmp	r2, #0
	beq	.L202
.LVL115:
	.loc 1 5183 22 is_stmt 1 view .LVU507
	cmp	ip, #0
	beq	.L164
	sub	r4, r1, #1
	sub	r6, r2, #1
	sub	r5, r0, #1
	add	r8, r4, ip
.LVL116:
.L165:
	.loc 1 5183 41 discriminator 3 view .LVU508
	.loc 1 5183 63 is_stmt 0 discriminator 3 view .LVU509
	ldrb	lr, [r4, #1]!	@ zero_extendqisi2
.LVL117:
	.loc 1 5183 63 discriminator 3 view .LVU510
	ldrb	r7, [r6, #1]!	@ zero_extendqisi2
	.loc 1 5183 22 discriminator 3 view .LVU511
	cmp	r8, r4
	.loc 1 5183 63 discriminator 3 view .LVU512
	sub	lr, lr, r7
	.loc 1 5183 48 discriminator 3 view .LVU513
	strb	lr, [r5, #1]!
	.loc 1 5183 36 is_stmt 1 discriminator 3 view .LVU514
.LVL118:
	.loc 1 5183 22 discriminator 3 view .LVU515
	bne	.L165
.LVL119:
.L164:
	.loc 1 5184 30 view .LVU516
	cmp	ip, r3
	popcs	{r4, r5, r6, r7, r8, r9, r10, fp, pc}
	sub	ip, ip, #1
.LVL120:
	.loc 1 5184 30 is_stmt 0 view .LVU517
	add	r3, r1, r3
.LVL121:
	.loc 1 5184 30 view .LVU518
	add	r7, r1, ip
	add	r0, r0, ip
.LVL122:
	.loc 1 5184 30 view .LVU519
	sub	r3, r3, #1
	add	ip, r2, ip
	sub	r1, r1, #1
.LVL123:
	.loc 1 5184 30 view .LVU520
	sub	r2, r2, #1
.LVL124:
.L167:
	.loc 1 5186 11 is_stmt 1 view .LVU521
.LBB807:
.LBB808:
	.loc 1 3842 8 view .LVU522
.LBE808:
.LBE807:
	.loc 1 5186 96 is_stmt 0 view .LVU523
	ldrb	r6, [r2, #1]!	@ zero_extendqisi2
	.loc 1 5186 58 view .LVU524
	ldrb	r9, [r1, #1]!	@ zero_extendqisi2
.LVL125:
	.loc 1 5186 83 view .LVU525
	ldrb	r8, [ip, #1]!	@ zero_extendqisi2
.LVL126:
.LBB811:
.LBI807:
	.loc 1 3835 22 is_stmt 1 view .LVU526
.LBB809:
	.loc 1 3837 3 view .LVU527
	.loc 1 3838 20 is_stmt 0 view .LVU528
	sub	r10, r9, r6
	.loc 1 3838 14 view .LVU529
	cmp	r10, #0
	.loc 1 3837 20 view .LVU530
	sub	r5, r8, r6
	.loc 1 3838 14 view .LVU531
	rsblt	r10, r10, #0
	.loc 1 3839 20 view .LVU532
	add	r4, r9, r8
	.loc 1 3837 14 view .LVU533
	cmp	r5, #0
	.loc 1 3839 28 view .LVU534
	sub	r4, r4, r6, lsl #1
	.loc 1 3837 14 view .LVU535
	rsblt	r5, r5, #0
	.loc 1 3838 9 view .LVU536
	sxth	r10, r10
	.loc 1 3839 14 view .LVU537
	cmp	r4, #0
	.loc 1 3837 9 view .LVU538
	sxth	r5, r5
.LVL127:
	.loc 1 3838 3 is_stmt 1 view .LVU539
	.loc 1 3839 3 view .LVU540
	.loc 1 3841 3 view .LVU541
	.loc 1 3839 14 is_stmt 0 view .LVU542
	rsblt	r4, r4, #0
	.loc 1 3841 5 view .LVU543
	cmp	r10, r5
	movlt	fp, r10
	movge	fp, r5
	sxth	r4, r4
	cmp	fp, r4
.LBE809:
.LBE811:
	.loc 1 5186 29 view .LVU544
	ldrb	lr, [r7, #1]!	@ zero_extendqisi2
.LVL128:
.LBB812:
.LBB810:
	.loc 1 3841 5 view .LVU545
	bgt	.L166
.LBE810:
.LBE812:
	.loc 1 5186 83 view .LVU546
	cmp	r10, r5
	movge	r6, r9
.LVL129:
	.loc 1 5186 83 view .LVU547
	movlt	r6, r8
.L166:
	.loc 1 5186 33 view .LVU548
	sub	lr, lr, r6
	.loc 1 5184 30 view .LVU549
	cmp	r3, r7
	.loc 1 5186 18 view .LVU550
	strb	lr, [r0, #1]!
.LVL130:
	.loc 1 5184 40 is_stmt 1 view .LVU551
	.loc 1 5184 30 view .LVU552
	bne	.L167
	pop	{r4, r5, r6, r7, r8, r9, r10, fp, pc}
.LVL131:
.L141:
	.loc 1 5151 20 view .LVU553
	cmp	r3, #0
	popeq	{r4, r5, r6, r7, r8, r9, r10, fp, pc}
	add	r3, r1, r3
.LVL132:
	.loc 1 5151 20 is_stmt 0 view .LVU554
	sub	r0, r0, #1
.LVL133:
	.loc 1 5151 20 view .LVU555
	sub	r1, r1, #1
.LVL134:
	.loc 1 5151 20 view .LVU556
	sub	r3, r3, #1
.LVL135:
.L145:
	.loc 1 5151 36 is_stmt 1 discriminator 3 view .LVU557
	.loc 1 5151 53 is_stmt 0 discriminator 3 view .LVU558
	ldrb	r2, [r1, #1]!	@ zero_extendqisi2
.LVL136:
	.loc 1 5151 20 discriminator 3 view .LVU559
	cmp	r3, r1
	.loc 1 5151 43 discriminator 3 view .LVU560
	strb	r2, [r0, #1]!
	.loc 1 5151 31 is_stmt 1 discriminator 3 view .LVU561
.LVL137:
	.loc 1 5151 20 discriminator 3 view .LVU562
	bne	.L145
	pop	{r4, r5, r6, r7, r8, r9, r10, fp, pc}
.LVL138:
.L139:
	.loc 1 5158 7 view .LVU563
	.loc 1 5158 9 is_stmt 0 view .LVU564
	cmp	r2, #0
	beq	.L203
.LVL139:
	.loc 1 5160 22 is_stmt 1 view .LVU565
	cmp	r3, #0
	popeq	{r4, r5, r6, r7, r8, r9, r10, fp, pc}
	add	r3, r1, r3
.LVL140:
	.loc 1 5160 22 is_stmt 0 view .LVU566
	sub	r2, r2, #1
.LVL141:
	.loc 1 5160 22 view .LVU567
	sub	r1, r1, #1
.LVL142:
	.loc 1 5160 22 view .LVU568
	sub	r0, r0, #1
.LVL143:
	.loc 1 5160 22 view .LVU569
	sub	r3, r3, #1
.LVL144:
.L151:
	.loc 1 5160 38 is_stmt 1 discriminator 3 view .LVU570
	.loc 1 5160 59 is_stmt 0 discriminator 3 view .LVU571
	ldrb	ip, [r1, #1]!	@ zero_extendqisi2
.LVL145:
	.loc 1 5160 59 discriminator 3 view .LVU572
	ldrb	lr, [r2, #1]!	@ zero_extendqisi2
	.loc 1 5160 22 discriminator 3 view .LVU573
	cmp	r3, r1
	.loc 1 5160 59 discriminator 3 view .LVU574
	sub	ip, ip, lr
	.loc 1 5160 45 discriminator 3 view .LVU575
	strb	ip, [r0, #1]!
	.loc 1 5160 33 is_stmt 1 discriminator 3 view .LVU576
.LVL146:
	.loc 1 5160 22 discriminator 3 view .LVU577
	bne	.L151
	pop	{r4, r5, r6, r7, r8, r9, r10, fp, pc}
.LVL147:
.L138:
	.loc 1 5168 7 view .LVU578
	.loc 1 5168 9 is_stmt 0 view .LVU579
	cmp	r2, #0
	beq	.L204
.LVL148:
	.loc 1 5170 22 is_stmt 1 view .LVU580
	cmp	ip, #0
	beq	.L156
	sub	r4, r1, #1
	sub	r6, r2, #1
	sub	r5, r0, #1
	add	r8, r4, ip
.LVL149:
.L157:
	.loc 1 5170 41 discriminator 3 view .LVU581
	.loc 1 5170 62 is_stmt 0 discriminator 3 view .LVU582
	ldrb	lr, [r4, #1]!	@ zero_extendqisi2
.LVL150:
	.loc 1 5170 62 discriminator 3 view .LVU583
	ldrb	r7, [r6, #1]!	@ zero_extendqisi2
	.loc 1 5170 22 discriminator 3 view .LVU584
	cmp	r8, r4
	.loc 1 5170 62 discriminator 3 view .LVU585
	sub	lr, lr, r7, lsr #1
	.loc 1 5170 48 discriminator 3 view .LVU586
	strb	lr, [r5, #1]!
	.loc 1 5170 36 is_stmt 1 discriminator 3 view .LVU587
.LVL151:
	.loc 1 5170 22 discriminator 3 view .LVU588
	bne	.L157
.LVL152:
.L156:
	.loc 1 5171 30 view .LVU589
	cmp	ip, r3
	popcs	{r4, r5, r6, r7, r8, r9, r10, fp, pc}
	sub	ip, ip, #1
.LVL153:
	.loc 1 5171 30 is_stmt 0 view .LVU590
	add	r3, r1, r3
.LVL154:
	.loc 1 5171 30 view .LVU591
	add	r4, r1, ip
	add	r2, r2, ip
.LVL155:
	.loc 1 5171 30 view .LVU592
	add	r0, r0, ip
.LVL156:
	.loc 1 5171 30 view .LVU593
	sub	r1, r1, #1
.LVL157:
	.loc 1 5171 30 view .LVU594
	sub	r3, r3, #1
.LVL158:
.L158:
	.loc 1 5171 45 is_stmt 1 discriminator 3 view .LVU595
	.loc 1 5171 104 is_stmt 0 discriminator 3 view .LVU596
	ldrb	ip, [r2, #1]!	@ zero_extendqisi2
	.loc 1 5171 78 discriminator 3 view .LVU597
	ldrb	lr, [r1, #1]!	@ zero_extendqisi2
	.loc 1 5171 94 discriminator 3 view .LVU598
	add	lr, lr, ip
	.loc 1 5171 66 discriminator 3 view .LVU599
	ldrb	ip, [r4, #1]!	@ zero_extendqisi2
.LVL159:
	.loc 1 5171 66 discriminator 3 view .LVU600
	sub	ip, ip, lr, lsr #1
	.loc 1 5171 30 discriminator 3 view .LVU601
	cmp	r3, r4
	.loc 1 5171 52 discriminator 3 view .LVU602
	strb	ip, [r0, #1]!
	.loc 1 5171 40 is_stmt 1 discriminator 3 view .LVU603
.LVL160:
	.loc 1 5171 30 discriminator 3 view .LVU604
	bne	.L158
	pop	{r4, r5, r6, r7, r8, r9, r10, fp, pc}
.LVL161:
.L140:
	.loc 1 5154 20 view .LVU605
	cmp	ip, #0
	subne	r2, r1, #1
.LVL162:
	.loc 1 5154 20 is_stmt 0 view .LVU606
	subne	lr, r0, #1
	addne	r5, r2, ip
	beq	.L143
.LVL163:
.L147:
	.loc 1 5154 39 is_stmt 1 discriminator 3 view .LVU607
	.loc 1 5154 56 is_stmt 0 discriminator 3 view .LVU608
	ldrb	r4, [r2, #1]!	@ zero_extendqisi2
.LVL164:
	.loc 1 5154 20 discriminator 3 view .LVU609
	cmp	r2, r5
	.loc 1 5154 46 discriminator 3 view .LVU610
	strb	r4, [lr, #1]!
	.loc 1 5154 34 is_stmt 1 discriminator 3 view .LVU611
.LVL165:
	.loc 1 5154 20 discriminator 3 view .LVU612
	bne	.L147
.LVL166:
.L143:
	.loc 1 5155 28 view .LVU613
	cmp	ip, r3
	popcs	{r4, r5, r6, r7, r8, r9, r10, fp, pc}
	sub	r4, ip, #1
	add	r3, r1, r3
.LVL167:
	.loc 1 5155 28 is_stmt 0 view .LVU614
	add	ip, r1, r4
.LVL168:
	.loc 1 5155 28 view .LVU615
	sub	r3, r3, #1
	add	r4, r0, r4
	sub	r1, r1, #1
.LVL169:
.L148:
	.loc 1 5155 43 is_stmt 1 discriminator 3 view .LVU616
	.loc 1 5155 64 is_stmt 0 discriminator 3 view .LVU617
	ldrb	r2, [ip, #1]!	@ zero_extendqisi2
.LVL170:
	.loc 1 5155 64 discriminator 3 view .LVU618
	ldrb	r0, [r1, #1]!	@ zero_extendqisi2
	.loc 1 5155 28 discriminator 3 view .LVU619
	cmp	ip, r3
	.loc 1 5155 64 discriminator 3 view .LVU620
	sub	r2, r2, r0
	.loc 1 5155 50 discriminator 3 view .LVU621
	strb	r2, [r4, #1]!
	.loc 1 5155 38 is_stmt 1 discriminator 3 view .LVU622
.LVL171:
	.loc 1 5155 28 discriminator 3 view .LVU623
	bne	.L148
	pop	{r4, r5, r6, r7, r8, r9, r10, fp, pc}
.LVL172:
.L202:
	.loc 1 5191 22 view .LVU624
	cmp	ip, #0
	subne	r2, r1, #1
.LVL173:
	.loc 1 5191 22 is_stmt 0 view .LVU625
	subne	lr, r0, #1
	addne	r5, r2, ip
	beq	.L163
.LVL174:
.L168:
	.loc 1 5191 41 is_stmt 1 discriminator 3 view .LVU626
	.loc 1 5191 58 is_stmt 0 discriminator 3 view .LVU627
	ldrb	r4, [r2, #1]!	@ zero_extendqisi2
.LVL175:
	.loc 1 5191 22 discriminator 3 view .LVU628
	cmp	r2, r5
	.loc 1 5191 48 discriminator 3 view .LVU629
	strb	r4, [lr, #1]!
	.loc 1 5191 36 is_stmt 1 discriminator 3 view .LVU630
.LVL176:
	.loc 1 5191 22 discriminator 3 view .LVU631
	bne	.L168
.LVL177:
.L163:
	.loc 1 5193 30 view .LVU632
	cmp	ip, r3
	popcs	{r4, r5, r6, r7, r8, r9, r10, fp, pc}
	sub	ip, ip, #1
.LVL178:
	.loc 1 5193 30 is_stmt 0 view .LVU633
	add	r3, r1, r3
.LVL179:
	.loc 1 5193 30 view .LVU634
	add	lr, r1, ip
	add	r0, r0, ip
.LVL180:
	.loc 1 5193 30 view .LVU635
	sub	r1, r1, #1
.LVL181:
	.loc 1 5193 30 view .LVU636
	sub	r3, r3, #1
.LVL182:
.L169:
	.loc 1 5193 45 is_stmt 1 discriminator 3 view .LVU637
	.loc 1 5193 67 is_stmt 0 discriminator 3 view .LVU638
	ldrb	r2, [lr, #1]!	@ zero_extendqisi2
.LVL183:
	.loc 1 5193 67 discriminator 3 view .LVU639
	ldrb	ip, [r1, #1]!	@ zero_extendqisi2
	.loc 1 5193 30 discriminator 3 view .LVU640
	cmp	r3, lr
	.loc 1 5193 67 discriminator 3 view .LVU641
	sub	r2, r2, ip
	.loc 1 5193 52 discriminator 3 view .LVU642
	strb	r2, [r0, #1]!
	.loc 1 5193 40 is_stmt 1 discriminator 3 view .LVU643
.LVL184:
	.loc 1 5193 30 discriminator 3 view .LVU644
	bne	.L169
	pop	{r4, r5, r6, r7, r8, r9, r10, fp, pc}
.LVL185:
.L204:
	.loc 1 5175 22 view .LVU645
	cmp	ip, #0
	subne	r2, r1, #1
.LVL186:
	.loc 1 5175 22 is_stmt 0 view .LVU646
	subne	lr, r0, #1
	addne	r5, r2, ip
	beq	.L155
.LVL187:
.L159:
	.loc 1 5175 41 is_stmt 1 discriminator 3 view .LVU647
	.loc 1 5175 58 is_stmt 0 discriminator 3 view .LVU648
	ldrb	r4, [r2, #1]!	@ zero_extendqisi2
.LVL188:
	.loc 1 5175 22 discriminator 3 view .LVU649
	cmp	r5, r2
	.loc 1 5175 48 discriminator 3 view .LVU650
	strb	r4, [lr, #1]!
	.loc 1 5175 36 is_stmt 1 discriminator 3 view .LVU651
.LVL189:
	.loc 1 5175 22 discriminator 3 view .LVU652
	bne	.L159
.LVL190:
.L155:
	.loc 1 5176 30 view .LVU653
	cmp	ip, r3
	popcs	{r4, r5, r6, r7, r8, r9, r10, fp, pc}
	sub	ip, ip, #1
.LVL191:
	.loc 1 5176 30 is_stmt 0 view .LVU654
	add	r3, r1, r3
.LVL192:
	.loc 1 5176 30 view .LVU655
	add	lr, r1, ip
	sub	r3, r3, #1
	add	ip, r0, ip
	sub	r1, r1, #1
.LVL193:
.L160:
	.loc 1 5176 45 is_stmt 1 discriminator 3 view .LVU656
	.loc 1 5176 66 is_stmt 0 discriminator 3 view .LVU657
	ldrb	r2, [lr, #1]!	@ zero_extendqisi2
.LVL194:
	.loc 1 5176 66 discriminator 3 view .LVU658
	ldrb	r0, [r1, #1]!	@ zero_extendqisi2
	.loc 1 5176 30 discriminator 3 view .LVU659
	cmp	r3, lr
	.loc 1 5176 66 discriminator 3 view .LVU660
	sub	r2, r2, r0, lsr #1
	.loc 1 5176 52 discriminator 3 view .LVU661
	strb	r2, [ip, #1]!
	.loc 1 5176 40 is_stmt 1 discriminator 3 view .LVU662
.LVL195:
	.loc 1 5176 30 discriminator 3 view .LVU663
	bne	.L160
	pop	{r4, r5, r6, r7, r8, r9, r10, fp, pc}
.LVL196:
.L203:
	.loc 1 5164 22 view .LVU664
	cmp	r3, #0
	popeq	{r4, r5, r6, r7, r8, r9, r10, fp, pc}
	add	r3, r1, r3
.LVL197:
	.loc 1 5164 22 is_stmt 0 view .LVU665
	sub	r0, r0, #1
.LVL198:
	.loc 1 5164 22 view .LVU666
	sub	r1, r1, #1
.LVL199:
	.loc 1 5164 22 view .LVU667
	sub	r3, r3, #1
.LVL200:
.L152:
	.loc 1 5164 38 is_stmt 1 discriminator 3 view .LVU668
	.loc 1 5164 55 is_stmt 0 discriminator 3 view .LVU669
	ldrb	r2, [r1, #1]!	@ zero_extendqisi2
.LVL201:
	.loc 1 5164 22 discriminator 3 view .LVU670
	cmp	r3, r1
	.loc 1 5164 45 discriminator 3 view .LVU671
	strb	r2, [r0, #1]!
	.loc 1 5164 33 is_stmt 1 discriminator 3 view .LVU672
.LVL202:
	.loc 1 5164 22 discriminator 3 view .LVU673
	bne	.L152
	pop	{r4, r5, r6, r7, r8, r9, r10, fp, pc}
	.cfi_endproc
.LFE191:
	.size	filterScanline, .-filterScanline
	.section	.text.color_tree_add,"ax",%progbits
	.align	2
	.syntax unified
	.arm
	.type	color_tree_add, %function
color_tree_add:
.LVL203:
.LFB139:
	.loc 1 3050 1 view -0
	.cfi_startproc
	@ args = 8, pretend = 0, frame = 0
	@ frame_needed = 0, uses_anonymous_args = 0
	.loc 1 3051 3 view .LVU675
	.loc 1 3052 3 view .LVU676
	.loc 1 3050 1 is_stmt 0 view .LVU677
	push	{r4, r5, r6, r7, r8, r9, r10, lr}
	.cfi_def_cfa_offset 32
	.cfi_offset 4, -32
	.cfi_offset 5, -28
	.cfi_offset 6, -24
	.cfi_offset 7, -20
	.cfi_offset 8, -16
	.cfi_offset 9, -12
	.cfi_offset 10, -8
	.cfi_offset 14, -4
	.loc 1 3052 11 view .LVU678
	mov	r4, #0
	.loc 1 3050 1 view .LVU679
	mov	r5, r0
	.loc 1 3052 20 is_stmt 1 view .LVU680
	.loc 1 3050 1 is_stmt 0 view .LVU681
	mov	r8, r1
	mov	r7, r2
	mov	r6, r3
	ldrb	r9, [sp, #32]	@ zero_extendqisi2
.LVL204:
.L208:
.LBB813:
	.loc 1 3054 5 is_stmt 1 view .LVU682
	.loc 1 3055 5 view .LVU683
	.loc 1 3054 21 is_stmt 0 view .LVU684
	asr	r1, r8, r4
.LVL205:
	.loc 1 3054 44 view .LVU685
	asr	r2, r7, r4
	.loc 1 3054 29 view .LVU686
	and	r1, r1, #1
.LVL206:
	.loc 1 3054 52 view .LVU687
	and	r2, r2, #1
	.loc 1 3054 67 view .LVU688
	asr	r3, r6, r4
.LVL207:
	.loc 1 3054 34 view .LVU689
	add	r2, r2, r1, lsl #1
	.loc 1 3054 75 view .LVU690
	and	r3, r3, #1
.LVL208:
	.loc 1 3054 90 view .LVU691
	asr	ip, r9, r4
	.loc 1 3054 57 view .LVU692
	add	r3, r3, r2, lsl #1
	.loc 1 3054 84 view .LVU693
	and	ip, ip, #1
	.loc 1 3054 9 view .LVU694
	add	ip, ip, r3, lsl #1
	add	r10, r5, ip, lsl #2
	.loc 1 3055 23 view .LVU695
	ldr	r5, [r5, ip, lsl #2]
.LVL209:
	.loc 1 3055 7 view .LVU696
	cmp	r5, #0
	beq	.L212
.L206:
	.loc 1 3060 5 is_stmt 1 discriminator 2 view .LVU697
.LVL210:
	.loc 1 3060 5 is_stmt 0 discriminator 2 view .LVU698
.LBE813:
	.loc 1 3052 25 is_stmt 1 discriminator 2 view .LVU699
	add	r4, r4, #1
.LVL211:
	.loc 1 3052 20 discriminator 2 view .LVU700
	cmp	r4, #8
	bne	.L208
	.loc 1 3062 3 view .LVU701
	.loc 1 3062 15 is_stmt 0 view .LVU702
	ldr	r3, [sp, #36]
	str	r3, [r5, #64]
	.loc 1 3063 1 view .LVU703
	pop	{r4, r5, r6, r7, r8, r9, r10, pc}
.LVL212:
.L212:
.LBB820:
	.loc 1 3057 7 is_stmt 1 view .LVU704
.LBB814:
.LBI814:
	.loc 1 63 14 view .LVU705
.LBB815:
	.loc 1 65 3 view .LVU706
	.loc 1 65 10 is_stmt 0 view .LVU707
	mov	r0, #68
	bl	malloc
.LVL213:
	.loc 1 65 10 view .LVU708
.LBE815:
.LBE814:
	.loc 1 3057 25 view .LVU709
	str	r0, [r10]
	.loc 1 3058 7 is_stmt 1 view .LVU710
.LVL214:
.LBB816:
.LBI816:
	.loc 1 3006 13 view .LVU711
.LBB817:
	.loc 1 3009 16 view .LVU712
	sub	r3, r0, #4
	add	r2, r0, #60
.LVL215:
.L207:
	.loc 1 3009 28 view .LVU713
	.loc 1 3009 46 is_stmt 0 view .LVU714
	str	r5, [r3, #4]!
	.loc 1 3009 23 is_stmt 1 view .LVU715
	.loc 1 3009 16 view .LVU716
	cmp	r2, r3
	bne	.L207
	.loc 1 3010 3 view .LVU717
	.loc 1 3010 15 is_stmt 0 view .LVU718
	mvn	r3, #0
	str	r3, [r0, #64]
.LBE817:
.LBE816:
	.loc 1 3060 10 view .LVU719
	ldr	r5, [r10]
.LBB819:
.LBB818:
	.loc 1 3011 1 view .LVU720
	b	.L206
.LBE818:
.LBE819:
.LBE820:
	.cfi_endproc
.LFE139:
	.size	color_tree_add, .-color_tree_add
	.section	.text.LodePNGText_cleanup,"ax",%progbits
	.align	2
	.syntax unified
	.arm
	.type	LodePNGText_cleanup, %function
LodePNGText_cleanup:
.LVL216:
.LFB121:
	.loc 1 2784 1 is_stmt 1 view -0
	.cfi_startproc
	@ args = 0, pretend = 0, frame = 0
	@ frame_needed = 0, uses_anonymous_args = 0
	.loc 1 2785 3 view .LVU722
	.loc 1 2786 3 view .LVU723
	.loc 1 2786 16 view .LVU724
	ldr	r3, [r0, #60]
	.loc 1 2784 1 is_stmt 0 view .LVU725
	push	{r4, r5, r6, r7, r8, lr}
	.cfi_def_cfa_offset 24
	.cfi_offset 4, -24
	.cfi_offset 5, -20
	.cfi_offset 6, -16
	.cfi_offset 7, -12
	.cfi_offset 8, -8
	.cfi_offset 14, -4
	.loc 1 2786 16 view .LVU726
	cmp	r3, #0
	.loc 1 2784 1 view .LVU727
	mov	r5, r0
	.loc 1 2786 16 view .LVU728
	beq	.L214
	.loc 1 2786 9 view .LVU729
	mov	r4, #0
.LBB821:
.LBB822:
	.loc 1 301 8 view .LVU730
	mov	r8, r4
.LVL217:
.L215:
	.loc 1 301 8 view .LVU731
.LBE822:
.LBE821:
	.loc 1 2788 5 is_stmt 1 discriminator 3 view .LVU732
	ldr	r7, [r5, #64]
.LVL218:
.LBB827:
.LBI821:
	.loc 1 298 13 discriminator 3 view .LVU733
.LBB825:
	.loc 1 300 3 discriminator 3 view .LVU734
.LBB823:
.LBI823:
	.loc 1 73 13 discriminator 3 view .LVU735
.LBB824:
	.loc 1 75 3 discriminator 3 view .LVU736
	ldr	r0, [r7, r4, lsl #2]
	bl	free
.LVL219:
	.loc 1 75 3 is_stmt 0 discriminator 3 view .LVU737
.LBE824:
.LBE823:
	.loc 1 301 3 is_stmt 1 discriminator 3 view .LVU738
.LBE825:
.LBE827:
	.loc 1 2789 5 is_stmt 0 discriminator 3 view .LVU739
	ldr	r6, [r5, #68]
.LBB828:
.LBB826:
	.loc 1 301 8 discriminator 3 view .LVU740
	str	r8, [r7, r4, lsl #2]
.LVL220:
	.loc 1 301 8 discriminator 3 view .LVU741
.LBE826:
.LBE828:
	.loc 1 2789 5 is_stmt 1 discriminator 3 view .LVU742
.LBB829:
.LBI829:
	.loc 1 298 13 discriminator 3 view .LVU743
.LBB830:
	.loc 1 300 3 discriminator 3 view .LVU744
.LBB831:
.LBI831:
	.loc 1 73 13 discriminator 3 view .LVU745
.LBB832:
	.loc 1 75 3 discriminator 3 view .LVU746
	ldr	r0, [r6, r4, lsl #2]
	bl	free
.LVL221:
	.loc 1 75 3 is_stmt 0 discriminator 3 view .LVU747
.LBE832:
.LBE831:
	.loc 1 301 3 is_stmt 1 discriminator 3 view .LVU748
.LBE830:
.LBE829:
	.loc 1 2786 16 is_stmt 0 discriminator 3 view .LVU749
	ldr	r3, [r5, #60]
.LBB834:
.LBB833:
	.loc 1 301 8 discriminator 3 view .LVU750
	str	r8, [r6, r4, lsl #2]
.LVL222:
	.loc 1 301 8 discriminator 3 view .LVU751
.LBE833:
.LBE834:
	.loc 1 2786 35 is_stmt 1 discriminator 3 view .LVU752
	add	r4, r4, #1
.LVL223:
	.loc 1 2786 16 discriminator 3 view .LVU753
	cmp	r3, r4
	bne	.L215
.LVL224:
.L214:
	.loc 1 2791 3 view .LVU754
.LBB835:
.LBI835:
	.loc 1 73 13 view .LVU755
.LBB836:
	.loc 1 75 3 view .LVU756
	ldr	r0, [r5, #64]
	bl	free
.LVL225:
	.loc 1 75 3 is_stmt 0 view .LVU757
.LBE836:
.LBE835:
	.loc 1 2792 3 is_stmt 1 view .LVU758
.LBB837:
.LBI837:
	.loc 1 73 13 view .LVU759
.LBB838:
	.loc 1 75 3 view .LVU760
	ldr	r0, [r5, #68]
.LBE838:
.LBE837:
	.loc 1 2793 1 is_stmt 0 view .LVU761
	pop	{r4, r5, r6, r7, r8, lr}
	.cfi_restore 14
	.cfi_restore 8
	.cfi_restore 7
	.cfi_restore 6
	.cfi_restore 5
	.cfi_restore 4
	.cfi_def_cfa_offset 0
.LVL226:
.LBB840:
.LBB839:
	.loc 1 75 3 view .LVU762
	b	free
.LVL227:
	.loc 1 75 3 view .LVU763
.LBE839:
.LBE840:
	.cfi_endproc
.LFE121:
	.size	LodePNGText_cleanup, .-LodePNGText_cleanup
	.section	.text.LodePNGIText_cleanup,"ax",%progbits
	.align	2
	.syntax unified
	.arm
	.type	LodePNGIText_cleanup, %function
LodePNGIText_cleanup:
.LVL228:
.LFB126:
	.loc 1 2849 1 is_stmt 1 view -0
	.cfi_startproc
	@ args = 0, pretend = 0, frame = 0
	@ frame_needed = 0, uses_anonymous_args = 0
	.loc 1 2850 3 view .LVU765
	.loc 1 2851 3 view .LVU766
	.loc 1 2851 16 view .LVU767
	ldr	r3, [r0, #72]
	.loc 1 2849 1 is_stmt 0 view .LVU768
	push	{r4, r5, r6, r7, r8, lr}
	.cfi_def_cfa_offset 24
	.cfi_offset 4, -24
	.cfi_offset 5, -20
	.cfi_offset 6, -16
	.cfi_offset 7, -12
	.cfi_offset 8, -8
	.cfi_offset 14, -4
	.loc 1 2851 16 view .LVU769
	cmp	r3, #0
	.loc 1 2849 1 view .LVU770
	mov	r5, r0
	.loc 1 2851 16 view .LVU771
	beq	.L222
	.loc 1 2851 9 view .LVU772
	mov	r4, #0
.LBB841:
.LBB842:
	.loc 1 301 8 view .LVU773
	mov	r6, r4
.LVL229:
.L223:
	.loc 1 301 8 view .LVU774
.LBE842:
.LBE841:
	.loc 1 2853 5 is_stmt 1 discriminator 3 view .LVU775
	ldr	r8, [r5, #76]
.LVL230:
.LBB847:
.LBI841:
	.loc 1 298 13 discriminator 3 view .LVU776
.LBB845:
	.loc 1 300 3 discriminator 3 view .LVU777
.LBB843:
.LBI843:
	.loc 1 73 13 discriminator 3 view .LVU778
.LBB844:
	.loc 1 75 3 discriminator 3 view .LVU779
	ldr	r0, [r8, r4, lsl #2]
	bl	free
.LVL231:
	.loc 1 75 3 is_stmt 0 discriminator 3 view .LVU780
.LBE844:
.LBE843:
	.loc 1 301 3 is_stmt 1 discriminator 3 view .LVU781
.LBE845:
.LBE847:
	.loc 1 2854 5 is_stmt 0 discriminator 3 view .LVU782
	ldr	r7, [r5, #80]
.LBB848:
.LBB846:
	.loc 1 301 8 discriminator 3 view .LVU783
	str	r6, [r8, r4, lsl #2]
.LVL232:
	.loc 1 301 8 discriminator 3 view .LVU784
.LBE846:
.LBE848:
	.loc 1 2854 5 is_stmt 1 discriminator 3 view .LVU785
.LBB849:
.LBI849:
	.loc 1 298 13 discriminator 3 view .LVU786
.LBB850:
	.loc 1 300 3 discriminator 3 view .LVU787
.LBB851:
.LBI851:
	.loc 1 73 13 discriminator 3 view .LVU788
.LBB852:
	.loc 1 75 3 discriminator 3 view .LVU789
	ldr	r0, [r7, r4, lsl #2]
	bl	free
.LVL233:
	.loc 1 75 3 is_stmt 0 discriminator 3 view .LVU790
.LBE852:
.LBE851:
	.loc 1 301 3 is_stmt 1 discriminator 3 view .LVU791
.LBE850:
.LBE849:
	.loc 1 2855 5 is_stmt 0 discriminator 3 view .LVU792
	ldr	r8, [r5, #84]
.LBB854:
.LBB853:
	.loc 1 301 8 discriminator 3 view .LVU793
	str	r6, [r7, r4, lsl #2]
.LVL234:
	.loc 1 301 8 discriminator 3 view .LVU794
.LBE853:
.LBE854:
	.loc 1 2855 5 is_stmt 1 discriminator 3 view .LVU795
.LBB855:
.LBI855:
	.loc 1 298 13 discriminator 3 view .LVU796
.LBB856:
	.loc 1 300 3 discriminator 3 view .LVU797
.LBB857:
.LBI857:
	.loc 1 73 13 discriminator 3 view .LVU798
.LBB858:
	.loc 1 75 3 discriminator 3 view .LVU799
	ldr	r0, [r8, r4, lsl #2]
	bl	free
.LVL235:
	.loc 1 75 3 is_stmt 0 discriminator 3 view .LVU800
.LBE858:
.LBE857:
	.loc 1 301 3 is_stmt 1 discriminator 3 view .LVU801
.LBE856:
.LBE855:
	.loc 1 2856 5 is_stmt 0 discriminator 3 view .LVU802
	ldr	r7, [r5, #88]
.LBB860:
.LBB859:
	.loc 1 301 8 discriminator 3 view .LVU803
	str	r6, [r8, r4, lsl #2]
.LVL236:
	.loc 1 301 8 discriminator 3 view .LVU804
.LBE859:
.LBE860:
	.loc 1 2856 5 is_stmt 1 discriminator 3 view .LVU805
.LBB861:
.LBI861:
	.loc 1 298 13 discriminator 3 view .LVU806
.LBB862:
	.loc 1 300 3 discriminator 3 view .LVU807
.LBB863:
.LBI863:
	.loc 1 73 13 discriminator 3 view .LVU808
.LBB864:
	.loc 1 75 3 discriminator 3 view .LVU809
	ldr	r0, [r7, r4, lsl #2]
	bl	free
.LVL237:
	.loc 1 75 3 is_stmt 0 discriminator 3 view .LVU810
.LBE864:
.LBE863:
	.loc 1 301 3 is_stmt 1 discriminator 3 view .LVU811
.LBE862:
.LBE861:
	.loc 1 2851 16 is_stmt 0 discriminator 3 view .LVU812
	ldr	r3, [r5, #72]
.LBB866:
.LBB865:
	.loc 1 301 8 discriminator 3 view .LVU813
	str	r6, [r7, r4, lsl #2]
.LVL238:
	.loc 1 301 8 discriminator 3 view .LVU814
.LBE865:
.LBE866:
	.loc 1 2851 36 is_stmt 1 discriminator 3 view .LVU815
	add	r4, r4, #1
.LVL239:
	.loc 1 2851 16 discriminator 3 view .LVU816
	cmp	r3, r4
	bne	.L223
.LVL240:
.L222:
	.loc 1 2858 3 view .LVU817
.LBB867:
.LBI867:
	.loc 1 73 13 view .LVU818
.LBB868:
	.loc 1 75 3 view .LVU819
	ldr	r0, [r5, #76]
	bl	free
.LVL241:
	.loc 1 75 3 is_stmt 0 view .LVU820
.LBE868:
.LBE867:
	.loc 1 2859 3 is_stmt 1 view .LVU821
.LBB869:
.LBI869:
	.loc 1 73 13 view .LVU822
.LBB870:
	.loc 1 75 3 view .LVU823
	ldr	r0, [r5, #80]
	bl	free
.LVL242:
	.loc 1 75 3 is_stmt 0 view .LVU824
.LBE870:
.LBE869:
	.loc 1 2860 3 is_stmt 1 view .LVU825
.LBB871:
.LBI871:
	.loc 1 73 13 view .LVU826
.LBB872:
	.loc 1 75 3 view .LVU827
	ldr	r0, [r5, #84]
	bl	free
.LVL243:
	.loc 1 75 3 is_stmt 0 view .LVU828
.LBE872:
.LBE871:
	.loc 1 2861 3 is_stmt 1 view .LVU829
.LBB873:
.LBI873:
	.loc 1 73 13 view .LVU830
.LBB874:
	.loc 1 75 3 view .LVU831
	ldr	r0, [r5, #88]
.LBE874:
.LBE873:
	.loc 1 2862 1 is_stmt 0 view .LVU832
	pop	{r4, r5, r6, r7, r8, lr}
	.cfi_restore 14
	.cfi_restore 8
	.cfi_restore 7
	.cfi_restore 6
	.cfi_restore 5
	.cfi_restore 4
	.cfi_def_cfa_offset 0
.LVL244:
.LBB876:
.LBB875:
	.loc 1 75 3 view .LVU833
	b	free
.LVL245:
	.loc 1 75 3 view .LVU834
.LBE875:
.LBE876:
	.cfi_endproc
.LFE126:
	.size	LodePNGIText_cleanup, .-LodePNGIText_cleanup
	.section	.text.lodepng_color_mode_equal,"ax",%progbits
	.align	2
	.syntax unified
	.arm
	.type	lodepng_color_mode_equal, %function
lodepng_color_mode_equal:
.LVL246:
.LFB104:
	.loc 1 2613 1 is_stmt 1 view -0
	.cfi_startproc
	@ args = 0, pretend = 0, frame = 0
	@ frame_needed = 0, uses_anonymous_args = 0
	@ link register save eliminated.
	.loc 1 2614 3 view .LVU836
	.loc 1 2615 3 view .LVU837
	.loc 1 2615 5 is_stmt 0 view .LVU838
	ldrb	r2, [r0]	@ zero_extendqisi2
	ldrb	r3, [r1]	@ zero_extendqisi2
	cmp	r2, r3
	bne	.L241
	.loc 1 2616 3 is_stmt 1 view .LVU839
	.loc 1 2616 5 is_stmt 0 view .LVU840
	ldr	r2, [r0, #4]
	ldr	r3, [r1, #4]
	cmp	r2, r3
	beq	.L246
.LVL247:
.L241:
	.loc 1 2615 43 view .LVU841
	mov	r0, #0
	.loc 1 2635 1 view .LVU842
	bx	lr
.LVL248:
.L246:
.LBB879:
.LBI879:
	.loc 1 2612 12 is_stmt 1 view .LVU843
.LBB880:
	.loc 1 2617 3 view .LVU844
	.loc 1 2617 7 is_stmt 0 view .LVU845
	ldr	r3, [r0, #16]
	.loc 1 2617 5 view .LVU846
	ldr	r2, [r1, #16]
	cmp	r3, r2
	bne	.L241
	.loc 1 2618 3 is_stmt 1 view .LVU847
	.loc 1 2618 5 is_stmt 0 view .LVU848
	cmp	r3, #0
	beq	.L231
	.loc 1 2620 5 is_stmt 1 view .LVU849
	.loc 1 2620 7 is_stmt 0 view .LVU850
	ldr	r2, [r0, #20]
	ldr	r3, [r1, #20]
	cmp	r2, r3
	bne	.L241
	.loc 1 2621 5 is_stmt 1 view .LVU851
	.loc 1 2621 7 is_stmt 0 view .LVU852
	ldr	r2, [r0, #24]
	ldr	r3, [r1, #24]
	cmp	r2, r3
	bne	.L241
	.loc 1 2622 5 is_stmt 1 view .LVU853
	.loc 1 2622 7 is_stmt 0 view .LVU854
	ldr	r2, [r0, #28]
	ldr	r3, [r1, #28]
	cmp	r2, r3
	bne	.L241
.L231:
	.loc 1 2627 3 is_stmt 1 view .LVU855
	.loc 1 2628 5 view .LVU856
	.loc 1 2628 9 is_stmt 0 view .LVU857
	ldr	r3, [r0, #12]
	.loc 1 2628 7 view .LVU858
	ldr	r2, [r1, #12]
	cmp	r3, r2
	bne	.L241
.LVL249:
	.loc 1 2629 18 is_stmt 1 view .LVU859
	lsls	ip, r3, #2
	beq	.L240
	.loc 1 2631 11 is_stmt 0 view .LVU860
	ldr	r3, [r0, #8]
	ldr	r2, [r1, #8]
	add	r1, r3, ip
.LVL250:
	.loc 1 2631 11 view .LVU861
	sub	r2, r2, #1
	sub	r3, r3, #1
	sub	r1, r1, #1
	b	.L232
.LVL251:
.L247:
	.loc 1 2629 18 view .LVU862
	cmp	r3, r1
	beq	.L240
.LVL252:
.L232:
	.loc 1 2631 7 is_stmt 1 view .LVU863
	.loc 1 2629 41 view .LVU864
	.loc 1 2631 9 is_stmt 0 view .LVU865
	ldrb	ip, [r3, #1]!	@ zero_extendqisi2
.LVL253:
	.loc 1 2629 18 is_stmt 1 view .LVU866
	.loc 1 2631 9 is_stmt 0 view .LVU867
	ldrb	r0, [r2, #1]!	@ zero_extendqisi2
	cmp	ip, r0
	beq	.L247
	b	.L241
.LVL254:
.L240:
	.loc 1 2634 10 view .LVU868
	mov	r0, #1
	bx	lr
.LBE880:
.LBE879:
	.cfi_endproc
.LFE104:
	.size	lodepng_color_mode_equal, .-lodepng_color_mode_equal
	.section	.text.lodepng_huffman_code_lengths.part.0,"ax",%progbits
	.align	2
	.syntax unified
	.arm
	.type	lodepng_huffman_code_lengths.part.0, %function
lodepng_huffman_code_lengths.part.0:
.LVL255:
.LFB210:
	.loc 1 789 10 is_stmt 1 view -0
	.cfi_startproc
	@ args = 0, pretend = 0, frame = 64
	@ frame_needed = 0, uses_anonymous_args = 0
	.loc 1 800 3 view .LVU870
	.loc 1 789 10 is_stmt 0 view .LVU871
	push	{r4, r5, r6, r7, r8, r9, r10, fp, lr}
	.cfi_def_cfa_offset 36
	.cfi_offset 4, -36
	.cfi_offset 5, -32
	.cfi_offset 6, -28
	.cfi_offset 7, -24
	.cfi_offset 8, -20
	.cfi_offset 9, -16
	.cfi_offset 10, -12
	.cfi_offset 11, -8
	.cfi_offset 14, -4
	mov	r4, r0
	sub	sp, sp, #76
	.cfi_def_cfa_offset 112
.LBB910:
.LBB911:
	.loc 1 65 10 view .LVU872
	lsl	r0, r2, #4
.LVL256:
	.loc 1 65 10 view .LVU873
.LBE911:
.LBE910:
	.loc 1 789 10 view .LVU874
	mov	r8, r2
.LVL257:
.LBB914:
.LBI910:
	.loc 1 63 14 is_stmt 1 view .LVU875
.LBB912:
	.loc 1 65 3 view .LVU876
.LBE912:
.LBE914:
	.loc 1 789 10 is_stmt 0 view .LVU877
	mov	r7, r1
	mov	r6, r3
.LBB915:
.LBB913:
	.loc 1 65 10 view .LVU878
	bl	malloc
.LVL258:
	.loc 1 65 10 view .LVU879
.LBE913:
.LBE915:
	.loc 1 801 3 is_stmt 1 view .LVU880
	.loc 1 801 5 is_stmt 0 view .LVU881
	subs	r5, r0, #0
	beq	.L282
.LVL259:
	.loc 1 803 16 is_stmt 1 view .LVU882
	cmp	r8, #0
	beq	.L254
	.loc 1 794 10 is_stmt 0 view .LVU883
	mov	fp, #0
	.loc 1 803 9 view .LVU884
	mov	r1, fp
	sub	r3, r7, #4
	lsl	r2, r8, #2
	add	ip, r3, r8, lsl #2
.LVL260:
.L253:
	.loc 1 805 5 is_stmt 1 view .LVU885
	.loc 1 807 7 view .LVU886
	.loc 1 805 19 is_stmt 0 view .LVU887
	ldr	r0, [r3, #4]!
	.loc 1 807 13 view .LVU888
	add	lr, r5, fp, lsl #4
	.loc 1 805 7 view .LVU889
	cmp	r0, #0
	.loc 1 807 33 view .LVU890
	strne	r0, [r5, fp, lsl #4]
	.loc 1 808 7 is_stmt 1 view .LVU891
	.loc 1 808 32 is_stmt 0 view .LVU892
	strne	r1, [lr, #4]
	.loc 1 809 7 is_stmt 1 view .LVU893
	addne	fp, fp, #1
.LVL261:
	.loc 1 803 29 view .LVU894
	.loc 1 803 16 is_stmt 0 view .LVU895
	cmp	r3, ip
	.loc 1 803 29 view .LVU896
	add	r1, r1, #1
.LVL262:
	.loc 1 803 16 is_stmt 1 view .LVU897
	bne	.L253
	.loc 1 813 45 is_stmt 0 view .LVU898
	mov	r1, #0
.LVL263:
	.loc 1 813 45 view .LVU899
	mov	r0, r4
	bl	memset
.LVL264:
	.loc 1 820 3 is_stmt 1 view .LVU900
	.loc 1 820 5 is_stmt 0 view .LVU901
	cmp	fp, #0
	beq	.L254
	.loc 1 824 8 is_stmt 1 view .LVU902
	.loc 1 824 10 is_stmt 0 view .LVU903
	cmp	fp, #1
	beq	.L255
.LBB916:
	.loc 1 831 5 is_stmt 1 view .LVU904
	.loc 1 832 5 view .LVU905
	.loc 1 834 5 view .LVU906
.LVL265:
.LBB917:
.LBI917:
	.loc 1 731 13 view .LVU907
.LBB918:
	.loc 1 733 3 view .LVU908
	.loc 1 733 28 is_stmt 0 view .LVU909
	lsl	r7, fp, #4
.LVL266:
.LBB919:
.LBI919:
	.loc 1 63 14 is_stmt 1 view .LVU910
.LBB920:
	.loc 1 65 3 view .LVU911
	.loc 1 65 10 is_stmt 0 view .LVU912
	mov	r0, r7
	bl	malloc
.LVL267:
.LBE920:
.LBE919:
	.loc 1 735 13 view .LVU913
	mov	r3, #1
	.loc 1 734 17 view .LVU914
	mov	lr, #0
.LBB924:
.LBB921:
	.loc 1 65 10 view .LVU915
	mov	r8, r0
.LVL268:
	.loc 1 65 10 view .LVU916
.LBE921:
.LBE924:
	.loc 1 734 3 is_stmt 1 view .LVU917
	.loc 1 735 3 view .LVU918
	.loc 1 735 24 view .LVU919
	str	r5, [sp, #20]
	str	r0, [sp, #24]
	str	r7, [sp, #28]
	str	r4, [sp, #32]
	str	r6, [sp, #36]
.LVL269:
.L256:
.LBB925:
	.loc 1 737 5 view .LVU920
.LBB926:
	.loc 1 743 25 is_stmt 0 view .LVU921
	mov	r10, #0
.LBE926:
	.loc 1 737 38 view .LVU922
	tst	lr, #1
.LBB927:
	.loc 1 743 25 view .LVU923
	lsl	ip, r3, #1
.LBE927:
.LBE925:
.LBB930:
.LBB922:
	.loc 1 65 10 view .LVU924
	ldrne	r6, [sp, #24]
.LBE922:
.LBE930:
.LBB931:
	ldrne	r7, [sp, #20]
.LBB928:
	.loc 1 743 25 view .LVU925
	str	ip, [sp, #12]
	str	lr, [sp, #16]
.LBE928:
.LBE931:
.LBB932:
.LBB923:
	.loc 1 65 10 view .LVU926
	ldrdeq	r6, [sp, #20]
.LVL270:
	.loc 1 65 10 view .LVU927
.LBE923:
.LBE932:
.LBB933:
	.loc 1 739 5 is_stmt 1 view .LVU928
	.loc 1 740 5 view .LVU929
	.loc 1 740 18 view .LVU930
.L260:
.LBB929:
	.loc 1 742 7 view .LVU931
	.loc 1 742 21 is_stmt 0 view .LVU932
	add	r9, r10, r3
	mov	r5, r10
	.loc 1 742 14 view .LVU933
	cmp	fp, r9
	.loc 1 743 21 view .LVU934
	add	r10, r9, r3
.LVL271:
	.loc 1 742 14 view .LVU935
	movcc	r9, fp
.LVL272:
	.loc 1 743 7 is_stmt 1 view .LVU936
	.loc 1 743 14 is_stmt 0 view .LVU937
	cmp	fp, r10
	movcc	r8, fp
	movcs	r8, r10
.LVL273:
	.loc 1 744 7 is_stmt 1 view .LVU938
	.loc 1 745 7 view .LVU939
	.loc 1 745 20 view .LVU940
	cmp	r5, r8
	.loc 1 744 21 is_stmt 0 view .LVU941
	strcc	r10, [sp, #8]
	.loc 1 745 20 view .LVU942
	movcc	lr, r5
	.loc 1 744 21 view .LVU943
	movcc	r4, r9
	movcc	r10, r3
	.loc 1 745 20 view .LVU944
	bcc	.L259
	b	.L266
.LVL274:
.L313:
	.loc 1 747 61 is_stmt 1 view .LVU945
	.loc 1 747 18 is_stmt 0 view .LVU946
	cmp	r8, r4
	.loc 1 747 66 view .LVU947
	add	ip, r7, lr, lsl #4
	.loc 1 747 33 view .LVU948
	add	r2, r6, r5, lsl #4
	.loc 1 747 18 view .LVU949
	bls	.L263
	.loc 1 747 29 view .LVU950
	ldr	r0, [r6, r5, lsl #4]
	ldr	r1, [r6, r4, lsl #4]
	.loc 1 747 48 view .LVU951
	add	r3, r6, r4, lsl #4
	.loc 1 747 29 view .LVU952
	cmp	r0, r1
	bgt	.L264
.L263:
	.loc 1 747 66 view .LVU953
	ldm	r2, {r0, r1, r2, r3}
	.loc 1 745 26 view .LVU954
	add	lr, lr, #1
.LVL275:
	.loc 1 745 20 view .LVU955
	cmp	r8, lr
	.loc 1 747 66 view .LVU956
	stm	ip, {r0, r1, r2, r3}
	.loc 1 747 71 view .LVU957
	add	r5, r5, #1
.LVL276:
	.loc 1 745 26 is_stmt 1 view .LVU958
	.loc 1 745 20 view .LVU959
	beq	.L312
.LVL277:
.L259:
	.loc 1 747 9 view .LVU960
	.loc 1 748 14 view .LVU961
	.loc 1 747 11 is_stmt 0 view .LVU962
	cmp	r9, r5
	bhi	.L313
	.loc 1 748 22 view .LVU963
	add	r3, r6, r4, lsl #4
.L264:
	.loc 1 748 19 view .LVU964
	add	ip, r7, lr, lsl #4
	.loc 1 745 26 view .LVU965
	add	lr, lr, #1
.LVL278:
	.loc 1 745 20 view .LVU966
	cmp	r8, lr
	.loc 1 748 19 view .LVU967
	ldm	r3, {r0, r1, r2, r3}
	.loc 1 748 24 view .LVU968
	add	r4, r4, #1
.LVL279:
	.loc 1 745 26 is_stmt 1 view .LVU969
	.loc 1 745 20 view .LVU970
	.loc 1 748 19 is_stmt 0 view .LVU971
	stm	ip, {r0, r1, r2, r3}
	.loc 1 745 20 view .LVU972
	bne	.L259
.L312:
	.loc 1 745 20 view .LVU973
	mov	r3, r10
	ldr	r10, [sp, #8]
.LVL280:
.L266:
	.loc 1 745 20 view .LVU974
.LBE929:
	.loc 1 740 18 is_stmt 1 view .LVU975
	cmp	fp, r10
	bhi	.L260
	ldr	ip, [sp, #12]
	ldr	lr, [sp, #16]
	.loc 1 751 5 view .LVU976
.LBE933:
	.loc 1 735 24 is_stmt 0 view .LVU977
	cmp	fp, ip
.LBB934:
	.loc 1 751 12 view .LVU978
	add	lr, lr, #1
.LVL281:
	.loc 1 751 12 view .LVU979
.LBE934:
	.loc 1 735 37 is_stmt 1 view .LVU980
	.loc 1 735 24 view .LVU981
	bls	.L314
.LVL282:
	.loc 1 735 37 is_stmt 0 view .LVU982
	mov	r3, ip
	b	.L256
.LVL283:
.L254:
	.loc 1 735 37 view .LVU983
.LBE918:
.LBE917:
.LBE916:
	.loc 1 822 5 is_stmt 1 view .LVU984
	.loc 1 822 16 is_stmt 0 view .LVU985
	mov	r3, #1
	str	r3, [r4]	@ unaligned
	str	r3, [r4, #4]	@ unaligned
.L251:
	.loc 1 792 12 view .LVU986
	mov	r4, #0
.LVL284:
.L257:
	.loc 1 874 3 is_stmt 1 view .LVU987
.LBB971:
.LBI971:
	.loc 1 73 13 view .LVU988
.LBB972:
	.loc 1 75 3 view .LVU989
	mov	r0, r5
	bl	free
.LVL285:
	.loc 1 75 3 is_stmt 0 view .LVU990
.LBE972:
.LBE971:
	.loc 1 875 3 is_stmt 1 view .LVU991
.L248:
	.loc 1 876 1 is_stmt 0 view .LVU992
	mov	r0, r4
	add	sp, sp, #76
	.cfi_remember_state
	.cfi_def_cfa_offset 36
	@ sp needed
	pop	{r4, r5, r6, r7, r8, r9, r10, fp, pc}
.LVL286:
.L255:
	.cfi_restore_state
	.loc 1 826 5 is_stmt 1 view .LVU993
	.loc 1 826 22 is_stmt 0 view .LVU994
	ldr	r2, [r5, #4]
	.loc 1 827 12 view .LVU995
	clz	r3, r2
	lsr	r3, r3, #5
	.loc 1 826 30 view .LVU996
	str	fp, [r4, r2, lsl #2]
	.loc 1 827 5 is_stmt 1 view .LVU997
	.loc 1 827 43 is_stmt 0 view .LVU998
	str	fp, [r4, r3, lsl #2]
	b	.L251
.LVL287:
.L314:
.LBB973:
.LBB939:
.LBB937:
	.loc 1 753 3 is_stmt 1 view .LVU999
	.loc 1 753 5 is_stmt 0 view .LVU1000
	tst	lr, #1
	ldr	r5, [sp, #20]
.LVL288:
	.loc 1 753 5 view .LVU1001
	ldr	r8, [sp, #24]
.LVL289:
	.loc 1 753 5 view .LVU1002
	ldr	r7, [sp, #28]
.LVL290:
	.loc 1 753 5 view .LVU1003
	ldr	r4, [sp, #32]
	ldr	r6, [sp, #36]
	bne	.L315
.LVL291:
.L267:
	.loc 1 754 3 is_stmt 1 view .LVU1004
.LBB935:
.LBI935:
	.loc 1 73 13 view .LVU1005
.LBB936:
	.loc 1 75 3 view .LVU1006
	mov	r0, r8
	bl	free
.LVL292:
	.loc 1 75 3 is_stmt 0 view .LVU1007
.LBE936:
.LBE935:
.LBE937:
.LBE939:
	.loc 1 836 5 is_stmt 1 view .LVU1008
	.loc 1 838 20 is_stmt 0 view .LVU1009
	mov	r3, #0
	.loc 1 837 48 view .LVU1010
	add	r7, r6, #1
	.loc 1 837 35 view .LVU1011
	mul	r7, r6, r7
	.loc 1 840 30 view .LVU1012
	lsl	r1, r7, #5
.LBB940:
.LBB941:
	.loc 1 65 10 view .LVU1013
	mov	r0, r1
.LBE941:
.LBE940:
	.loc 1 838 20 view .LVU1014
	str	r3, [sp, #52]
	.loc 1 837 35 view .LVU1015
	lsl	r3, r7, #1
	.loc 1 837 19 view .LVU1016
	str	r3, [sp, #40]
	.loc 1 839 19 view .LVU1017
	str	r3, [sp, #48]
	str	r3, [sp, #16]
.LBB944:
.LBB942:
	.loc 1 65 10 view .LVU1018
	str	r1, [sp, #12]
.LBE942:
.LBE944:
	.loc 1 836 20 view .LVU1019
	str	r6, [sp, #60]
	.loc 1 837 5 is_stmt 1 view .LVU1020
	.loc 1 838 5 view .LVU1021
	.loc 1 839 5 view .LVU1022
	.loc 1 840 5 view .LVU1023
.LVL293:
.LBB945:
.LBI940:
	.loc 1 63 14 view .LVU1024
.LBB943:
	.loc 1 65 3 view .LVU1025
	.loc 1 65 10 is_stmt 0 view .LVU1026
	bl	malloc
.LVL294:
	.loc 1 65 10 view .LVU1027
	mov	r10, r0
.LBE943:
.LBE945:
.LBB946:
.LBB947:
	lsl	r0, r7, #3
.LBE947:
.LBE946:
	.loc 1 840 18 view .LVU1028
	str	r10, [sp, #44]
.LBB950:
.LBB948:
	.loc 1 65 10 view .LVU1029
	bl	malloc
.LVL295:
	mov	r2, r0
.LBE948:
.LBE950:
	.loc 1 842 32 view .LVU1030
	lsl	r8, r6, #2
.LVL296:
	.loc 1 841 5 is_stmt 1 view .LVU1031
.LBB951:
.LBI946:
	.loc 1 63 14 view .LVU1032
.LBB949:
	.loc 1 65 3 view .LVU1033
.LBE949:
.LBE951:
.LBB952:
.LBB953:
	.loc 1 65 10 is_stmt 0 view .LVU1034
	mov	r0, r8
.LVL297:
	.loc 1 65 10 view .LVU1035
.LBE953:
.LBE952:
	.loc 1 841 20 view .LVU1036
	str	r2, [sp, #56]
	str	r2, [sp, #8]
	.loc 1 842 5 is_stmt 1 view .LVU1037
.LVL298:
.LBB955:
.LBI952:
	.loc 1 63 14 view .LVU1038
.LBB954:
	.loc 1 65 3 view .LVU1039
	.loc 1 65 10 is_stmt 0 view .LVU1040
	bl	malloc
.LVL299:
	.loc 1 65 10 view .LVU1041
	mov	r7, r0
.LBE954:
.LBE955:
.LBB956:
.LBB957:
	mov	r0, r8
.LVL300:
	.loc 1 65 10 view .LVU1042
.LBE957:
.LBE956:
	.loc 1 842 19 view .LVU1043
	str	r7, [sp, #64]
	.loc 1 843 5 is_stmt 1 view .LVU1044
.LVL301:
.LBB960:
.LBI956:
	.loc 1 63 14 view .LVU1045
.LBB958:
	.loc 1 65 3 view .LVU1046
	.loc 1 65 10 is_stmt 0 view .LVU1047
	bl	malloc
.LVL302:
.LBE958:
.LBE960:
	.loc 1 844 59 view .LVU1048
	ldr	r2, [sp, #8]
.LBB961:
.LBB959:
	.loc 1 65 10 view .LVU1049
	mov	r9, r0
.LVL303:
	.loc 1 65 10 view .LVU1050
.LBE959:
.LBE961:
	.loc 1 844 59 view .LVU1051
	cmp	r10, #0
	cmpne	r2, #0
	moveq	ip, #1
	movne	ip, #0
	cmp	r7, #0
	movne	r0, ip
	orreq	r0, ip, #1
	cmp	r9, #0
	orreq	r0, r0, #1
	cmp	r0, #0
	.loc 1 843 19 view .LVU1052
	str	r9, [sp, #68]
	.loc 1 844 5 is_stmt 1 view .LVU1053
	.loc 1 844 59 is_stmt 0 view .LVU1054
	bne	.L286
.LVL304:
	.loc 1 848 20 is_stmt 1 view .LVU1055
	ldr	r3, [sp, #16]
	ldr	r1, [sp, #12]
	cmp	r3, #0
	movne	r3, r10
	subne	r2, r2, #4
	addne	r1, r3, r1
	beq	.L273
.LVL305:
.L272:
	.loc 1 848 43 view .LVU1056
	.loc 1 848 61 is_stmt 0 view .LVU1057
	str	r3, [r2, #4]!
	.loc 1 848 38 is_stmt 1 view .LVU1058
	.loc 1 848 20 view .LVU1059
	add	r3, r3, #16
	cmp	r1, r3
	bne	.L272
.L273:
	.loc 1 850 7 view .LVU1060
	mov	r3, #0
	mov	r2, #1
	ldr	r1, [r5]
	add	r0, sp, #40
	bl	bpmnode_create
.LVL306:
	.loc 1 851 7 view .LVU1061
	mov	r3, #0
	mov	r2, #2
	ldr	r1, [r5, #16]
	add	r0, sp, #40
	bl	bpmnode_create
.LVL307:
	.loc 1 853 7 view .LVU1062
	.loc 1 853 20 view .LVU1063
	cmp	r6, #0
	beq	.L271
	.loc 1 855 28 is_stmt 0 view .LVU1064
	ldr	r1, [sp, #44]
	sub	r2, r8, #4
	add	r2, r7, r2
	.loc 1 856 28 view .LVU1065
	add	r0, r1, #16
	sub	r7, r7, #4
	sub	r3, r9, #4
.LVL308:
.L276:
	.loc 1 855 9 is_stmt 1 view .LVU1066
	.loc 1 855 26 is_stmt 0 view .LVU1067
	str	r1, [r7, #4]!
	.loc 1 856 9 is_stmt 1 view .LVU1068
	.loc 1 853 20 is_stmt 0 view .LVU1069
	cmp	r2, r7
	.loc 1 856 26 view .LVU1070
	str	r0, [r3, #4]!
	.loc 1 853 39 is_stmt 1 view .LVU1071
	.loc 1 853 20 view .LVU1072
	bne	.L276
.L271:
.LVL309:
	.loc 1 860 20 view .LVU1073
	.loc 1 860 38 is_stmt 0 view .LVU1074
	sub	r10, fp, #-2147483647
	lsl	r10, r10, #1
	.loc 1 860 20 view .LVU1075
	cmp	r10, #2
	.loc 1 860 13 view .LVU1076
	movne	r7, #2
	.loc 1 860 48 view .LVU1077
	subne	r6, r6, #1
	.loc 1 860 20 view .LVU1078
	beq	.L275
.LVL310:
.L279:
	.loc 1 860 48 is_stmt 1 view .LVU1079
	str	r7, [sp]
	mov	r3, r6
	mov	r2, fp
	mov	r1, r5
	.loc 1 860 43 is_stmt 0 view .LVU1080
	add	r7, r7, #1
.LVL311:
	.loc 1 860 48 view .LVU1081
	add	r0, sp, #40
	bl	boundaryPM
.LVL312:
	.loc 1 860 43 is_stmt 1 view .LVU1082
	.loc 1 860 20 view .LVU1083
	cmp	r7, r10
	bne	.L279
.LVL313:
.L275:
	.loc 1 862 7 view .LVU1084
	.loc 1 862 16 is_stmt 0 view .LVU1085
	add	r8, r9, r8
	ldr	r0, [r8, #-4]
.LVL314:
	.loc 1 862 48 is_stmt 1 view .LVU1086
	cmp	r0, #0
	beq	.L278
	add	ip, r5, #4
.L277:
.LVL315:
	.loc 1 864 22 view .LVU1087
	ldr	r3, [r0, #4]
	cmp	r3, #0
	.loc 1 864 15 is_stmt 0 view .LVU1088
	movne	r3, #0
	.loc 1 864 22 view .LVU1089
	beq	.L281
.LVL316:
.L280:
	.loc 1 864 43 is_stmt 1 view .LVU1090
	.loc 1 864 52 is_stmt 0 view .LVU1091
	ldr	r1, [ip, r3, lsl #4]
	.loc 1 864 38 view .LVU1092
	add	r3, r3, #1
.LVL317:
	.loc 1 864 43 view .LVU1093
	ldr	r2, [r4, r1, lsl #2]
	add	r2, r2, #1
	str	r2, [r4, r1, lsl #2]
	.loc 1 864 38 is_stmt 1 view .LVU1094
.LVL318:
	.loc 1 864 22 view .LVU1095
	ldr	r2, [r0, #4]
	cmp	r3, r2
	bne	.L280
.LVL319:
.L281:
	.loc 1 862 59 view .LVU1096
	ldr	r0, [r0, #8]
.LVL320:
	.loc 1 862 48 view .LVU1097
	cmp	r0, #0
	bne	.L277
.L278:
	.loc 1 862 48 is_stmt 0 view .LVU1098
.LBE973:
	.loc 1 792 12 view .LVU1099
	mov	r4, #0
.LVL321:
.L268:
.LBB974:
	.loc 1 868 5 is_stmt 1 view .LVU1100
.LBB962:
.LBI962:
	.loc 1 73 13 view .LVU1101
.LBB963:
	.loc 1 75 3 view .LVU1102
	ldr	r0, [sp, #44]
	bl	free
.LVL322:
	.loc 1 75 3 is_stmt 0 view .LVU1103
.LBE963:
.LBE962:
	.loc 1 869 5 is_stmt 1 view .LVU1104
.LBB964:
.LBI964:
	.loc 1 73 13 view .LVU1105
.LBB965:
	.loc 1 75 3 view .LVU1106
	ldr	r0, [sp, #56]
	bl	free
.LVL323:
	.loc 1 75 3 is_stmt 0 view .LVU1107
.LBE965:
.LBE964:
	.loc 1 870 5 is_stmt 1 view .LVU1108
.LBB966:
.LBI966:
	.loc 1 73 13 view .LVU1109
.LBB967:
	.loc 1 75 3 view .LVU1110
	ldr	r0, [sp, #64]
	bl	free
.LVL324:
	.loc 1 75 3 is_stmt 0 view .LVU1111
.LBE967:
.LBE966:
	.loc 1 871 5 is_stmt 1 view .LVU1112
.LBB968:
.LBI968:
	.loc 1 73 13 view .LVU1113
.LBB969:
	.loc 1 75 3 view .LVU1114
	ldr	r0, [sp, #68]
	bl	free
.LVL325:
	.loc 1 75 3 is_stmt 0 view .LVU1115
	b	.L257
.LVL326:
.L315:
	.loc 1 75 3 view .LVU1116
.LBE969:
.LBE968:
.LBB970:
.LBB938:
	.loc 1 753 19 is_stmt 1 view .LVU1117
	mov	r2, r7
	mov	r1, r8
	mov	r0, r5
	bl	memcpy
.LVL327:
	.loc 1 753 19 is_stmt 0 view .LVU1118
	b	.L267
.LVL328:
.L282:
	.loc 1 753 19 view .LVU1119
.LBE938:
.LBE970:
.LBE974:
	.loc 1 801 22 view .LVU1120
	mov	r4, #83
.LVL329:
	.loc 1 801 22 view .LVU1121
	b	.L248
.LVL330:
.L286:
.LBB975:
	.loc 1 844 84 view .LVU1122
	mov	r4, #83
	b	.L268
.LBE975:
	.cfi_endproc
.LFE210:
	.size	lodepng_huffman_code_lengths.part.0, .-lodepng_huffman_code_lengths.part.0
	.section	.text.unfilter,"ax",%progbits
	.align	2
	.syntax unified
	.arm
	.type	unfilter, %function
unfilter:
.LVL331:
.LFB154:
	.loc 1 4044 1 is_stmt 1 view -0
	.cfi_startproc
	@ args = 4, pretend = 0, frame = 40
	@ frame_needed = 0, uses_anonymous_args = 0
	.loc 1 4044 1 is_stmt 0 view .LVU1124
	push	{r4, r5, r6, r7, r8, r9, r10, fp, lr}
	.cfi_def_cfa_offset 36
	.cfi_offset 4, -36
	.cfi_offset 5, -32
	.cfi_offset 6, -28
	.cfi_offset 7, -24
	.cfi_offset 8, -20
	.cfi_offset 9, -16
	.cfi_offset 10, -12
	.cfi_offset 11, -8
	.cfi_offset 14, -4
	mov	lr, r2
	sub	sp, sp, #44
	.cfi_def_cfa_offset 80
	.loc 1 4044 1 view .LVU1125
	ldr	ip, [sp, #80]
	.loc 1 4060 16 view .LVU1126
	cmp	r3, #0
	.loc 1 4057 27 view .LVU1127
	add	r2, ip, #7
.LVL332:
	.loc 1 4060 16 view .LVU1128
	str	r3, [sp, #4]
	.loc 1 4053 3 is_stmt 1 view .LVU1129
	.loc 1 4054 3 view .LVU1130
.LVL333:
	.loc 1 4057 3 view .LVU1131
	.loc 1 4058 3 view .LVU1132
	.loc 1 4058 25 is_stmt 0 view .LVU1133
	mul	ip, lr, ip
.LVL334:
	.loc 1 4060 3 is_stmt 1 view .LVU1134
	.loc 1 4060 16 view .LVU1135
	beq	.L330
	mov	r3, r1
.LVL335:
	.loc 1 4054 18 is_stmt 0 view .LVU1136
	mov	fp, #0
	add	ip, ip, #7
.LVL336:
	.loc 1 4054 18 view .LVU1137
	lsr	r1, ip, #3
.LVL337:
	.loc 1 4054 18 view .LVU1138
	mov	r10, r3
	sub	r5, r0, #1
.LBB982:
	.loc 1 4063 25 view .LVU1139
	add	r0, r1, #1
.LVL338:
	.loc 1 4063 25 view .LVU1140
.LBE982:
	.loc 1 4060 9 view .LVU1141
	mov	r6, r0
	mov	ip, fp
.LVL339:
	.loc 1 4060 9 view .LVU1142
	mov	r7, fp
	mov	r0, r1
	lsr	r2, r2, #3
.LVL340:
	.loc 1 4060 9 view .LVU1143
	add	r3, r3, r1
.LVL341:
	.loc 1 4060 9 view .LVU1144
	add	r4, r10, r2
.LVL342:
.L329:
.LBB997:
	.loc 1 4062 5 is_stmt 1 view .LVU1145
	.loc 1 4063 5 view .LVU1146
	.loc 1 4064 5 view .LVU1147
.LBB983:
	.loc 1 4066 7 view .LVU1148
.LBB984:
.LBB985:
	.loc 1 3982 3 is_stmt 0 view .LVU1149
	ldrb	r1, [r10]	@ zero_extendqisi2
	mov	lr, fp
.LBE985:
.LBE984:
	.loc 1 4066 24 view .LVU1150
	add	fp, r5, #1
.LVL343:
.LBB994:
.LBI984:
	.loc 1 3969 17 is_stmt 1 view .LVU1151
.LBB992:
	.loc 1 3981 3 view .LVU1152
	.loc 1 3982 3 view .LVU1153
	cmp	r1, #4
	ldrls	pc, [pc, r1, asl #2]
	b	.L357
.L320:
	.word	.L324
	.word	.L323
	.word	.L322
	.word	.L321
	.word	.L319
.L319:
	.loc 1 4014 7 view .LVU1154
	.loc 1 4014 9 is_stmt 0 view .LVU1155
	cmp	lr, #0
	beq	.L382
.LVL344:
	.loc 1 4016 22 is_stmt 1 view .LVU1156
	cmp	r2, #0
	movne	r8, r5
	movne	r1, r10
	subne	ip, lr, #1
	strne	fp, [sp, #8]
	beq	.L352
.LVL345:
.L351:
	.loc 1 4018 11 view .LVU1157
	.loc 1 4018 35 is_stmt 0 view .LVU1158
	ldrb	r9, [r1, #1]!	@ zero_extendqisi2
.LVL346:
	.loc 1 4018 35 view .LVU1159
	ldrb	fp, [ip, #1]!	@ zero_extendqisi2
	.loc 1 4016 22 view .LVU1160
	cmp	r4, r1
	.loc 1 4018 35 view .LVU1161
	add	r9, r9, fp
	.loc 1 4018 20 view .LVU1162
	strb	r9, [r8, #1]!
	.loc 1 4016 36 is_stmt 1 view .LVU1163
.LVL347:
	.loc 1 4016 22 view .LVU1164
	bne	.L351
	ldr	fp, [sp, #8]
.LVL348:
.L352:
	.loc 1 4020 30 view .LVU1165
	cmp	r2, r0
	bcs	.L327
	sub	r1, r2, #1
	add	r1, lr, r1
	str	r7, [sp, #20]
	str	r6, [sp, #36]
	mov	r8, r4
	mov	r6, r1
	mov	r7, r5
.LVL349:
	.loc 1 4020 30 is_stmt 0 view .LVU1166
	sub	lr, lr, #1
.LVL350:
	.loc 1 4020 30 view .LVU1167
	add	r9, r2, r5
	str	fp, [sp, #8]
	str	r2, [sp, #12]
	str	r0, [sp, #16]
	str	r10, [sp, #24]
	str	r5, [sp, #28]
	str	r4, [sp, #32]
.LVL351:
.L354:
	.loc 1 4022 11 is_stmt 1 view .LVU1168
.LBB986:
.LBB987:
	.loc 1 3842 8 view .LVU1169
.LBE987:
.LBE986:
	.loc 1 4022 91 is_stmt 0 view .LVU1170
	ldrb	r1, [lr, #1]!	@ zero_extendqisi2
	.loc 1 4022 80 view .LVU1171
	ldrb	r5, [r6, #1]!	@ zero_extendqisi2
	.loc 1 4022 57 view .LVU1172
	ldrb	r4, [r7, #1]!	@ zero_extendqisi2
.LVL352:
.LBB990:
.LBI986:
	.loc 1 3835 22 is_stmt 1 view .LVU1173
.LBB988:
	.loc 1 3837 3 view .LVU1174
	.loc 1 3837 20 is_stmt 0 view .LVU1175
	sub	r0, r5, r1
	.loc 1 3838 20 view .LVU1176
	sub	ip, r4, r1
	.loc 1 3837 14 view .LVU1177
	cmp	r0, #0
	rsblt	r0, r0, #0
	.loc 1 3839 20 view .LVU1178
	add	r2, r4, r5
	.loc 1 3838 14 view .LVU1179
	cmp	ip, #0
	.loc 1 3839 28 view .LVU1180
	sub	r2, r2, r1, lsl #1
	.loc 1 3838 14 view .LVU1181
	rsblt	ip, ip, #0
	.loc 1 3837 9 view .LVU1182
	sxth	r0, r0
.LVL353:
	.loc 1 3838 3 is_stmt 1 view .LVU1183
	.loc 1 3839 14 is_stmt 0 view .LVU1184
	cmp	r2, #0
	.loc 1 3838 9 view .LVU1185
	sxth	ip, ip
.LVL354:
	.loc 1 3839 3 is_stmt 1 view .LVU1186
	.loc 1 3841 3 view .LVU1187
	.loc 1 3839 14 is_stmt 0 view .LVU1188
	rsblt	r2, r2, #0
	.loc 1 3841 5 view .LVU1189
	cmp	ip, r0
	movlt	fp, ip
	movge	fp, r0
	sxth	r2, r2
	cmp	fp, r2
.LBE988:
.LBE990:
	.loc 1 4022 31 view .LVU1190
	ldrb	r10, [r8, #1]!	@ zero_extendqisi2
.LVL355:
.LBB991:
.LBB989:
	.loc 1 3841 5 view .LVU1191
	bgt	.L353
.LBE989:
.LBE991:
	.loc 1 4022 57 view .LVU1192
	cmp	ip, r0
	movlt	r1, r5
.LVL356:
	.loc 1 4022 57 view .LVU1193
	movge	r1, r4
.L353:
	.loc 1 4022 35 view .LVU1194
	add	r1, r1, r10
	.loc 1 4020 30 view .LVU1195
	cmp	r3, r8
	.loc 1 4022 20 view .LVU1196
	strb	r1, [r9, #1]!
.LVL357:
	.loc 1 4020 40 is_stmt 1 view .LVU1197
	.loc 1 4020 30 view .LVU1198
	bne	.L354
	ldr	fp, [sp, #8]
	ldr	r2, [sp, #12]
	ldr	r5, [sp, #28]
.LVL358:
	.loc 1 4020 30 is_stmt 0 view .LVU1199
	ldr	r4, [sp, #32]
.LVL359:
	.loc 1 4020 30 view .LVU1200
	ldr	r6, [sp, #36]
	add	r0, sp, #16
.LVL360:
	.loc 1 4020 30 view .LVU1201
	ldm	r0, {r0, r7, r10}
.LVL361:
.L327:
	.loc 1 4020 30 view .LVU1202
.LBE992:
.LBE994:
	.loc 1 4066 120 is_stmt 1 view .LVU1203
.LBE983:
	.loc 1 4066 144 view .LVU1204
	.loc 1 4068 5 view .LVU1205
	.loc 1 4068 5 is_stmt 0 view .LVU1206
.LBE997:
	.loc 1 4060 21 is_stmt 1 view .LVU1207
	.loc 1 4060 16 is_stmt 0 view .LVU1208
	ldr	r1, [sp, #4]
	.loc 1 4060 21 view .LVU1209
	add	r7, r7, #1
.LVL362:
	.loc 1 4060 16 is_stmt 1 view .LVU1210
	cmp	r1, r7
	add	r10, r10, r6
	add	r5, r5, r0
	add	r3, r3, r6
	add	r4, r4, r6
	bne	.L329
.LVL363:
.L330:
	.loc 1 4071 10 is_stmt 0 view .LVU1211
	mov	r0, #0
.L316:
	.loc 1 4072 1 view .LVU1212
	add	sp, sp, #44
	.cfi_remember_state
	.cfi_def_cfa_offset 36
	@ sp needed
	pop	{r4, r5, r6, r7, r8, r9, r10, fp, pc}
.LVL364:
.L321:
	.cfi_restore_state
.LBB998:
.LBB996:
.LBB995:
.LBB993:
	.loc 1 4002 7 is_stmt 1 view .LVU1213
	.loc 1 4002 9 is_stmt 0 view .LVU1214
	cmp	lr, #0
	beq	.L383
.LVL365:
	.loc 1 4004 22 is_stmt 1 view .LVU1215
	cmp	r2, #0
	movne	r8, r5
	movne	r1, r10
	subne	ip, lr, #1
	strne	fp, [sp, #8]
	beq	.L342
.LVL366:
.L341:
	.loc 1 4004 41 view .LVU1216
	.loc 1 4004 64 is_stmt 0 view .LVU1217
	ldrb	r9, [r1, #1]!	@ zero_extendqisi2
.LVL367:
	.loc 1 4004 64 view .LVU1218
	ldrb	fp, [ip, #1]!	@ zero_extendqisi2
	.loc 1 4004 22 view .LVU1219
	cmp	r4, r1
	.loc 1 4004 64 view .LVU1220
	add	r9, r9, fp, lsr #1
	.loc 1 4004 50 view .LVU1221
	strb	r9, [r8, #1]!
	.loc 1 4004 36 is_stmt 1 view .LVU1222
.LVL368:
	.loc 1 4004 22 view .LVU1223
	bne	.L341
	ldr	fp, [sp, #8]
.LVL369:
.L342:
	.loc 1 4005 30 view .LVU1224
	cmp	r2, r0
	bcs	.L327
	mov	r8, r5
	mov	ip, r4
	sub	r1, r2, #1
	add	lr, lr, r1
.LVL370:
	.loc 1 4005 30 is_stmt 0 view .LVU1225
	add	r9, r2, r5
	str	fp, [sp, #8]
.LVL371:
.L343:
	.loc 1 4005 45 is_stmt 1 view .LVU1226
	.loc 1 4005 77 is_stmt 0 view .LVU1227
	ldrb	r1, [r8, #1]!	@ zero_extendqisi2
	.loc 1 4005 101 view .LVU1228
	ldrb	fp, [lr, #1]!	@ zero_extendqisi2
	.loc 1 4005 93 view .LVU1229
	add	fp, r1, fp
	.loc 1 4005 68 view .LVU1230
	ldrb	r1, [ip, #1]!	@ zero_extendqisi2
.LVL372:
	.loc 1 4005 68 view .LVU1231
	add	r1, r1, fp, lsr #1
	.loc 1 4005 30 view .LVU1232
	cmp	r3, ip
	.loc 1 4005 54 view .LVU1233
	strb	r1, [r9, #1]!
	.loc 1 4005 40 is_stmt 1 view .LVU1234
.LVL373:
	.loc 1 4005 30 view .LVU1235
	bne	.L343
	ldr	fp, [sp, #8]
	b	.L327
.LVL374:
.L322:
	.loc 1 3992 7 view .LVU1236
	.loc 1 3992 9 is_stmt 0 view .LVU1237
	cmp	lr, #0
	beq	.L384
.LVL375:
	.loc 1 3994 22 is_stmt 1 view .LVU1238
	cmp	r0, #0
	beq	.L327
	mov	r8, r5
	mov	ip, r10
	sub	lr, lr, #1
.LVL376:
.L335:
	.loc 1 3994 38 view .LVU1239
	.loc 1 3994 61 is_stmt 0 view .LVU1240
	ldrb	r1, [ip, #1]!	@ zero_extendqisi2
.LVL377:
	.loc 1 3994 61 view .LVU1241
	ldrb	r9, [lr, #1]!	@ zero_extendqisi2
	.loc 1 3994 22 view .LVU1242
	cmp	r3, ip
	.loc 1 3994 61 view .LVU1243
	add	r1, r1, r9
	.loc 1 3994 47 view .LVU1244
	strb	r1, [r8, #1]!
	.loc 1 3994 33 is_stmt 1 view .LVU1245
.LVL378:
	.loc 1 3994 22 view .LVU1246
	bne	.L335
	b	.L327
.LVL379:
.L323:
	.loc 1 3988 20 view .LVU1247
	cmp	r2, #0
	movne	ip, r5
	movne	r1, r10
	beq	.L331
.LVL380:
.L325:
	.loc 1 3988 39 view .LVU1248
	.loc 1 3988 58 is_stmt 0 view .LVU1249
	ldrb	lr, [r1, #1]!	@ zero_extendqisi2
.LVL381:
	.loc 1 3988 20 view .LVU1250
	cmp	r4, r1
	.loc 1 3988 48 view .LVU1251
	strb	lr, [ip, #1]!
	.loc 1 3988 34 is_stmt 1 view .LVU1252
.LVL382:
	.loc 1 3988 20 view .LVU1253
	bne	.L325
.LVL383:
.L331:
	.loc 1 3989 28 view .LVU1254
	cmp	r2, r0
	movcc	r8, r5
	movcc	ip, r4
	addcc	lr, r2, r5
	bcs	.L327
.LVL384:
.L332:
	.loc 1 3989 43 view .LVU1255
	.loc 1 3989 66 is_stmt 0 view .LVU1256
	ldrb	r1, [ip, #1]!	@ zero_extendqisi2
.LVL385:
	.loc 1 3989 66 view .LVU1257
	ldrb	r9, [r8, #1]!	@ zero_extendqisi2
	.loc 1 3989 28 view .LVU1258
	cmp	r3, ip
	.loc 1 3989 66 view .LVU1259
	add	r1, r1, r9
	.loc 1 3989 52 view .LVU1260
	strb	r1, [lr, #1]!
	.loc 1 3989 38 is_stmt 1 view .LVU1261
.LVL386:
	.loc 1 3989 28 view .LVU1262
	bne	.L332
	b	.L327
.LVL387:
.L324:
	.loc 1 3985 20 view .LVU1263
	cmp	r0, #0
	movne	ip, r5
	movne	r1, r10
	beq	.L327
.LVL388:
.L328:
	.loc 1 3985 36 view .LVU1264
	.loc 1 3985 55 is_stmt 0 view .LVU1265
	ldrb	lr, [r1, #1]!	@ zero_extendqisi2
.LVL389:
	.loc 1 3985 20 view .LVU1266
	cmp	r3, r1
	.loc 1 3985 45 view .LVU1267
	strb	lr, [ip, #1]!
	.loc 1 3985 31 is_stmt 1 view .LVU1268
.LVL390:
	.loc 1 3985 20 view .LVU1269
	bne	.L328
	b	.L327
.LVL391:
.L382:
	.loc 1 4027 22 view .LVU1270
	cmp	r2, #0
	movne	ip, r5
	movne	r1, r10
	beq	.L355
.LVL392:
.L347:
	.loc 1 4029 11 view .LVU1271
	.loc 1 4029 30 is_stmt 0 view .LVU1272
	ldrb	lr, [r1, #1]!	@ zero_extendqisi2
.LVL393:
	.loc 1 4027 22 view .LVU1273
	cmp	r1, r4
	.loc 1 4029 20 view .LVU1274
	strb	lr, [ip, #1]!
	.loc 1 4027 36 is_stmt 1 view .LVU1275
.LVL394:
	.loc 1 4027 22 view .LVU1276
	bne	.L347
.LVL395:
.L355:
	.loc 1 4031 30 view .LVU1277
	cmp	r2, r0
	movcc	r8, r5
	movcc	ip, r4
	addcc	lr, r2, r5
	bcs	.L327
.LVL396:
.L356:
	.loc 1 4034 11 view .LVU1278
	.loc 1 4034 35 is_stmt 0 view .LVU1279
	ldrb	r1, [ip, #1]!	@ zero_extendqisi2
.LVL397:
	.loc 1 4034 35 view .LVU1280
	ldrb	r9, [r8, #1]!	@ zero_extendqisi2
	.loc 1 4031 30 view .LVU1281
	cmp	r3, ip
	.loc 1 4034 35 view .LVU1282
	add	r1, r1, r9
	.loc 1 4034 20 view .LVU1283
	strb	r1, [lr, #1]!
	.loc 1 4031 40 is_stmt 1 view .LVU1284
.LVL398:
	.loc 1 4031 30 view .LVU1285
	bne	.L356
	b	.L327
.LVL399:
.L384:
	.loc 1 3998 22 view .LVU1286
	cmp	r0, #0
	movne	ip, r5
	movne	r1, r10
	beq	.L327
.LVL400:
.L334:
	.loc 1 3998 38 view .LVU1287
	.loc 1 3998 57 is_stmt 0 view .LVU1288
	ldrb	lr, [r1, #1]!	@ zero_extendqisi2
.LVL401:
	.loc 1 3998 22 view .LVU1289
	cmp	r3, r1
	.loc 1 3998 47 view .LVU1290
	strb	lr, [ip, #1]!
	.loc 1 3998 33 is_stmt 1 view .LVU1291
.LVL402:
	.loc 1 3998 22 view .LVU1292
	bne	.L334
	b	.L327
.LVL403:
.L383:
	.loc 1 4009 22 view .LVU1293
	cmp	r2, #0
	movne	ip, r5
	movne	r1, r10
	beq	.L344
.LVL404:
.L337:
	.loc 1 4009 41 view .LVU1294
	.loc 1 4009 60 is_stmt 0 view .LVU1295
	ldrb	lr, [r1, #1]!	@ zero_extendqisi2
.LVL405:
	.loc 1 4009 22 view .LVU1296
	cmp	r4, r1
	.loc 1 4009 50 view .LVU1297
	strb	lr, [ip, #1]!
	.loc 1 4009 36 is_stmt 1 view .LVU1298
.LVL406:
	.loc 1 4009 22 view .LVU1299
	bne	.L337
.LVL407:
.L344:
	.loc 1 4010 30 view .LVU1300
	cmp	r2, r0
	movcc	r8, r5
	movcc	ip, r4
	addcc	lr, r2, r5
	bcs	.L327
.LVL408:
.L345:
	.loc 1 4010 45 view .LVU1301
	.loc 1 4010 68 is_stmt 0 view .LVU1302
	ldrb	r1, [ip, #1]!	@ zero_extendqisi2
.LVL409:
	.loc 1 4010 68 view .LVU1303
	ldrb	r9, [r8, #1]!	@ zero_extendqisi2
	.loc 1 4010 30 view .LVU1304
	cmp	ip, r3
	.loc 1 4010 68 view .LVU1305
	add	r1, r1, r9, lsr #1
	.loc 1 4010 54 view .LVU1306
	strb	r1, [lr, #1]!
	.loc 1 4010 40 is_stmt 1 view .LVU1307
.LVL410:
	.loc 1 4010 30 view .LVU1308
	bne	.L345
	b	.L327
.LVL411:
.L357:
	.loc 1 3982 3 is_stmt 0 view .LVU1309
	mov	r0, #36
.LVL412:
	.loc 1 3982 3 view .LVU1310
	b	.L316
.LBE993:
.LBE995:
.LBE996:
.LBE998:
	.cfi_endproc
.LFE154:
	.size	unfilter, .-unfilter
	.section	.text.addPaddingBits,"ax",%progbits
	.align	2
	.syntax unified
	.arm
	.type	addPaddingBits, %function
addPaddingBits:
.LVL413:
.LFB194:
	.loc 1 5431 1 is_stmt 1 view -0
	.cfi_startproc
	@ args = 4, pretend = 0, frame = 16
	@ frame_needed = 0, uses_anonymous_args = 0
	.loc 1 5434 3 view .LVU1312
	.loc 1 5435 3 view .LVU1313
	.loc 1 5431 1 is_stmt 0 view .LVU1314
	push	{r4, r5, r6, r7, r8, r9, r10, fp, lr}
	.cfi_def_cfa_offset 36
	.cfi_offset 4, -36
	.cfi_offset 5, -32
	.cfi_offset 6, -28
	.cfi_offset 7, -24
	.cfi_offset 8, -20
	.cfi_offset 9, -16
	.cfi_offset 10, -12
	.cfi_offset 11, -8
	.cfi_offset 14, -4
	sub	sp, sp, #20
	.cfi_def_cfa_offset 56
	.loc 1 5431 1 view .LVU1315
	ldr	r5, [sp, #56]
	mov	lr, r3
	.loc 1 5437 16 view .LVU1316
	cmp	r5, #0
	.loc 1 5435 10 view .LVU1317
	sub	r3, r2, r3
.LVL414:
	.loc 1 5436 3 is_stmt 1 view .LVU1318
	.loc 1 5437 3 view .LVU1319
	.loc 1 5437 16 view .LVU1320
	beq	.L385
	.loc 1 5436 10 is_stmt 0 view .LVU1321
	mov	r4, #0
	mov	r10, r1
.LBB1007:
.LBB1008:
.LBB1009:
.LBB1010:
	.loc 1 2412 69 view .LVU1322
	mov	r6, #1
.LBE1010:
.LBE1009:
.LBE1008:
.LBE1007:
	.loc 1 5436 19 view .LVU1323
	mov	r7, r4
	.loc 1 5437 9 view .LVU1324
	mov	ip, r4
.LVL415:
.L386:
.LBB1038:
	.loc 1 5440 18 is_stmt 1 view .LVU1325
	cmp	lr, #0
	moveq	r2, r4
	beq	.L394
	mov	r2, r7
	stm	sp, {r3, ip}
	add	r7, lr, r7
	sub	fp, r4, r2
	sub	r9, r2, r4
	str	r4, [sp, #8]
	str	lr, [sp, #12]
.LVL416:
.L390:
.LBB1033:
.LBB1017:
.LBB1011:
	.loc 1 2412 16 view .LVU1326
	.loc 1 2413 8 view .LVU1327
.LBE1011:
.LBE1017:
.LBB1018:
.LBB1019:
	.loc 1 2379 79 is_stmt 0 view .LVU1328
	mvn	ip, r2
	.loc 1 2379 52 view .LVU1329
	ldrb	r1, [r10, r2, lsr #3]	@ zero_extendqisi2
	add	lr, fp, r2
.LVL417:
	.loc 1 2379 52 view .LVU1330
.LBE1019:
.LBE1018:
	.loc 1 5442 7 is_stmt 1 view .LVU1331
.LBB1024:
.LBI1018:
	.loc 1 2377 22 view .LVU1332
.LBB1020:
	.loc 1 2379 3 view .LVU1333
	.loc 1 2380 3 is_stmt 0 view .LVU1334
	add	r2, r2, #1
.LVL418:
	.loc 1 2380 3 view .LVU1335
.LBE1020:
.LBE1024:
.LBB1025:
.LBB1012:
	.loc 1 2412 75 view .LVU1336
	sub	r3, r9, r2
	and	r3, r3, #7
.LBE1012:
.LBE1025:
.LBB1026:
.LBB1021:
	.loc 1 2379 79 view .LVU1337
	and	ip, ip, #7
.LBE1021:
.LBE1026:
.LBB1027:
.LBB1013:
	.loc 1 2412 25 view .LVU1338
	ldrb	r8, [r0, lr, lsr #3]	@ zero_extendqisi2
	.loc 1 2412 69 view .LVU1339
	lsl	r3, r6, r3
.LBE1013:
.LBE1027:
.LBB1028:
.LBB1022:
	.loc 1 2379 73 view .LVU1340
	asr	r1, r1, ip
.LVL419:
	.loc 1 2380 3 is_stmt 1 view .LVU1341
	.loc 1 2381 3 view .LVU1342
	.loc 1 2381 3 is_stmt 0 view .LVU1343
.LBE1022:
.LBE1028:
	.loc 1 5443 7 is_stmt 1 view .LVU1344
.LBB1029:
.LBI1009:
	.loc 1 2409 13 view .LVU1345
.LBB1014:
	.loc 1 2412 3 view .LVU1346
	.loc 1 2412 49 is_stmt 0 view .LVU1347
	uxtb	r3, r3
	.loc 1 2412 5 view .LVU1348
	tst	r1, #1
	.loc 1 2412 46 view .LVU1349
	bic	r4, r8, r3
	.loc 1 2413 38 view .LVU1350
	orrne	r4, r3, r8
.LBE1014:
.LBE1029:
.LBE1033:
	.loc 1 5440 18 view .LVU1351
	cmp	r7, r2
.LBB1034:
.LBB1030:
.LBB1015:
	.loc 1 2412 46 view .LVU1352
	strb	r4, [r0, lr, lsr #3]
	.loc 1 2414 3 is_stmt 1 view .LVU1353
.LVL420:
	.loc 1 2414 3 is_stmt 0 view .LVU1354
.LBE1015:
.LBE1030:
.LBE1034:
	.loc 1 5440 31 is_stmt 1 view .LVU1355
	.loc 1 5440 18 view .LVU1356
	bne	.L390
.LBB1035:
.LBB1031:
.LBB1023:
	.loc 1 2380 3 is_stmt 0 view .LVU1357
	ldm	sp, {r3, ip}
	ldr	r4, [sp, #8]
	ldr	lr, [sp, #12]
.LBE1023:
.LBE1031:
.LBB1032:
.LBB1016:
	.loc 1 2414 3 view .LVU1358
	add	r2, lr, r4
.LVL421:
.L394:
	.loc 1 2414 3 view .LVU1359
.LBE1016:
.LBE1032:
.LBE1035:
	.loc 1 5447 18 is_stmt 1 view .LVU1360
	cmp	r3, #0
	beq	.L396
	add	r4, r3, r2
.L392:
	.loc 1 5447 32 view .LVU1361
.LVL422:
.LBB1036:
.LBI1036:
	.loc 1 2409 13 view .LVU1362
.LBB1037:
	.loc 1 2412 3 view .LVU1363
	.loc 1 2412 16 view .LVU1364
	.loc 1 2412 75 is_stmt 0 view .LVU1365
	mvn	r8, r2
	.loc 1 2412 46 view .LVU1366
	ldrb	r1, [r0, r2, lsr #3]	@ zero_extendqisi2
	.loc 1 2412 75 view .LVU1367
	and	r8, r8, #7
	.loc 1 2412 46 view .LVU1368
	bic	r1, r1, r6, lsl r8
	strb	r1, [r0, r2, lsr #3]
	.loc 1 2414 3 is_stmt 1 view .LVU1369
	add	r2, r2, #1
.LVL423:
	.loc 1 2414 3 is_stmt 0 view .LVU1370
.LBE1037:
.LBE1036:
	.loc 1 5447 27 is_stmt 1 view .LVU1371
	.loc 1 5447 18 view .LVU1372
	cmp	r4, r2
	bne	.L392
.LBE1038:
	.loc 1 5437 22 discriminator 2 view .LVU1373
	add	ip, ip, #1
.LVL424:
	.loc 1 5437 16 discriminator 2 view .LVU1374
	cmp	r5, ip
	bne	.L386
.LVL425:
.L385:
	.loc 1 5449 1 is_stmt 0 view .LVU1375
	add	sp, sp, #20
	.cfi_remember_state
	.cfi_def_cfa_offset 36
	@ sp needed
	pop	{r4, r5, r6, r7, r8, r9, r10, fp, pc}
.LVL426:
.L396:
	.cfi_restore_state
	.loc 1 5437 22 view .LVU1376
	add	ip, ip, #1
	.loc 1 5437 16 view .LVU1377
	cmp	r5, ip
.LBB1039:
	.loc 1 5447 18 view .LVU1378
	mov	r4, r2
.LBE1039:
	.loc 1 5437 22 is_stmt 1 view .LVU1379
.LVL427:
	.loc 1 5437 16 view .LVU1380
	bne	.L386
.LVL428:
	.loc 1 5437 16 is_stmt 0 view .LVU1381
	b	.L385
	.cfi_endproc
.LFE194:
	.size	addPaddingBits, .-addPaddingBits
	.section	.text.removePaddingBits,"ax",%progbits
	.align	2
	.syntax unified
	.arm
	.type	removePaddingBits, %function
removePaddingBits:
.LVL429:
.LFB156:
	.loc 1 4137 1 is_stmt 1 view -0
	.cfi_startproc
	@ args = 4, pretend = 0, frame = 16
	@ frame_needed = 0, uses_anonymous_args = 0
	.loc 1 4147 3 view .LVU1383
	.loc 1 4148 3 view .LVU1384
	.loc 1 4137 1 is_stmt 0 view .LVU1385
	push	{r4, r5, r6, r7, r8, r9, r10, fp, lr}
	.cfi_def_cfa_offset 36
	.cfi_offset 4, -36
	.cfi_offset 5, -32
	.cfi_offset 6, -28
	.cfi_offset 7, -24
	.cfi_offset 8, -20
	.cfi_offset 9, -16
	.cfi_offset 10, -12
	.cfi_offset 11, -8
	.cfi_offset 14, -4
	sub	sp, sp, #20
	.cfi_def_cfa_offset 56
	.loc 1 4137 1 view .LVU1386
	ldr	r4, [sp, #56]
	.loc 1 4148 10 view .LVU1387
	sub	r3, r3, r2
.LVL430:
	.loc 1 4149 3 is_stmt 1 view .LVU1388
	.loc 1 4150 3 view .LVU1389
	.loc 1 4150 16 view .LVU1390
	cmp	r4, #0
	beq	.L400
	mov	r9, r1
	.loc 1 4149 19 is_stmt 0 view .LVU1391
	mov	r1, #0
.LVL431:
	.loc 1 4149 19 view .LVU1392
	mov	lr, r2
	mov	r5, r0
.LBB1046:
.LBB1047:
.LBB1048:
.LBB1049:
	.loc 1 2412 69 view .LVU1393
	mov	r10, #1
.LBE1049:
.LBE1048:
.LBE1047:
.LBE1046:
	.loc 1 4150 9 view .LVU1394
	mov	r7, r1
	mov	ip, r1
	str	r3, [sp, #12]
.LVL432:
.L401:
.LBB1073:
	.loc 1 4153 18 is_stmt 1 view .LVU1395
	cmp	lr, #0
	beq	.L407
	mov	r2, r7
	stmib	sp, {r1, lr}
	add	r7, lr, r7
	sub	fp, r1, r2
	sub	r8, r2, r1
	str	ip, [sp]
.LVL433:
.L405:
.LBB1070:
.LBB1056:
.LBB1050:
	.loc 1 2412 16 view .LVU1396
	.loc 1 2413 8 view .LVU1397
.LBE1050:
.LBE1056:
.LBB1057:
.LBB1058:
	.loc 1 2379 79 is_stmt 0 view .LVU1398
	mvn	r0, r2
	.loc 1 2379 52 view .LVU1399
	ldrb	r1, [r9, r2, lsr #3]	@ zero_extendqisi2
	add	ip, fp, r2
.LVL434:
	.loc 1 2379 52 view .LVU1400
.LBE1058:
.LBE1057:
	.loc 1 4155 7 is_stmt 1 view .LVU1401
.LBB1062:
.LBI1057:
	.loc 1 2377 22 view .LVU1402
.LBB1059:
	.loc 1 2379 3 view .LVU1403
	.loc 1 2380 3 is_stmt 0 view .LVU1404
	add	r2, r2, #1
.LVL435:
	.loc 1 2380 3 view .LVU1405
.LBE1059:
.LBE1062:
.LBB1063:
.LBB1051:
	.loc 1 2412 75 view .LVU1406
	sub	r3, r8, r2
	and	r3, r3, #7
.LBE1051:
.LBE1063:
.LBB1064:
.LBB1060:
	.loc 1 2379 79 view .LVU1407
	and	r0, r0, #7
.LBE1060:
.LBE1064:
.LBB1065:
.LBB1052:
	.loc 1 2412 25 view .LVU1408
	ldrb	r6, [r5, ip, lsr #3]	@ zero_extendqisi2
	.loc 1 2412 69 view .LVU1409
	lsl	r3, r10, r3
.LBE1052:
.LBE1065:
.LBB1066:
.LBB1061:
	.loc 1 2379 73 view .LVU1410
	asr	r1, r1, r0
.LVL436:
	.loc 1 2380 3 is_stmt 1 view .LVU1411
	.loc 1 2381 3 view .LVU1412
	.loc 1 2381 3 is_stmt 0 view .LVU1413
.LBE1061:
.LBE1066:
	.loc 1 4156 7 is_stmt 1 view .LVU1414
.LBB1067:
.LBI1048:
	.loc 1 2409 13 view .LVU1415
.LBB1053:
	.loc 1 2412 3 view .LVU1416
	.loc 1 2412 49 is_stmt 0 view .LVU1417
	uxtb	r3, r3
	.loc 1 2412 5 view .LVU1418
	tst	r1, #1
	.loc 1 2412 46 view .LVU1419
	bic	lr, r6, r3
	.loc 1 2413 38 view .LVU1420
	orrne	lr, r3, r6
.LBE1053:
.LBE1067:
.LBE1070:
	.loc 1 4153 18 view .LVU1421
	cmp	r7, r2
.LBB1071:
.LBB1068:
.LBB1054:
	.loc 1 2412 46 view .LVU1422
	strb	lr, [r5, ip, lsr #3]
	.loc 1 2414 3 is_stmt 1 view .LVU1423
.LVL437:
	.loc 1 2414 3 is_stmt 0 view .LVU1424
.LBE1054:
.LBE1068:
.LBE1071:
	.loc 1 4153 31 is_stmt 1 view .LVU1425
	.loc 1 4153 18 view .LVU1426
	bne	.L405
.LBB1072:
.LBB1069:
.LBB1055:
	.loc 1 2414 3 is_stmt 0 view .LVU1427
	ldmib	sp, {r1, lr}
.LVL438:
	.loc 1 2414 3 view .LVU1428
	ldr	ip, [sp]
	add	r1, r1, lr
.LVL439:
.L407:
	.loc 1 2414 3 view .LVU1429
.LBE1055:
.LBE1069:
.LBE1072:
	.loc 1 4158 5 is_stmt 1 discriminator 2 view .LVU1430
	.loc 1 4158 9 is_stmt 0 discriminator 2 view .LVU1431
	ldr	r3, [sp, #12]
.LBE1073:
	.loc 1 4150 21 discriminator 2 view .LVU1432
	add	ip, ip, #1
	.loc 1 4150 16 discriminator 2 view .LVU1433
	cmp	r4, ip
.LBB1074:
	.loc 1 4158 9 discriminator 2 view .LVU1434
	add	r7, r3, r7
.LVL440:
	.loc 1 4158 9 discriminator 2 view .LVU1435
.LBE1074:
	.loc 1 4150 21 is_stmt 1 discriminator 2 view .LVU1436
	.loc 1 4150 16 discriminator 2 view .LVU1437
	bne	.L401
.LVL441:
.L400:
	.loc 1 4160 1 is_stmt 0 view .LVU1438
	add	sp, sp, #20
	.cfi_def_cfa_offset 36
	@ sp needed
	pop	{r4, r5, r6, r7, r8, r9, r10, fp, pc}
	.cfi_endproc
.LFE156:
	.size	removePaddingBits, .-removePaddingBits
	.section	.text.uivector_push_back,"ax",%progbits
	.align	2
	.syntax unified
	.arm
	.type	uivector_push_back, %function
uivector_push_back:
.LVL442:
.LFB11:
	.loc 1 194 1 is_stmt 1 view -0
	.cfi_startproc
	@ args = 0, pretend = 0, frame = 0
	@ frame_needed = 0, uses_anonymous_args = 0
	.loc 1 195 3 view .LVU1440
	.loc 1 194 1 is_stmt 0 view .LVU1441
	push	{r4, r5, r6, r7, r8, lr}
	.cfi_def_cfa_offset 24
	.cfi_offset 4, -24
	.cfi_offset 5, -20
	.cfi_offset 6, -16
	.cfi_offset 7, -12
	.cfi_offset 8, -8
	.cfi_offset 14, -4
	.loc 1 195 7 view .LVU1442
	ldr	r5, [r0, #4]
.LBB1084:
.LBB1085:
.LBB1086:
.LBB1087:
	.loc 1 154 19 view .LVU1443
	ldr	r3, [r0, #8]
.LBE1087:
.LBE1086:
.LBE1085:
.LBE1084:
	.loc 1 195 7 view .LVU1444
	add	r5, r5, #1
.LVL443:
.LBB1101:
.LBI1084:
	.loc 1 169 17 is_stmt 1 view .LVU1445
.LBB1098:
	.loc 1 171 3 view .LVU1446
.LBB1095:
.LBB1092:
	.loc 1 154 5 is_stmt 0 view .LVU1447
	cmp	r3, r5, lsl #2
.LBE1092:
.LBE1095:
.LBE1098:
.LBE1101:
	.loc 1 194 1 view .LVU1448
	mov	r4, r0
	mov	r6, r1
.LBB1102:
.LBB1099:
.LBB1096:
.LBB1093:
.LBB1088:
	.loc 1 157 35 view .LVU1449
	ldr	r0, [r0]
.LVL444:
	.loc 1 157 35 view .LVU1450
.LBE1088:
.LBE1093:
.LBE1096:
	.loc 1 171 7 view .LVU1451
	lsl	r8, r5, #2
.LVL445:
.LBB1097:
.LBI1086:
	.loc 1 152 17 is_stmt 1 view .LVU1452
.LBB1094:
	.loc 1 154 3 view .LVU1453
	.loc 1 154 5 is_stmt 0 view .LVU1454
	bcs	.L412
.LBB1091:
	.loc 1 156 5 is_stmt 1 view .LVU1455
	.loc 1 156 65 is_stmt 0 view .LVU1456
	cmp	r8, r3, lsl #1
	movhi	r7, r8
	.loc 1 156 78 view .LVU1457
	addls	r7, r5, r5, lsl #1
	lslls	r7, r7, #2
	.loc 1 156 65 view .LVU1458
	lsrls	r7, r7, #1
.LVL446:
	.loc 1 157 5 is_stmt 1 view .LVU1459
.LBB1089:
.LBI1089:
	.loc 1 68 14 view .LVU1460
.LBB1090:
	.loc 1 70 3 view .LVU1461
	.loc 1 70 10 is_stmt 0 view .LVU1462
	mov	r1, r7
.LVL447:
	.loc 1 70 10 view .LVU1463
	bl	realloc
.LVL448:
	.loc 1 70 10 view .LVU1464
.LBE1090:
.LBE1089:
	.loc 1 158 5 is_stmt 1 view .LVU1465
	.loc 1 158 7 is_stmt 0 view .LVU1466
	cmp	r0, #0
	.loc 1 158 7 view .LVU1467
	popeq	{r4, r5, r6, r7, r8, pc}
	.loc 1 160 7 is_stmt 1 view .LVU1468
	.loc 1 160 20 is_stmt 0 view .LVU1469
	str	r7, [r4, #8]
	.loc 1 161 7 is_stmt 1 view .LVU1470
	.loc 1 161 15 is_stmt 0 view .LVU1471
	str	r0, [r4]
.LVL449:
.L412:
	.loc 1 161 15 view .LVU1472
.LBE1091:
.LBE1094:
.LBE1097:
	.loc 1 172 3 is_stmt 1 view .LVU1473
.LBE1099:
.LBE1102:
.LBB1103:
.LBB1104:
	.loc 1 196 24 is_stmt 0 view .LVU1474
	add	r3, r0, r8
.LBE1104:
.LBE1103:
.LBB1106:
.LBB1100:
	.loc 1 172 11 view .LVU1475
	str	r5, [r4, #4]
	.loc 1 173 3 is_stmt 1 view .LVU1476
.LVL450:
	.loc 1 173 3 is_stmt 0 view .LVU1477
.LBE1100:
.LBE1106:
.LBB1107:
.LBI1103:
	.loc 1 193 17 is_stmt 1 view .LVU1478
.LBB1105:
	.loc 1 196 3 view .LVU1479
	.loc 1 196 24 is_stmt 0 view .LVU1480
	mov	r0, #1
	str	r6, [r3, #-4]
	.loc 1 197 3 is_stmt 1 view .LVU1481
.LVL451:
	.loc 1 197 3 is_stmt 0 view .LVU1482
.LBE1105:
.LBE1107:
	.loc 1 198 1 view .LVU1483
	pop	{r4, r5, r6, r7, r8, pc}
	.cfi_endproc
.LFE11:
	.size	uivector_push_back, .-uivector_push_back
	.section	.text.encodeLZ77.constprop.0,"ax",%progbits
	.align	2
	.syntax unified
	.arm
	.type	encodeLZ77.constprop.0, %function
encodeLZ77.constprop.0:
.LVL452:
.LFB220:
	.loc 1 1474 17 is_stmt 1 view -0
	.cfi_startproc
	@ args = 20, pretend = 0, frame = 64
	@ frame_needed = 0, uses_anonymous_args = 0
	.loc 1 1474 17 is_stmt 0 view .LVU1485
	push	{r4, r5, r6, r7, r8, r9, r10, fp, lr}
	.cfi_def_cfa_offset 36
	.cfi_offset 4, -36
	.cfi_offset 5, -32
	.cfi_offset 6, -28
	.cfi_offset 7, -24
	.cfi_offset 8, -20
	.cfi_offset 9, -16
	.cfi_offset 10, -12
	.cfi_offset 11, -8
	.cfi_offset 14, -4
	sub	sp, sp, #68
	.cfi_def_cfa_offset 104
	.loc 1 1481 61 view .LVU1486
	ldr	ip, [sp, #108]
	.loc 1 1474 17 view .LVU1487
	str	r2, [sp, #8]
	.loc 1 1478 3 is_stmt 1 view .LVU1488
	.loc 1 1479 3 view .LVU1489
.LVL453:
	.loc 1 1481 3 view .LVU1490
	.loc 1 1481 61 is_stmt 0 view .LVU1491
	cmp	ip, #8192
	ldrcc	r2, [sp, #108]
.LVL454:
	.loc 1 1481 61 view .LVU1492
	ldrcs	r10, [sp, #108]
	lsrcc	r10, r2, #3
	.loc 1 1482 3 is_stmt 1 view .LVU1493
	.loc 1 1497 22 is_stmt 0 view .LVU1494
	ldr	r2, [sp, #108]
	.loc 1 1474 17 view .LVU1495
	str	r0, [sp, #44]
	.loc 1 1497 22 view .LVU1496
	sub	r2, r2, #1
	.loc 1 1474 17 view .LVU1497
	mov	r0, r3
.LVL455:
	.loc 1 1482 77 view .LVU1498
	movcc	r3, #64
.LVL456:
	.loc 1 1482 77 view .LVU1499
	ldrcs	r3, .L553
.LVL457:
	.loc 1 1484 3 is_stmt 1 view .LVU1500
	.loc 1 1485 3 view .LVU1501
	.loc 1 1487 3 view .LVU1502
	.loc 1 1488 3 view .LVU1503
	.loc 1 1489 3 view .LVU1504
	.loc 1 1490 3 view .LVU1505
	.loc 1 1491 3 view .LVU1506
	.loc 1 1492 3 view .LVU1507
	.loc 1 1493 3 view .LVU1508
	.loc 1 1494 3 view .LVU1509
	.loc 1 1495 3 view .LVU1510
	.loc 1 1497 3 view .LVU1511
	.loc 1 1497 5 is_stmt 0 view .LVU1512
	cmp	r2, #32768
	.loc 1 1474 17 view .LVU1513
	mov	r6, r1
	.loc 1 1497 52 view .LVU1514
	movcs	r7, #60
	.loc 1 1474 17 view .LVU1515
	ldr	ip, [sp, #116]
	.loc 1 1497 22 view .LVU1516
	str	r2, [sp, #36]
	.loc 1 1497 5 view .LVU1517
	bcs	.L418
	.loc 1 1498 3 is_stmt 1 view .LVU1518
	.loc 1 1498 5 is_stmt 0 view .LVU1519
	ldr	r1, [sp, #108]
.LVL458:
	.loc 1 1498 5 view .LVU1520
	ands	r7, r1, r2
	.loc 1 1498 51 view .LVU1521
	movne	r7, #90
	.loc 1 1498 5 view .LVU1522
	bne	.L418
	.loc 1 1500 3 is_stmt 1 view .LVU1523
	.loc 1 1500 5 is_stmt 0 view .LVU1524
	ldr	r2, .L553
	.loc 1 1502 24 view .LVU1525
	mov	r9, r0
	.loc 1 1500 5 view .LVU1526
	cmp	ip, r2
	movcc	r2, ip
	str	r2, [sp, #32]
.LVL459:
	.loc 1 1502 3 is_stmt 1 view .LVU1527
	.loc 1 1502 24 view .LVU1528
	ldr	r2, [sp, #104]
.LVL460:
	.loc 1 1502 24 is_stmt 0 view .LVU1529
	cmp	r2, r0
	bls	.L418
.LBB1128:
	.loc 1 1587 57 view .LVU1530
	ldr	r2, .L553+4
.LBE1128:
	.loc 1 1485 12 view .LVU1531
	mov	fp, r7
.LBB1158:
	.loc 1 1587 57 view .LVU1532
	cmp	r3, r2
	movcs	r3, r2
.LVL461:
	.loc 1 1587 57 view .LVU1533
.LBE1158:
	.loc 1 1490 28 view .LVU1534
	str	r7, [sp, #56]
.LBB1159:
	.loc 1 1587 57 view .LVU1535
	str	r3, [sp, #52]
.LBE1159:
	.loc 1 1490 12 view .LVU1536
	str	r7, [sp, #48]
	.loc 1 1489 12 view .LVU1537
	str	r7, [sp, #40]
	str	r7, [sp, #60]
.LVL462:
.L421:
.LBB1160:
	.loc 1 1504 5 is_stmt 1 view .LVU1538
	.loc 1 1507 15 is_stmt 0 view .LVU1539
	ldr	r1, [sp, #104]
	mov	r2, r9
	ldr	r0, [sp, #8]
	bl	getHash
.LVL463:
	.loc 1 1504 12 view .LVU1540
	ldr	r3, [sp, #36]
	and	r1, r3, r9
.LVL464:
	.loc 1 1505 5 is_stmt 1 view .LVU1541
	.loc 1 1507 5 view .LVU1542
	.loc 1 1509 5 view .LVU1543
	.loc 1 1509 7 is_stmt 0 view .LVU1544
	subs	r3, r0, #0
	.loc 1 1516 16 view .LVU1545
	movne	fp, #0
.LVL465:
	.loc 1 1509 7 view .LVU1546
	str	r3, [sp, #4]
	movne	r3, fp
	bne	.L422
	.loc 1 1511 7 is_stmt 1 view .LVU1547
	.loc 1 1511 9 is_stmt 0 view .LVU1548
	cmp	fp, #0
	beq	.L544
	.loc 1 1512 12 is_stmt 1 view .LVU1549
	.loc 1 1512 14 is_stmt 0 view .LVU1550
	ldr	r2, [sp, #104]
	.loc 1 1512 19 view .LVU1551
	add	r3, fp, r9
	.loc 1 1512 14 view .LVU1552
	cmp	r2, r3
	bcc	.L427
	.loc 1 1512 44 view .LVU1553
	ldr	r2, [sp, #8]
	add	r3, r2, r3
	.loc 1 1512 39 view .LVU1554
	ldrb	r3, [r3, #-1]	@ zero_extendqisi2
	cmp	r3, #0
	beq	.L541
.L427:
	.loc 1 1512 71 is_stmt 1 view .LVU1555
	sub	fp, fp, #1
.L541:
.LVL466:
	.loc 1 1519 5 is_stmt 0 view .LVU1556
	uxth	r3, fp
.LVL467:
.L422:
	.loc 1 1519 5 is_stmt 1 view .LVU1557
	ldr	r2, [sp, #4]
	mov	r0, r6
	bl	updateHashChain
.LVL468:
	.loc 1 1522 5 view .LVU1558
	.loc 1 1523 5 view .LVU1559
	.loc 1 1525 5 view .LVU1560
	.loc 1 1527 13 is_stmt 0 view .LVU1561
	ldr	r7, [sp, #8]
	ldr	r2, [sp, #104]
	.loc 1 1527 32 view .LVU1562
	add	r3, r9, #256
	add	r3, r3, #2
	.loc 1 1525 19 view .LVU1563
	ldr	r8, [r6, #4]
	.loc 1 1527 13 view .LVU1564
	cmp	r3, r2
	addls	r7, r7, r3
	addhi	r7, r7, r2
	.loc 1 1525 26 view .LVU1565
	lsl	r3, r1, #1
	.loc 1 1533 9 view .LVU1566
	cmp	r10, #0
	.loc 1 1525 13 view .LVU1567
	ldrh	ip, [r8, r3]
.LVL469:
	.loc 1 1527 5 is_stmt 1 view .LVU1568
	.loc 1 1530 5 view .LVU1569
	.loc 1 1531 5 view .LVU1570
	.loc 1 1533 7 view .LVU1571
	.loc 1 1533 9 is_stmt 0 view .LVU1572
	beq	.L545
	.loc 1 1523 12 view .LVU1573
	mov	r3, #0
	.loc 1 1534 57 view .LVU1574
	ldr	r2, [sp, #108]
	.loc 1 1530 17 view .LVU1575
	str	r9, [sp, #24]
	.loc 1 1534 57 view .LVU1576
	add	r2, r2, r1
	str	r2, [sp, #12]
	.loc 1 1541 17 view .LVU1577
	ldr	r2, [sp, #8]
	.loc 1 1533 21 view .LVU1578
	mov	lr, #1
	.loc 1 1541 17 view .LVU1579
	add	r2, r2, r9
	.loc 1 1522 12 view .LVU1580
	mov	r4, r3
	.loc 1 1530 17 view .LVU1581
	mov	r9, r8
	.loc 1 1523 12 view .LVU1582
	str	r3, [sp, #28]
	.loc 1 1530 17 view .LVU1583
	mov	r8, r2
	b	.L428
.LVL470:
.L547:
	.loc 1 1574 9 is_stmt 1 view .LVU1584
	.loc 1 1574 31 is_stmt 0 view .LVU1585
	ldr	r3, [r6, #16]
	.loc 1 1574 17 view .LVU1586
	ldrh	ip, [r3, r2]
.LVL471:
	.loc 1 1575 9 is_stmt 1 view .LVU1587
	.loc 1 1575 23 is_stmt 0 view .LVU1588
	ldr	r2, [r6, #20]
	lsl	r3, ip, #1
	ldrh	r3, [r2, r3]
	.loc 1 1575 11 view .LVU1589
	cmp	fp, r3
	bne	.L539
	.loc 1 1531 5 is_stmt 1 view .LVU1590
	.loc 1 1533 7 view .LVU1591
	.loc 1 1533 9 is_stmt 0 view .LVU1592
	cmp	r10, lr
	.loc 1 1533 21 view .LVU1593
	add	lr, lr, #1
.LVL472:
	.loc 1 1533 9 view .LVU1594
	beq	.L539
.L548:
	.loc 1 1533 9 view .LVU1595
	mov	r3, r5
.LVL473:
.L428:
	.loc 1 1534 7 is_stmt 1 view .LVU1596
	.loc 1 1534 57 is_stmt 0 view .LVU1597
	cmp	r1, ip
	ldrcc	r2, [sp, #12]
	subcs	r5, r1, ip
	subcc	r5, r2, ip
.LVL474:
	.loc 1 1536 7 is_stmt 1 view .LVU1598
	.loc 1 1536 9 is_stmt 0 view .LVU1599
	cmp	r5, r3
	bcc	.L539
	.loc 1 1537 7 is_stmt 1 view .LVU1600
.LVL475:
	.loc 1 1538 7 view .LVU1601
	.loc 1 1538 9 is_stmt 0 view .LVU1602
	cmp	r5, #0
	bne	.L546
.L434:
	.loc 1 1570 7 is_stmt 1 view .LVU1603
	.loc 1 1570 32 is_stmt 0 view .LVU1604
	lsl	r2, ip, #1
	ldrh	r3, [r9, r2]
	.loc 1 1570 9 view .LVU1605
	cmp	r3, ip
	beq	.L539
	.loc 1 1572 7 is_stmt 1 view .LVU1606
	.loc 1 1572 9 is_stmt 0 view .LVU1607
	cmp	fp, #2
	movls	r0, #0
	movhi	r0, #1
	cmp	fp, r4
	movcs	r0, #0
	cmp	r0, #0
	bne	.L547
.L439:
	.loc 1 1579 9 is_stmt 1 view .LVU1608
.LVL476:
	.loc 1 1581 9 view .LVU1609
	.loc 1 1581 21 is_stmt 0 view .LVU1610
	ldr	r2, [r6, #8]
	.loc 1 1581 11 view .LVU1611
	ldr	r0, [sp, #4]
	ldr	r2, [r2, r3, lsl #2]
	cmp	r2, r0
	bne	.L539
	.loc 1 1533 9 view .LVU1612
	cmp	r10, lr
	mov	ip, r3
	.loc 1 1531 5 is_stmt 1 view .LVU1613
	.loc 1 1533 7 view .LVU1614
	.loc 1 1533 21 is_stmt 0 view .LVU1615
	add	lr, lr, #1
.LVL477:
	.loc 1 1533 9 view .LVU1616
	bne	.L548
.LVL478:
.L539:
	.loc 1 1533 9 view .LVU1617
	ldr	r9, [sp, #24]
.L431:
.LVL479:
	.loc 1 1585 5 is_stmt 1 view .LVU1618
	.loc 1 1585 7 is_stmt 0 view .LVU1619
	ldr	r3, [sp, #120]
	.loc 1 1587 26 view .LVU1620
	cmp	r4, #2
	movls	r5, #0
.LVL480:
	.loc 1 1587 26 view .LVU1621
	movhi	r5, #1
	.loc 1 1585 7 view .LVU1622
	cmp	r3, #0
	beq	.L441
	.loc 1 1587 7 is_stmt 1 view .LVU1623
	.loc 1 1587 10 is_stmt 0 view .LVU1624
	ldr	r3, [sp, #40]
	eor	r3, r3, #1
	.loc 1 1587 9 view .LVU1625
	tst	r5, r3
	beq	.L442
	.loc 1 1587 57 view .LVU1626
	ldr	r3, [sp, #52]
	cmp	r4, r3
	bls	.L549
.LVL481:
	.loc 1 1613 5 is_stmt 1 view .LVU1627
	.loc 1 1613 7 is_stmt 0 view .LVU1628
	ldr	r3, [sp, #108]
	ldr	r2, [sp, #28]
	cmp	r3, r2
	bcc	.L469
	.loc 1 1620 10 is_stmt 1 view .LVU1629
	.loc 1 1620 12 is_stmt 0 view .LVU1630
	ldr	r3, [sp, #112]
	cmp	r4, r3
	mov	r3, #0
	str	r3, [sp, #40]
	bcs	.L450
.LVL482:
.L449:
	.loc 1 1624 7 is_stmt 1 view .LVU1631
	.loc 1 1624 11 is_stmt 0 view .LVU1632
	ldr	r3, [sp, #8]
	ldr	r0, [sp, #44]
	ldrb	r1, [r3, r9]	@ zero_extendqisi2
	bl	uivector_push_back
.LVL483:
	.loc 1 1624 9 view .LVU1633
	cmp	r0, #0
	beq	.L446
.LVL484:
.L443:
	.loc 1 1624 9 view .LVU1634
.LBE1160:
	.loc 1 1502 34 is_stmt 1 view .LVU1635
	.loc 1 1502 24 is_stmt 0 view .LVU1636
	ldr	r3, [sp, #104]
	.loc 1 1502 34 view .LVU1637
	add	r9, r9, #1
.LVL485:
	.loc 1 1502 24 is_stmt 1 view .LVU1638
	cmp	r3, r9
	bhi	.L421
	.loc 1 1502 24 is_stmt 0 view .LVU1639
	ldr	r7, [sp, #60]
.LVL486:
.L418:
	.loc 1 1649 1 view .LVU1640
	mov	r0, r7
	add	sp, sp, #68
	.cfi_remember_state
	.cfi_def_cfa_offset 36
	@ sp needed
	pop	{r4, r5, r6, r7, r8, r9, r10, fp, pc}
.LVL487:
.L546:
	.cfi_restore_state
.LBB1161:
	.loc 1 1541 9 is_stmt 1 view .LVU1641
	.loc 1 1542 9 view .LVU1642
	.loc 1 1542 27 is_stmt 0 view .LVU1643
	ldr	r3, [sp, #24]
	.loc 1 1545 11 view .LVU1644
	cmp	fp, #2
	.loc 1 1542 27 view .LVU1645
	sub	r0, r3, r5
	.loc 1 1542 17 view .LVU1646
	ldr	r3, [sp, #8]
	add	r0, r3, r0
.LVL488:
	.loc 1 1545 9 is_stmt 1 view .LVU1647
	.loc 1 1545 11 is_stmt 0 view .LVU1648
	bls	.L435
.LBB1129:
	.loc 1 1547 11 is_stmt 1 view .LVU1649
.LVL489:
	.loc 1 1548 11 view .LVU1650
	.loc 1 1547 38 is_stmt 0 view .LVU1651
	ldr	r2, [r6, #20]
	lsl	r3, ip, #1
	.loc 1 1547 20 view .LVU1652
	ldrh	r2, [r2, r3]
	cmp	r2, fp
	movcs	r2, fp
.LVL490:
	.loc 1 1549 11 is_stmt 1 view .LVU1653
	.loc 1 1549 19 is_stmt 0 view .LVU1654
	add	r0, r0, r2
.LVL491:
	.loc 1 1550 11 is_stmt 1 view .LVU1655
	.loc 1 1550 19 is_stmt 0 view .LVU1656
	add	r2, r8, r2
.LVL492:
	.loc 1 1550 19 view .LVU1657
.LBE1129:
	.loc 1 1553 34 is_stmt 1 view .LVU1658
	cmp	r7, r2
.LVL493:
	.loc 1 1553 34 is_stmt 0 view .LVU1659
	beq	.L436
.LVL494:
.L471:
	.loc 1 1553 34 view .LVU1660
	mov	r3, r2
	sub	r0, r0, #1
.LVL495:
	.loc 1 1553 34 view .LVU1661
	str	r10, [sp, #16]
	str	r1, [sp, #20]
	b	.L437
.LVL496:
.L438:
	.loc 1 1553 34 view .LVU1662
	cmp	r7, r3
	.loc 1 1556 11 view .LVU1663
	mov	r2, r3
	.loc 1 1553 34 is_stmt 1 view .LVU1664
	beq	.L538
.LVL497:
.L437:
	.loc 1 1555 11 view .LVU1665
	mov	r2, r3
.LVL498:
	.loc 1 1553 34 is_stmt 0 view .LVU1666
	ldrb	r10, [r0, #1]!	@ zero_extendqisi2
	ldrb	r1, [r2]	@ zero_extendqisi2
	add	r3, r3, #1
	.loc 1 1556 11 is_stmt 1 view .LVU1667
.LVL499:
	.loc 1 1553 34 is_stmt 0 view .LVU1668
	cmp	r10, r1
	beq	.L438
.L538:
	ldr	r10, [sp, #16]
	ldr	r1, [sp, #20]
.LVL500:
.L436:
	.loc 1 1558 9 is_stmt 1 view .LVU1669
	.loc 1 1558 45 is_stmt 0 view .LVU1670
	sub	r2, r2, r8
.LVL501:
	.loc 1 1560 9 is_stmt 1 view .LVU1671
	.loc 1 1560 11 is_stmt 0 view .LVU1672
	cmp	r2, r4
	bls	.L434
	.loc 1 1562 11 is_stmt 1 view .LVU1673
.LVL502:
	.loc 1 1563 11 view .LVU1674
	.loc 1 1566 11 view .LVU1675
	.loc 1 1566 13 is_stmt 0 view .LVU1676
	ldr	r3, [sp, #32]
	cmp	r3, r2
	bls	.L481
	.loc 1 1558 24 view .LVU1677
	mov	r4, r2
	str	r5, [sp, #28]
	b	.L434
.LVL503:
.L435:
	.loc 1 1553 34 is_stmt 1 view .LVU1678
	cmp	r7, r8
	.loc 1 1541 17 is_stmt 0 view .LVU1679
	movne	r2, r8
	.loc 1 1553 34 view .LVU1680
	bne	.L471
	.loc 1 1570 7 is_stmt 1 view .LVU1681
	.loc 1 1570 32 is_stmt 0 view .LVU1682
	lsl	r3, ip, #1
	ldrh	r3, [r9, r3]
	.loc 1 1570 9 view .LVU1683
	cmp	ip, r3
	bne	.L439
	b	.L539
.LVL504:
.L442:
	.loc 1 1594 7 is_stmt 1 view .LVU1684
	.loc 1 1594 9 is_stmt 0 view .LVU1685
	ldr	r3, [sp, #40]
	cmp	r3, #0
	beq	.L445
	.loc 1 1596 9 is_stmt 1 view .LVU1686
.LVL505:
	.loc 1 1597 9 view .LVU1687
	.loc 1 1597 11 is_stmt 0 view .LVU1688
	cmp	r9, #0
	beq	.L484
	.loc 1 1597 43 is_stmt 1 view .LVU1689
	.loc 1 1598 9 view .LVU1690
	.loc 1 1598 32 is_stmt 0 view .LVU1691
	ldr	r3, [sp, #48]
	add	r3, r3, #1
	.loc 1 1598 11 view .LVU1692
	cmp	r4, r3
	.loc 1 1601 41 view .LVU1693
	sub	r3, r9, #1
	.loc 1 1598 11 view .LVU1694
	bhi	.L550
.LVL506:
.L430:
	.loc 1 1605 11 is_stmt 1 view .LVU1695
	.loc 1 1606 11 view .LVU1696
	.loc 1 1607 11 view .LVU1697
	.loc 1 1596 14 is_stmt 0 view .LVU1698
	mov	r2, #0
	.loc 1 1613 15 view .LVU1699
	mov	r9, r3
	ldr	r4, [sp, #48]
	.loc 1 1607 31 view .LVU1700
	mvn	r3, #0
	.loc 1 1613 15 view .LVU1701
	cmp	r4, #2
	movls	r5, #0
	movhi	r5, #1
	.loc 1 1596 14 view .LVU1702
	str	r2, [sp, #40]
	.loc 1 1613 15 view .LVU1703
	ldr	r2, [sp, #56]
	.loc 1 1607 31 view .LVU1704
	ldr	r1, [sp, #4]
	.loc 1 1613 15 view .LVU1705
	str	r2, [sp, #28]
	.loc 1 1607 31 view .LVU1706
	ldr	r2, [r6]
	str	r3, [r2, r1, lsl #2]
	.loc 1 1608 11 is_stmt 1 view .LVU1707
	.loc 1 1608 33 is_stmt 0 view .LVU1708
	ldr	r2, [r6, #12]
	str	r3, [r2, fp, lsl #2]
	.loc 1 1609 11 is_stmt 1 view .LVU1709
.LVL507:
.L441:
	.loc 1 1613 5 view .LVU1710
	.loc 1 1613 7 is_stmt 0 view .LVU1711
	ldr	r3, [sp, #108]
	ldr	r2, [sp, #28]
	cmp	r3, r2
	movcs	r5, #0
	andcc	r5, r5, #1
	cmp	r5, #0
	bne	.L469
	.loc 1 1613 65 is_stmt 1 view .LVU1712
	.loc 1 1616 5 view .LVU1713
	.loc 1 1616 7 is_stmt 0 view .LVU1714
	cmp	r4, #2
	bls	.L449
	.loc 1 1620 10 is_stmt 1 view .LVU1715
	.loc 1 1620 12 is_stmt 0 view .LVU1716
	ldr	r3, [sp, #112]
	cmp	r4, r3
	bcc	.L449
	.loc 1 1620 31 view .LVU1717
	sub	r3, r4, #3
	clz	r3, r3
	ldr	r2, [sp, #28]
	lsr	r3, r3, #5
	cmp	r2, #4096
	movls	r3, #0
	cmp	r3, #0
	bne	.L449
.LVL508:
.L450:
	.loc 1 1620 12 view .LVU1718
	mov	r2, #28
.LVL509:
	.loc 1 1620 12 view .LVU1719
	mov	r1, #1
.L453:
.LVL510:
.LBB1130:
.LBB1131:
.LBB1132:
.LBB1133:
.LBB1134:
	.loc 1 1335 5 is_stmt 1 view .LVU1720
	.loc 1 1336 30 view .LVU1721
	.loc 1 1337 10 view .LVU1722
	.loc 1 1335 24 is_stmt 0 view .LVU1723
	add	r3, r2, r1
	.loc 1 1336 14 view .LVU1724
	ldr	r0, .L553+8
	.loc 1 1335 12 view .LVU1725
	lsr	r3, r3, #1
.LVL511:
	.loc 1 1336 5 is_stmt 1 view .LVU1726
	.loc 1 1336 14 is_stmt 0 view .LVU1727
	add	r0, r0, r3, lsl #2
	.loc 1 1336 8 view .LVU1728
	ldr	r0, [r0, #112]
	cmp	r0, r4
	.loc 1 1336 36 view .LVU1729
	subcs	r2, r3, #1
.LVL512:
	.loc 1 1337 15 view .LVU1730
	addcc	r1, r3, #1
.LVL513:
	.loc 1 1337 15 view .LVU1731
.LBE1134:
	.loc 1 1334 14 is_stmt 1 view .LVU1732
	cmp	r2, r1
	bcs	.L453
	.loc 1 1339 3 view .LVU1733
	.loc 1 1339 5 is_stmt 0 view .LVU1734
	cmp	r1, #29
	bne	.L551
.LVL514:
.L454:
	.loc 1 1339 49 is_stmt 1 view .LVU1735
	.loc 1 1339 53 is_stmt 0 view .LVU1736
	sub	r1, r1, #1
.LVL515:
	.loc 1 1339 53 view .LVU1737
	lsl	r3, r1, #2
.L455:
	.loc 1 1340 3 is_stmt 1 view .LVU1738
.LVL516:
	.loc 1 1340 3 is_stmt 0 view .LVU1739
.LBE1133:
.LBE1132:
	.loc 1 1352 3 is_stmt 1 view .LVU1740
	.loc 1 1352 57 is_stmt 0 view .LVU1741
	ldr	r2, .L553+8
.LBB1136:
.LBB1137:
	.loc 1 1331 10 view .LVU1742
	mov	r7, #1
.LVL517:
	.loc 1 1331 10 view .LVU1743
.LBE1137:
.LBE1136:
	.loc 1 1352 57 view .LVU1744
	add	r3, r2, r3
.LBB1143:
.LBB1139:
	.loc 1 1332 10 view .LVU1745
	mov	r2, #29
.LBE1139:
.LBE1143:
	.loc 1 1352 12 view .LVU1746
	ldr	r3, [r3, #112]
.LBB1144:
.LBB1140:
	.loc 1 1331 10 view .LVU1747
	ldr	ip, [sp, #28]
.LBE1140:
.LBE1144:
	.loc 1 1352 12 view .LVU1748
	sub	r8, r4, r3
.LVL518:
	.loc 1 1353 3 is_stmt 1 view .LVU1749
.LBB1145:
.LBI1136:
	.loc 1 1328 15 view .LVU1750
.LBB1141:
	.loc 1 1331 3 view .LVU1751
	.loc 1 1332 3 view .LVU1752
	.loc 1 1334 3 view .LVU1753
	.loc 1 1334 14 view .LVU1754
.L458:
.LBB1138:
	.loc 1 1335 5 view .LVU1755
	.loc 1 1336 30 view .LVU1756
	.loc 1 1337 10 view .LVU1757
	.loc 1 1335 24 is_stmt 0 view .LVU1758
	add	r3, r2, r7
	.loc 1 1336 14 view .LVU1759
	ldr	r0, .L553+8
	.loc 1 1335 12 view .LVU1760
	lsr	r3, r3, #1
.LVL519:
	.loc 1 1336 5 is_stmt 1 view .LVU1761
	.loc 1 1336 14 is_stmt 0 view .LVU1762
	add	r0, r0, r3, lsl #2
	.loc 1 1336 8 view .LVU1763
	ldr	r0, [r0, #228]
	cmp	r0, ip
	.loc 1 1336 36 view .LVU1764
	subcs	r2, r3, #1
.LVL520:
	.loc 1 1337 15 view .LVU1765
	addcc	r7, r3, #1
.LVL521:
	.loc 1 1337 15 view .LVU1766
.LBE1138:
	.loc 1 1334 14 is_stmt 1 view .LVU1767
	cmp	r2, r7
	bcs	.L458
	.loc 1 1339 3 view .LVU1768
	.loc 1 1339 5 is_stmt 0 view .LVU1769
	cmp	r7, #30
	beq	.L459
	.loc 1 1339 33 view .LVU1770
	ldr	r3, .L553+8
.LVL522:
	.loc 1 1339 25 view .LVU1771
	ldr	r2, [sp, #28]
.LVL523:
	.loc 1 1339 33 view .LVU1772
	add	r3, r3, r7, lsl #2
	.loc 1 1339 25 view .LVU1773
	ldr	r3, [r3, #228]
	cmp	r2, r3
	.loc 1 1339 33 view .LVU1774
	lsl	r3, r7, #2
	.loc 1 1339 25 view .LVU1775
	bcc	.L459
.L460:
	.loc 1 1340 3 is_stmt 1 view .LVU1776
.LVL524:
	.loc 1 1340 3 is_stmt 0 view .LVU1777
.LBE1141:
.LBE1145:
	.loc 1 1354 3 is_stmt 1 view .LVU1778
	.loc 1 1354 63 is_stmt 0 view .LVU1779
	ldr	r2, .L553+8
	.loc 1 1356 3 view .LVU1780
	add	r1, r1, #256
.LVL525:
	.loc 1 1354 63 view .LVU1781
	add	r3, r2, r3
	.loc 1 1354 12 view .LVU1782
	ldr	r5, [r3, #228]
	ldr	r3, [sp, #28]
	.loc 1 1356 3 view .LVU1783
	add	r1, r1, #1
.LVL526:
	.loc 1 1356 3 view .LVU1784
	ldr	r0, [sp, #44]
	.loc 1 1354 12 view .LVU1785
	sub	r5, r3, r5
.LVL527:
	.loc 1 1356 3 is_stmt 1 view .LVU1786
	bl	uivector_push_back
.LVL528:
	.loc 1 1357 3 view .LVU1787
	mov	r1, r8
	ldr	r8, [sp, #44]
.LVL529:
	.loc 1 1357 3 is_stmt 0 view .LVU1788
	mov	r0, r8
	bl	uivector_push_back
.LVL530:
	.loc 1 1358 3 is_stmt 1 view .LVU1789
	mov	r1, r7
	mov	r0, r8
	bl	uivector_push_back
.LVL531:
	.loc 1 1359 3 view .LVU1790
	mov	r1, r5
	mov	r0, r8
	bl	uivector_push_back
.LVL532:
	.loc 1 1359 3 is_stmt 0 view .LVU1791
.LBE1131:
.LBE1130:
	.loc 1 1629 20 is_stmt 1 view .LVU1792
	ldr	r7, [sp, #8]
.LBB1149:
.LBB1150:
	.loc 1 1446 17 is_stmt 0 view .LVU1793
	ldr	r3, [sp, #104]
	add	r5, r9, #1
	add	r3, r7, r3
	add	r8, r7, r9
	str	r9, [sp, #16]
	add	r5, r7, r5
	ldr	r9, [sp, #104]
	str	r3, [sp, #4]
.LVL533:
	.loc 1 1446 17 view .LVU1794
	str	r10, [sp, #12]
	b	.L467
.LVL534:
.L462:
	.loc 1 1446 17 view .LVU1795
.LBE1150:
.LBE1149:
	.loc 1 1637 16 is_stmt 1 view .LVU1796
	.loc 1 1637 23 is_stmt 0 view .LVU1797
	add	r3, r10, fp
	.loc 1 1637 18 view .LVU1798
	cmp	r9, r3
	bcc	.L466
	.loc 1 1637 48 view .LVU1799
	add	r3, r7, r3
	.loc 1 1637 43 view .LVU1800
	ldrb	r3, [r3, #-1]	@ zero_extendqisi2
	cmp	r3, #0
	beq	.L543
.L466:
	.loc 1 1637 75 is_stmt 1 view .LVU1801
	sub	fp, fp, #1
.L543:
.LVL535:
	.loc 1 1643 9 is_stmt 0 view .LVU1802
	uxth	r3, fp
.LVL536:
.L461:
	.loc 1 1643 9 is_stmt 1 view .LVU1803
	mov	r0, r6
	.loc 1 1629 20 is_stmt 0 view .LVU1804
	add	r5, r5, #1
	.loc 1 1643 9 view .LVU1805
	bl	updateHashChain
.LVL537:
	.loc 1 1629 30 is_stmt 1 view .LVU1806
	.loc 1 1629 20 view .LVU1807
	sub	r3, r5, r8
	cmp	r3, r4
	bcs	.L552
.LVL538:
.L467:
	.loc 1 1631 9 view .LVU1808
	sub	r10, r5, r7
.LVL539:
	.loc 1 1632 9 view .LVU1809
	.loc 1 1633 19 is_stmt 0 view .LVU1810
	mov	r2, r10
	mov	r1, r9
	mov	r0, r7
	bl	getHash
.LVL540:
	.loc 1 1634 11 view .LVU1811
	subs	r2, r0, #0
	.loc 1 1641 20 view .LVU1812
	movne	fp, #0
.LVL541:
	.loc 1 1632 14 view .LVU1813
	ldr	r3, [sp, #36]
	and	r1, r3, r10
.LVL542:
	.loc 1 1633 9 is_stmt 1 view .LVU1814
	.loc 1 1634 9 view .LVU1815
	movne	r3, fp
	.loc 1 1634 11 is_stmt 0 view .LVU1816
	bne	.L461
	.loc 1 1636 11 is_stmt 1 view .LVU1817
	.loc 1 1636 13 is_stmt 0 view .LVU1818
	cmp	fp, #0
	bne	.L462
	.loc 1 1636 29 is_stmt 1 view .LVU1819
.LVL543:
.LBB1152:
.LBI1149:
	.loc 1 1442 17 view .LVU1820
.LBB1151:
	.loc 1 1444 3 view .LVU1821
	.loc 1 1445 3 view .LVU1822
	.loc 1 1446 3 view .LVU1823
	ldr	r3, [sp, #4]
	.loc 1 1445 24 is_stmt 0 view .LVU1824
	add	ip, r5, #256
	add	ip, ip, #2
	cmp	ip, r3
	movcs	ip, r3
.LVL544:
	.loc 1 1447 3 is_stmt 1 view .LVU1825
	.loc 1 1448 3 view .LVU1826
	.loc 1 1448 21 view .LVU1827
	cmp	r5, ip
	.loc 1 1447 8 is_stmt 0 view .LVU1828
	moveq	fp, r5
	.loc 1 1448 21 view .LVU1829
	beq	.L464
	mov	r3, r5
	b	.L463
.LVL545:
.L465:
	.loc 1 1448 21 view .LVU1830
	cmp	ip, r3
	.loc 1 1448 36 view .LVU1831
	mov	fp, r3
.LVL546:
	.loc 1 1448 21 is_stmt 1 view .LVU1832
	beq	.L464
.LVL547:
.L463:
	.loc 1 1448 36 view .LVU1833
	mov	fp, r3
.LVL548:
	.loc 1 1448 21 is_stmt 0 view .LVU1834
	ldrb	r0, [fp]	@ zero_extendqisi2
	add	r3, r3, #1
	cmp	r0, #0
	beq	.L465
.LVL549:
.L464:
	.loc 1 1450 3 is_stmt 1 view .LVU1835
	.loc 1 1450 26 is_stmt 0 view .LVU1836
	sub	fp, fp, r5
.LVL550:
	.loc 1 1450 26 view .LVU1837
.LBE1151:
.LBE1152:
	.loc 1 1643 9 view .LVU1838
	uxth	r3, fp
	b	.L461
.LVL551:
.L544:
	.loc 1 1511 25 is_stmt 1 view .LVU1839
.LBB1153:
.LBI1153:
	.loc 1 1442 17 view .LVU1840
.LBB1154:
	.loc 1 1444 3 view .LVU1841
	.loc 1 1444 24 is_stmt 0 view .LVU1842
	ldr	r3, [sp, #8]
	.loc 1 1446 17 view .LVU1843
	ldr	r2, [sp, #104]
	.loc 1 1444 24 view .LVU1844
	add	r8, r3, r9
.LVL552:
	.loc 1 1445 3 is_stmt 1 view .LVU1845
	.loc 1 1446 3 view .LVU1846
	.loc 1 1445 24 is_stmt 0 view .LVU1847
	add	r0, r8, #256
.LVL553:
	.loc 1 1445 24 view .LVU1848
	add	r0, r0, #2
	.loc 1 1446 17 view .LVU1849
	add	r3, r3, r2
	cmp	r0, r3
	movcs	r0, r3
.LVL554:
	.loc 1 1447 3 is_stmt 1 view .LVU1850
	.loc 1 1448 3 view .LVU1851
	.loc 1 1448 21 view .LVU1852
	cmp	r8, r0
	beq	.L478
	mov	r3, r8
	b	.L425
.LVL555:
.L426:
	.loc 1 1448 21 is_stmt 0 view .LVU1853
	cmp	r0, r3
	.loc 1 1448 36 view .LVU1854
	mov	fp, r3
.LVL556:
	.loc 1 1448 21 is_stmt 1 view .LVU1855
	beq	.L424
.LVL557:
.L425:
	.loc 1 1448 36 view .LVU1856
	mov	fp, r3
.LVL558:
	.loc 1 1448 21 is_stmt 0 view .LVU1857
	ldrb	r2, [fp]	@ zero_extendqisi2
	add	r3, r3, #1
	cmp	r2, #0
	beq	.L426
.L424:
	.loc 1 1450 3 is_stmt 1 view .LVU1858
	.loc 1 1450 26 is_stmt 0 view .LVU1859
	sub	fp, fp, r8
.LVL559:
	.loc 1 1450 26 view .LVU1860
.LBE1154:
.LBE1153:
	.loc 1 1519 5 view .LVU1861
	uxth	r3, fp
	b	.L422
.LVL560:
.L549:
	.loc 1 1519 5 view .LVU1862
	ldr	r3, [sp, #28]
	str	r4, [sp, #48]
.LVL561:
	.loc 1 1519 5 view .LVU1863
	str	r3, [sp, #56]
.LVL562:
	.loc 1 1589 14 view .LVU1864
	mov	r3, #1
	str	r3, [sp, #40]
.LVL563:
	.loc 1 1589 14 view .LVU1865
	b	.L443
.LVL564:
.L550:
	.loc 1 1601 11 is_stmt 1 view .LVU1866
	.loc 1 1601 15 is_stmt 0 view .LVU1867
	ldr	r2, [sp, #8]
	ldr	r0, [sp, #44]
	ldrb	r1, [r2, r3]	@ zero_extendqisi2
	bl	uivector_push_back
.LVL565:
	.loc 1 1601 13 view .LVU1868
	cmp	r0, #0
	beq	.L446
.LVL566:
.L445:
	.loc 1 1601 13 view .LVU1869
	mov	r3, #0
	str	r3, [sp, #40]
	b	.L441
.LVL567:
.L551:
.LBB1156:
.LBB1148:
.LBB1146:
.LBB1135:
	.loc 1 1339 33 view .LVU1870
	ldr	r3, .L553+8
.LVL568:
	.loc 1 1339 33 view .LVU1871
	add	r3, r3, r1, lsl #2
	.loc 1 1339 25 view .LVU1872
	ldr	r3, [r3, #112]
	cmp	r4, r3
	.loc 1 1339 33 view .LVU1873
	lsl	r3, r1, #2
	.loc 1 1339 25 view .LVU1874
	bcs	.L455
	b	.L454
.LVL569:
.L459:
	.loc 1 1339 25 view .LVU1875
.LBE1135:
.LBE1146:
.LBB1147:
.LBB1142:
	.loc 1 1339 49 is_stmt 1 view .LVU1876
	.loc 1 1339 53 is_stmt 0 view .LVU1877
	sub	r7, r7, #1
.LVL570:
	.loc 1 1339 53 view .LVU1878
	lsl	r3, r7, #2
	b	.L460
.LVL571:
.L552:
	.loc 1 1339 53 view .LVU1879
	ldr	r9, [sp, #16]
	ldr	r10, [sp, #12]
.LVL572:
	.loc 1 1339 53 view .LVU1880
	sub	r3, r9, #1
.LBE1142:
.LBE1147:
.LBE1148:
.LBE1156:
	.loc 1 1631 9 view .LVU1881
	add	r9, r4, r3
	b	.L443
.LVL573:
.L481:
	.loc 1 1558 24 view .LVU1882
	mov	r4, r2
	ldr	r9, [sp, #24]
	str	r5, [sp, #28]
	b	.L431
.LVL574:
.L545:
	.loc 1 1585 5 is_stmt 1 view .LVU1883
	.loc 1 1585 7 is_stmt 0 view .LVU1884
	ldr	r3, [sp, #120]
	cmp	r3, #0
	beq	.L449
	.loc 1 1587 7 is_stmt 1 view .LVU1885
	.loc 1 1594 7 view .LVU1886
	.loc 1 1594 9 is_stmt 0 view .LVU1887
	ldr	r3, [sp, #40]
	cmp	r3, #0
	beq	.L449
	.loc 1 1596 9 is_stmt 1 view .LVU1888
.LVL575:
	.loc 1 1597 9 view .LVU1889
	.loc 1 1597 11 is_stmt 0 view .LVU1890
	cmp	r9, #0
	beq	.L484
	.loc 1 1597 43 is_stmt 1 view .LVU1891
	.loc 1 1598 9 view .LVU1892
	.loc 1 1601 41 is_stmt 0 view .LVU1893
	sub	r3, r9, #1
	b	.L430
.LVL576:
.L469:
	.loc 1 1613 52 view .LVU1894
	mov	r7, #86
.LVL577:
	.loc 1 1613 52 view .LVU1895
.LBE1161:
	.loc 1 1649 1 view .LVU1896
	mov	r0, r7
	add	sp, sp, #68
	.cfi_remember_state
	.cfi_def_cfa_offset 36
	@ sp needed
	pop	{r4, r5, r6, r7, r8, r9, r10, fp, pc}
.LVL578:
.L446:
	.cfi_restore_state
.LBB1162:
	.loc 1 1601 61 view .LVU1897
	mov	r7, #83
.LVL579:
	.loc 1 1601 61 view .LVU1898
.LBE1162:
	.loc 1 1649 1 view .LVU1899
	mov	r0, r7
	add	sp, sp, #68
	.cfi_remember_state
	.cfi_def_cfa_offset 36
	@ sp needed
	pop	{r4, r5, r6, r7, r8, r9, r10, fp, pc}
.LVL580:
.L478:
	.cfi_restore_state
.LBB1163:
.LBB1157:
.LBB1155:
	.loc 1 1447 8 view .LVU1900
	mov	fp, r8
	b	.L424
.LVL581:
.L484:
	.loc 1 1447 8 view .LVU1901
.LBE1155:
.LBE1157:
	.loc 1 1597 30 view .LVU1902
	mov	r7, #81
.LVL582:
	.loc 1 1597 30 view .LVU1903
	b	.L418
.L554:
	.align	2
.L553:
	.word	258
	.word	257
	.word	.LANCHOR0
.LBE1163:
	.cfi_endproc
.LFE220:
	.size	encodeLZ77.constprop.0, .-encodeLZ77.constprop.0
	.section	.text.string_set,"ax",%progbits
	.align	2
	.syntax unified
	.arm
	.type	string_set, %function
string_set:
.LVL583:
.LFB21:
	.loc 1 305 1 is_stmt 1 view -0
	.cfi_startproc
	@ args = 0, pretend = 0, frame = 0
	@ frame_needed = 0, uses_anonymous_args = 0
	.loc 1 305 1 is_stmt 0 view .LVU1905
	push	{r4, r5, r6, lr}
	.cfi_def_cfa_offset 16
	.cfi_offset 4, -16
	.cfi_offset 5, -12
	.cfi_offset 6, -8
	.cfi_offset 14, -4
	.loc 1 305 1 view .LVU1906
	mov	r5, r0
	.loc 1 306 3 is_stmt 1 view .LVU1907
	.loc 1 306 19 is_stmt 0 view .LVU1908
	mov	r0, r1
.LVL584:
	.loc 1 305 1 view .LVU1909
	mov	r4, r1
	.loc 1 306 19 view .LVU1910
	bl	strlen
.LVL585:
	.loc 1 306 19 view .LVU1911
	mov	r6, r0
.LBB1168:
.LBB1169:
.LBB1170:
.LBB1171:
	.loc 1 70 10 view .LVU1912
	ldr	r0, [r5]
.LVL586:
	.loc 1 70 10 view .LVU1913
.LBE1171:
.LBE1170:
.LBE1169:
.LBE1168:
	.loc 1 307 3 is_stmt 1 view .LVU1914
.LBB1176:
.LBI1168:
	.loc 1 279 17 view .LVU1915
.LBB1174:
	.loc 1 281 3 view .LVU1916
.LBB1173:
.LBI1170:
	.loc 1 68 14 view .LVU1917
.LBB1172:
	.loc 1 70 3 view .LVU1918
	.loc 1 70 10 is_stmt 0 view .LVU1919
	add	r1, r6, #1
.LVL587:
	.loc 1 70 10 view .LVU1920
	bl	realloc
.LVL588:
	.loc 1 70 10 view .LVU1921
.LBE1172:
.LBE1173:
	.loc 1 282 3 is_stmt 1 view .LVU1922
	.loc 1 282 5 is_stmt 0 view .LVU1923
	cmp	r0, #0
	.loc 1 282 5 view .LVU1924
	popeq	{r4, r5, r6, pc}
	.loc 1 284 5 is_stmt 1 view .LVU1925
	.loc 1 284 16 is_stmt 0 view .LVU1926
	mov	r3, #0
.LBE1174:
.LBE1176:
	.loc 1 309 18 view .LVU1927
	cmp	r6, r3
.LBB1177:
.LBB1175:
	.loc 1 284 16 view .LVU1928
	strb	r3, [r0, r6]
	.loc 1 285 5 is_stmt 1 view .LVU1929
	.loc 1 285 10 is_stmt 0 view .LVU1930
	str	r0, [r5]
	.loc 1 287 3 is_stmt 1 view .LVU1931
.LVL589:
	.loc 1 287 3 is_stmt 0 view .LVU1932
.LBE1175:
.LBE1177:
	.loc 1 309 18 is_stmt 1 view .LVU1933
	popeq	{r4, r5, r6, pc}
	.loc 1 311 7 view .LVU1934
	.loc 1 311 21 is_stmt 0 view .LVU1935
	ldrb	r3, [r4]	@ zero_extendqisi2
	.loc 1 309 18 view .LVU1936
	cmp	r6, #1
	.loc 1 311 17 view .LVU1937
	strb	r3, [r0]
	.loc 1 309 29 is_stmt 1 view .LVU1938
.LVL590:
	.loc 1 309 18 view .LVU1939
	popeq	{r4, r5, r6, pc}
	mov	r3, r4
	sub	r4, r4, #1
.LVL591:
	.loc 1 309 18 is_stmt 0 view .LVU1940
	add	r4, r4, r6
	rsb	ip, r3, #1
.LVL592:
.L558:
	.loc 1 311 7 is_stmt 1 view .LVU1941
	.loc 1 311 13 is_stmt 0 view .LVU1942
	add	r2, ip, r3
	.loc 1 311 21 view .LVU1943
	ldrb	r0, [r3, #1]!	@ zero_extendqisi2
.LVL593:
	.loc 1 311 13 view .LVU1944
	ldr	r1, [r5]
	.loc 1 309 18 view .LVU1945
	cmp	r3, r4
	.loc 1 311 17 view .LVU1946
	strb	r0, [r1, r2]
	.loc 1 309 29 is_stmt 1 view .LVU1947
.LVL594:
	.loc 1 309 18 view .LVU1948
	bne	.L558
	pop	{r4, r5, r6, pc}
	.cfi_endproc
.LFE21:
	.size	string_set, .-string_set
	.section	.text.ucvector_push_back.isra.0,"ax",%progbits
	.align	2
	.syntax unified
	.arm
	.type	ucvector_push_back.isra.0, %function
ucvector_push_back.isra.0:
.LVL595:
.LFB221:
	.loc 1 265 17 view -0
	.cfi_startproc
	@ args = 0, pretend = 0, frame = 0
	@ frame_needed = 0, uses_anonymous_args = 0
	.loc 1 267 3 view .LVU1950
	.loc 1 265 17 is_stmt 0 view .LVU1951
	push	{r4, r5, r6, r7, r8, lr}
	.cfi_def_cfa_offset 24
	.cfi_offset 4, -24
	.cfi_offset 5, -20
	.cfi_offset 6, -16
	.cfi_offset 7, -12
	.cfi_offset 8, -8
	.cfi_offset 14, -4
	.loc 1 267 27 view .LVU1952
	ldr	r7, [r0, #4]
.LBB1189:
.LBB1190:
.LBB1191:
.LBB1192:
	.loc 1 215 19 view .LVU1953
	ldr	r3, [r0, #8]
.LBE1192:
.LBE1191:
.LBE1190:
.LBE1189:
	.loc 1 267 7 view .LVU1954
	add	r5, r7, #1
.LVL596:
.LBB1203:
.LBI1189:
	.loc 1 230 17 is_stmt 1 view .LVU1955
.LBB1201:
	.loc 1 232 3 view .LVU1956
.LBB1199:
.LBI1191:
	.loc 1 213 17 view .LVU1957
.LBB1197:
	.loc 1 215 3 view .LVU1958
	.loc 1 215 5 is_stmt 0 view .LVU1959
	cmp	r5, r3
.LBE1197:
.LBE1199:
.LBE1201:
.LBE1203:
	.loc 1 265 17 view .LVU1960
	mov	r4, r0
	mov	r6, r1
.LBB1204:
.LBB1202:
.LBB1200:
.LBB1198:
.LBB1193:
	.loc 1 218 35 view .LVU1961
	ldr	r0, [r0]
.LVL597:
	.loc 1 218 35 view .LVU1962
.LBE1193:
	.loc 1 215 5 view .LVU1963
	bls	.L569
.LBB1196:
	.loc 1 217 5 is_stmt 1 view .LVU1964
	.loc 1 217 65 is_stmt 0 view .LVU1965
	cmp	r5, r3, lsl #1
	movhi	r8, r5
	.loc 1 217 78 view .LVU1966
	addls	r8, r5, r5, lsl #1
	.loc 1 217 65 view .LVU1967
	lsrls	r8, r8, #1
.LVL598:
	.loc 1 218 5 is_stmt 1 view .LVU1968
.LBB1194:
.LBI1194:
	.loc 1 68 14 view .LVU1969
.LBB1195:
	.loc 1 70 3 view .LVU1970
	.loc 1 70 10 is_stmt 0 view .LVU1971
	mov	r1, r8
.LVL599:
	.loc 1 70 10 view .LVU1972
	bl	realloc
.LVL600:
	.loc 1 70 10 view .LVU1973
.LBE1195:
.LBE1194:
	.loc 1 219 5 is_stmt 1 view .LVU1974
	.loc 1 219 7 is_stmt 0 view .LVU1975
	cmp	r0, #0
	.loc 1 219 7 view .LVU1976
	popeq	{r4, r5, r6, r7, r8, pc}
	.loc 1 221 7 is_stmt 1 view .LVU1977
	.loc 1 221 20 is_stmt 0 view .LVU1978
	str	r8, [r4, #8]
	.loc 1 222 7 is_stmt 1 view .LVU1979
	.loc 1 222 15 is_stmt 0 view .LVU1980
	str	r0, [r4]
.LVL601:
.L569:
	.loc 1 222 15 view .LVU1981
.LBE1196:
.LBE1198:
.LBE1200:
	.loc 1 233 3 is_stmt 1 view .LVU1982
	.loc 1 233 11 is_stmt 0 view .LVU1983
	str	r5, [r4, #4]
	.loc 1 234 3 is_stmt 1 view .LVU1984
.LVL602:
	.loc 1 234 3 is_stmt 0 view .LVU1985
.LBE1202:
.LBE1204:
	.loc 1 268 3 is_stmt 1 view .LVU1986
	.loc 1 268 24 is_stmt 0 view .LVU1987
	strb	r6, [r0, r7]
	.loc 1 269 3 is_stmt 1 view .LVU1988
	.loc 1 270 1 is_stmt 0 view .LVU1989
	pop	{r4, r5, r6, r7, r8, pc}
	.cfi_endproc
.LFE221:
	.size	ucvector_push_back.isra.0, .-ucvector_push_back.isra.0
	.section	.text.addBitsToStreamReversed,"ax",%progbits
	.align	2
	.syntax unified
	.arm
	.type	addBitsToStreamReversed, %function
addBitsToStreamReversed:
.LVL603:
.LFB30:
	.loc 1 437 1 is_stmt 1 view -0
	.cfi_startproc
	@ args = 0, pretend = 0, frame = 0
	@ frame_needed = 0, uses_anonymous_args = 0
	.loc 1 439 16 is_stmt 0 view .LVU1991
	cmp	r3, #0
	.loc 1 438 3 is_stmt 1 view .LVU1992
	.loc 1 439 3 view .LVU1993
.LVL604:
	.loc 1 439 16 view .LVU1994
	bxeq	lr
	.loc 1 437 1 is_stmt 0 view .LVU1995
	push	{r4, r5, r6, r7, r8, lr}
	.cfi_def_cfa_offset 24
	.cfi_offset 4, -24
	.cfi_offset 5, -20
	.cfi_offset 6, -16
	.cfi_offset 7, -12
	.cfi_offset 8, -8
	.cfi_offset 14, -4
	mov	r7, r1
	mov	r5, r0
	mov	r6, r2
	.loc 1 439 38 view .LVU1996
	ldr	r1, [r0]
.LVL605:
	.loc 1 439 38 view .LVU1997
	sub	r4, r3, #1
	b	.L580
.LVL606:
.L579:
	.loc 1 439 111 is_stmt 1 discriminator 4 view .LVU1998
	.loc 1 439 127 is_stmt 0 discriminator 4 view .LVU1999
	ldm	r7, {r0, r3}
	sub	r3, r3, #1
	.loc 1 439 150 discriminator 4 view .LVU2000
	ldrb	ip, [r0, r3]	@ zero_extendqisi2
	.loc 1 439 177 discriminator 4 view .LVU2001
	lsr	r2, r6, r4
	.loc 1 439 154 discriminator 4 view .LVU2002
	and	r2, r2, #1
	.loc 1 439 150 discriminator 4 view .LVU2003
	orr	ip, ip, r2, lsl r1
	strb	ip, [r0, r3]
	.loc 1 439 229 is_stmt 1 discriminator 4 view .LVU2004
	ldr	r1, [r5]
	.loc 1 439 16 is_stmt 0 discriminator 4 view .LVU2005
	sub	r4, r4, #1
.LVL607:
	.loc 1 439 229 discriminator 4 view .LVU2006
	add	r1, r1, #1
	.loc 1 439 16 discriminator 4 view .LVU2007
	cmn	r4, #1
	.loc 1 439 229 discriminator 4 view .LVU2008
	str	r1, [r5]
	.loc 1 439 26 is_stmt 1 discriminator 4 view .LVU2009
.LVL608:
	.loc 1 439 16 discriminator 4 view .LVU2010
	popeq	{r4, r5, r6, r7, r8, pc}
.L580:
.LVL609:
	.loc 1 439 33 discriminator 6 view .LVU2011
	.loc 1 439 35 is_stmt 0 discriminator 6 view .LVU2012
	ands	r1, r1, #7
	bne	.L579
	.loc 1 439 62 is_stmt 1 discriminator 2 view .LVU2013
	mov	r0, r7
	bl	ucvector_push_back.isra.0
.LVL610:
	.loc 1 439 220 is_stmt 0 discriminator 2 view .LVU2014
	ldr	r1, [r5]
	and	r1, r1, #7
	b	.L579
	.cfi_endproc
.LFE30:
	.size	addBitsToStreamReversed, .-addBitsToStreamReversed
	.section	.text.addBitsToStream,"ax",%progbits
	.align	2
	.syntax unified
	.arm
	.type	addBitsToStream, %function
addBitsToStream:
.LVL611:
.LFB29:
	.loc 1 431 1 is_stmt 1 view -0
	.cfi_startproc
	@ args = 0, pretend = 0, frame = 0
	@ frame_needed = 0, uses_anonymous_args = 0
	.loc 1 432 3 view .LVU2016
	.loc 1 433 3 view .LVU2017
	.loc 1 433 16 view .LVU2018
	.loc 1 431 1 is_stmt 0 view .LVU2019
	push	{r4, r5, r6, r7, r8, lr}
	.cfi_def_cfa_offset 24
	.cfi_offset 4, -24
	.cfi_offset 5, -20
	.cfi_offset 6, -16
	.cfi_offset 7, -12
	.cfi_offset 8, -8
	.cfi_offset 14, -4
	.loc 1 433 16 view .LVU2020
	subs	r6, r3, #0
	popeq	{r4, r5, r6, r7, r8, pc}
	mov	r8, r1
	mov	r5, r0
	mov	r7, r2
	.loc 1 433 9 view .LVU2021
	mov	r4, #0
	.loc 1 433 38 view .LVU2022
	ldr	r1, [r0]
.LVL612:
	.loc 1 433 38 view .LVU2023
	b	.L590
.LVL613:
.L589:
	.loc 1 433 111 is_stmt 1 discriminator 4 view .LVU2024
	.loc 1 433 127 is_stmt 0 discriminator 4 view .LVU2025
	ldm	r8, {r0, ip}
	sub	ip, ip, #1
	.loc 1 433 150 discriminator 4 view .LVU2026
	ldrb	r3, [r0, ip]	@ zero_extendqisi2
	.loc 1 433 177 discriminator 4 view .LVU2027
	lsr	r2, r7, r4
	.loc 1 433 154 discriminator 4 view .LVU2028
	and	r2, r2, #1
	.loc 1 433 150 discriminator 4 view .LVU2029
	orr	r3, r3, r2, lsl r1
	strb	r3, [r0, ip]
	.loc 1 433 215 is_stmt 1 discriminator 4 view .LVU2030
	ldr	r1, [r5]
	.loc 1 433 26 is_stmt 0 discriminator 4 view .LVU2031
	add	r4, r4, #1
.LVL614:
	.loc 1 433 215 discriminator 4 view .LVU2032
	add	r1, r1, #1
	.loc 1 433 16 discriminator 4 view .LVU2033
	cmp	r6, r4
	.loc 1 433 215 discriminator 4 view .LVU2034
	str	r1, [r5]
	.loc 1 433 26 is_stmt 1 discriminator 4 view .LVU2035
.LVL615:
	.loc 1 433 16 discriminator 4 view .LVU2036
	popeq	{r4, r5, r6, r7, r8, pc}
.LVL616:
.L590:
	.loc 1 433 33 discriminator 6 view .LVU2037
	.loc 1 433 35 is_stmt 0 discriminator 6 view .LVU2038
	ands	r1, r1, #7
	bne	.L589
	.loc 1 433 62 is_stmt 1 discriminator 2 view .LVU2039
	mov	r0, r8
	bl	ucvector_push_back.isra.0
.LVL617:
	.loc 1 433 206 is_stmt 0 discriminator 2 view .LVU2040
	ldr	r1, [r5]
	and	r1, r1, #7
	b	.L589
	.cfi_endproc
.LFE29:
	.size	addBitsToStream, .-addBitsToStream
	.section	.text.writeLZ77data,"ax",%progbits
	.align	2
	.syntax unified
	.arm
	.type	writeLZ77data, %function
writeLZ77data:
.LVL618:
.LFB65:
	.loc 1 1697 1 is_stmt 1 view -0
	.cfi_startproc
	@ args = 4, pretend = 0, frame = 8
	@ frame_needed = 0, uses_anonymous_args = 0
	.loc 1 1698 3 view .LVU2042
	.loc 1 1699 3 view .LVU2043
	.loc 1 1699 16 view .LVU2044
	.loc 1 1697 1 is_stmt 0 view .LVU2045
	push	{r4, r5, r6, r7, r8, r9, r10, fp, lr}
	.cfi_def_cfa_offset 36
	.cfi_offset 4, -36
	.cfi_offset 5, -32
	.cfi_offset 6, -28
	.cfi_offset 7, -24
	.cfi_offset 8, -20
	.cfi_offset 9, -16
	.cfi_offset 10, -12
	.cfi_offset 11, -8
	.cfi_offset 14, -4
	mov	r6, r3
	.loc 1 1699 16 view .LVU2046
	ldr	r3, [r2, #4]
.LVL619:
	.loc 1 1697 1 view .LVU2047
	sub	sp, sp, #12
	.cfi_def_cfa_offset 48
	.loc 1 1699 16 view .LVU2048
	cmp	r3, #0
	.loc 1 1697 1 view .LVU2049
	ldr	r8, [sp, #48]
	.loc 1 1699 16 view .LVU2050
	beq	.L594
	mov	r5, r2
	mov	r10, r0
	mov	fp, r1
	.loc 1 1699 9 view .LVU2051
	mov	r4, #0
.LBB1205:
.LBB1206:
	.loc 1 1712 16 view .LVU2052
	ldr	r9, .L601
	b	.L595
.LVL620:
.L596:
	.loc 1 1712 16 view .LVU2053
.LBE1206:
.LBE1205:
	.loc 1 1699 39 is_stmt 1 discriminator 2 view .LVU2054
	.loc 1 1699 16 is_stmt 0 discriminator 2 view .LVU2055
	ldr	r3, [r5, #4]
	.loc 1 1699 39 discriminator 2 view .LVU2056
	add	r4, r4, #1
.LVL621:
	.loc 1 1699 16 is_stmt 1 discriminator 2 view .LVU2057
	cmp	r3, r4
	beq	.L594
.LVL622:
.L595:
.LBB1232:
	.loc 1 1701 5 view .LVU2058
	.loc 1 1701 14 is_stmt 0 view .LVU2059
	ldr	r2, [r5]
.LBB1219:
.LBB1220:
	.loc 1 903 23 view .LVU2060
	ldr	r3, [r6, #8]
.LBE1220:
.LBE1219:
	.loc 1 1701 14 view .LVU2061
	ldr	r7, [r2, r4, lsl #2]
.LVL623:
	.loc 1 1702 5 is_stmt 1 view .LVU2062
.LBB1222:
.LBI1222:
	.loc 1 896 17 view .LVU2063
.LBB1223:
	.loc 1 898 3 view .LVU2064
	.loc 1 898 3 is_stmt 0 view .LVU2065
.LBE1223:
.LBE1222:
.LBB1225:
.LBI1219:
	.loc 1 901 17 is_stmt 1 view .LVU2066
.LBB1221:
	.loc 1 903 3 view .LVU2067
	.loc 1 903 3 is_stmt 0 view .LVU2068
.LBE1221:
.LBE1225:
.LBB1226:
.LBI1226:
	.loc 1 1321 13 is_stmt 1 view .LVU2069
.LBB1227:
	.loc 1 1323 3 view .LVU2070
.LBE1227:
.LBE1226:
.LBB1229:
.LBB1224:
	.loc 1 898 22 is_stmt 0 view .LVU2071
	ldr	r2, [r6, #4]
.LBE1224:
.LBE1229:
.LBB1230:
.LBB1228:
	.loc 1 1323 3 view .LVU2072
	mov	r1, fp
	ldr	r2, [r2, r7, lsl #2]
	mov	r0, r10
	ldr	r3, [r3, r7, lsl #2]
.LVL624:
	.loc 1 1323 3 view .LVU2073
	bl	addBitsToStreamReversed
.LVL625:
	.loc 1 1323 3 view .LVU2074
.LBE1228:
.LBE1230:
	.loc 1 1703 5 is_stmt 1 view .LVU2075
	.loc 1 1703 7 is_stmt 0 view .LVU2076
	cmp	r7, #256
	.loc 1 1701 38 view .LVU2077
	lsl	r2, r4, #2
	.loc 1 1703 7 view .LVU2078
	bls	.L596
.LBB1231:
	.loc 1 1705 7 is_stmt 1 view .LVU2079
.LVL626:
	.loc 1 1706 7 view .LVU2080
	.loc 1 1707 7 view .LVU2081
	.loc 1 1707 48 is_stmt 0 view .LVU2082
	ldr	ip, [r5]
.LVL627:
	.loc 1 1709 7 is_stmt 1 view .LVU2083
	.loc 1 1706 16 is_stmt 0 view .LVU2084
	sub	r3, r7, #256
	.loc 1 1709 16 view .LVU2085
	add	ip, ip, r2
.LVL628:
	.loc 1 1709 16 view .LVU2086
	ldr	r7, [ip, #8]
.LVL629:
	.loc 1 1711 7 is_stmt 1 view .LVU2087
	.loc 1 1712 7 view .LVU2088
	.loc 1 1713 7 view .LVU2089
	.loc 1 1706 16 is_stmt 0 view .LVU2090
	sub	r3, r3, #1
.LVL630:
	.loc 1 1712 16 view .LVU2091
	add	r2, r9, r7, lsl #2
.LVL631:
	.loc 1 1712 16 view .LVU2092
	ldr	r2, [r2, #348]
	.loc 1 1706 16 view .LVU2093
	add	r3, r9, r3, lsl #2
.LVL632:
	.loc 1 1712 16 view .LVU2094
	str	r2, [sp]
.LVL633:
	.loc 1 1715 7 view .LVU2095
	ldr	r2, [ip, #4]
	.loc 1 1713 16 view .LVU2096
	ldr	ip, [ip, #12]
	.loc 1 1715 7 view .LVU2097
	mov	r1, fp
	mov	r0, r10
	ldr	r3, [r3, #468]
	.loc 1 1713 16 view .LVU2098
	str	ip, [sp, #4]
	.loc 1 1715 7 view .LVU2099
	bl	addBitsToStream
.LVL634:
.LBB1207:
.LBB1208:
	.loc 1 903 23 view .LVU2100
	ldr	r3, [r8, #8]
.LBE1208:
.LBE1207:
.LBB1210:
.LBB1211:
	.loc 1 898 22 view .LVU2101
	ldr	r2, [r8, #4]
.LBE1211:
.LBE1210:
.LBB1213:
.LBB1214:
	.loc 1 1323 3 view .LVU2102
	mov	r1, fp
	mov	r0, r10
	ldr	r3, [r3, r7, lsl #2]
	ldr	r2, [r2, r7, lsl #2]
	bl	addBitsToStreamReversed
.LVL635:
.LBE1214:
.LBE1213:
	.loc 1 1718 7 view .LVU2103
	ldr	r3, [sp]
	mov	r1, fp
	mov	r0, r10
	ldr	r2, [sp, #4]
	bl	addBitsToStream
.LVL636:
	.loc 1 1713 16 view .LVU2104
	add	r4, r4, #3
.LVL637:
	.loc 1 1715 7 is_stmt 1 view .LVU2105
	.loc 1 1716 7 view .LVU2106
.LBB1216:
.LBI1210:
	.loc 1 896 17 view .LVU2107
.LBB1212:
	.loc 1 898 3 view .LVU2108
	.loc 1 898 3 is_stmt 0 view .LVU2109
.LBE1212:
.LBE1216:
.LBB1217:
.LBI1207:
	.loc 1 901 17 is_stmt 1 view .LVU2110
.LBB1209:
	.loc 1 903 3 view .LVU2111
	.loc 1 903 3 is_stmt 0 view .LVU2112
.LBE1209:
.LBE1217:
.LBB1218:
.LBI1213:
	.loc 1 1321 13 is_stmt 1 view .LVU2113
.LBB1215:
	.loc 1 1323 3 view .LVU2114
	.loc 1 1323 3 is_stmt 0 view .LVU2115
.LBE1215:
.LBE1218:
	.loc 1 1718 7 is_stmt 1 view .LVU2116
	.loc 1 1718 7 is_stmt 0 view .LVU2117
.LBE1231:
.LBE1232:
	.loc 1 1699 39 is_stmt 1 view .LVU2118
	.loc 1 1699 16 is_stmt 0 view .LVU2119
	ldr	r3, [r5, #4]
	.loc 1 1699 39 view .LVU2120
	add	r4, r4, #1
.LVL638:
	.loc 1 1699 16 is_stmt 1 view .LVU2121
	cmp	r3, r4
	bne	.L595
.LVL639:
.L594:
	.loc 1 1721 1 is_stmt 0 view .LVU2122
	add	sp, sp, #12
	.cfi_def_cfa_offset 36
	@ sp needed
	pop	{r4, r5, r6, r7, r8, r9, r10, fp, pc}
.LVL640:
.L602:
	.loc 1 1721 1 view .LVU2123
	.align	2
.L601:
	.word	.LANCHOR0
	.cfi_endproc
.LFE65:
	.size	writeLZ77data, .-writeLZ77data
	.section	.text.color_tree_cleanup,"ax",%progbits
	.align	2
	.syntax unified
	.arm
	.type	color_tree_cleanup, %function
color_tree_cleanup:
.LVL641:
.LFB136:
	.loc 1 3014 1 is_stmt 1 view -0
	.cfi_startproc
	@ args = 0, pretend = 0, frame = 40
	@ frame_needed = 0, uses_anonymous_args = 0
	.loc 1 3015 3 view .LVU2125
	.loc 1 3016 3 view .LVU2126
	.loc 1 3016 16 view .LVU2127
	.loc 1 3014 1 is_stmt 0 view .LVU2128
	push	{r4, r5, r6, r7, r8, r9, r10, fp, lr}
	.cfi_def_cfa_offset 36
	.cfi_offset 4, -36
	.cfi_offset 5, -32
	.cfi_offset 6, -28
	.cfi_offset 7, -24
	.cfi_offset 8, -20
	.cfi_offset 9, -16
	.cfi_offset 10, -12
	.cfi_offset 11, -8
	.cfi_offset 14, -4
	add	r10, r0, #60
	mov	r8, r10
	sub	sp, sp, #44
	.cfi_def_cfa_offset 80
	sub	r9, r0, #4
.LVL642:
.L621:
	.loc 1 3018 5 is_stmt 1 view .LVU2129
	.loc 1 3018 22 is_stmt 0 view .LVU2130
	ldr	r3, [r9, #4]!
	.loc 1 3018 7 view .LVU2131
	cmp	r3, #0
	beq	.L604
	sub	r4, r3, #4
	add	r5, r3, #60
.L620:
.LBB1269:
.LBB1270:
	.loc 1 3018 5 is_stmt 1 view .LVU2132
	.loc 1 3018 22 is_stmt 0 view .LVU2133
	ldr	r3, [r4, #4]!
	.loc 1 3018 7 view .LVU2134
	cmp	r3, #0
	beq	.L605
	mov	r7, r4
	sub	r10, r3, #4
	add	r6, r3, #60
.L619:
.LBB1271:
.LBB1272:
	.loc 1 3018 5 is_stmt 1 view .LVU2135
	.loc 1 3018 22 is_stmt 0 view .LVU2136
	ldr	r3, [r10, #4]!
	.loc 1 3018 7 view .LVU2137
	cmp	r3, #0
	beq	.L606
	str	r10, [sp, #20]
	mov	r10, r9
	sub	fp, r3, #4
	add	r3, r3, #60
	str	r3, [sp, #16]
.L618:
.LBB1273:
.LBB1274:
	.loc 1 3018 5 is_stmt 1 view .LVU2138
	.loc 1 3018 22 is_stmt 0 view .LVU2139
	ldr	r3, [fp, #4]!
	.loc 1 3018 7 view .LVU2140
	cmp	r3, #0
	beq	.L607
	sub	r9, r3, #4
	add	r3, r3, #60
	str	r3, [sp, #12]
	str	fp, [sp, #24]
.L617:
.LBB1275:
.LBB1276:
	.loc 1 3018 5 is_stmt 1 view .LVU2141
	.loc 1 3018 22 is_stmt 0 view .LVU2142
	ldr	r3, [r9, #4]!
	.loc 1 3018 7 view .LVU2143
	cmp	r3, #0
	beq	.L608
	str	r9, [sp, #28]
	mov	r9, r5
	sub	fp, r3, #4
	add	r3, r3, #60
	str	r3, [sp, #8]
.L616:
.LBB1277:
.LBB1278:
	.loc 1 3018 5 is_stmt 1 view .LVU2144
	.loc 1 3018 22 is_stmt 0 view .LVU2145
	ldr	r3, [fp, #4]!
	.loc 1 3018 7 view .LVU2146
	cmp	r3, #0
	beq	.L609
	sub	r5, r3, #4
	mov	r4, r5
	add	r3, r3, #60
	str	r3, [sp, #4]
.L615:
.LBB1279:
.LBB1280:
	.loc 1 3018 5 is_stmt 1 view .LVU2147
	.loc 1 3018 22 is_stmt 0 view .LVU2148
	ldr	r3, [r4, #4]!
	.loc 1 3018 7 view .LVU2149
	cmp	r3, #0
	beq	.L610
	sub	r5, r3, #4
	str	r4, [sp, #32]
	mov	r4, r5
	add	r3, r3, #60
	str	r3, [sp]
.L614:
.LBB1281:
.LBB1282:
	.loc 1 3018 5 is_stmt 1 view .LVU2150
	.loc 1 3018 22 is_stmt 0 view .LVU2151
	ldr	r3, [r4, #4]!
	.loc 1 3018 7 view .LVU2152
	cmp	r3, #0
	beq	.L611
	sub	r5, r3, #4
	add	r3, r3, #60
	str	r8, [sp, #36]
	mov	r8, r7
	mov	r7, r6
	mov	r6, r4
	mov	r4, r3
.L613:
.LBB1283:
.LBB1284:
	.loc 1 3018 5 is_stmt 1 view .LVU2153
	.loc 1 3020 7 view .LVU2154
	.loc 1 3018 22 is_stmt 0 view .LVU2155
	ldr	r0, [r5, #4]!
	.loc 1 3018 7 view .LVU2156
	cmp	r0, #0
	beq	.L612
	.loc 1 3020 7 view .LVU2157
	bl	color_tree_cleanup
.LVL643:
	.loc 1 3021 7 is_stmt 1 view .LVU2158
.LBB1285:
.LBI1285:
	.loc 1 73 13 view .LVU2159
.LBB1286:
	.loc 1 75 3 view .LVU2160
	ldr	r0, [r5]
	bl	free
.LVL644:
.L612:
	.loc 1 75 3 is_stmt 0 view .LVU2161
.LBE1286:
.LBE1285:
	.loc 1 3016 23 is_stmt 1 view .LVU2162
	.loc 1 3016 16 view .LVU2163
	cmp	r5, r4
	bne	.L613
.LBE1284:
.LBE1283:
	.loc 1 3021 7 view .LVU2164
.LBB1287:
.LBB1288:
	.loc 1 75 3 is_stmt 0 view .LVU2165
	mov	r4, r6
.LVL645:
	.loc 1 75 3 view .LVU2166
.LBE1288:
.LBI1287:
	.loc 1 73 13 is_stmt 1 view .LVU2167
.LBB1289:
	.loc 1 75 3 view .LVU2168
	ldr	r0, [r4]
	mov	r6, r7
	mov	r7, r8
	ldr	r8, [sp, #36]
	bl	free
.LVL646:
.L611:
	.loc 1 75 3 is_stmt 0 view .LVU2169
.LBE1289:
.LBE1287:
	.loc 1 3016 23 is_stmt 1 view .LVU2170
	.loc 1 3016 16 view .LVU2171
	ldr	r3, [sp]
	cmp	r4, r3
	bne	.L614
.LBE1282:
.LBE1281:
	.loc 1 3021 7 view .LVU2172
.LBB1290:
.LBB1291:
	.loc 1 75 3 is_stmt 0 view .LVU2173
	ldr	r4, [sp, #32]
.LVL647:
	.loc 1 75 3 view .LVU2174
.LBE1291:
.LBI1290:
	.loc 1 73 13 is_stmt 1 view .LVU2175
.LBB1292:
	.loc 1 75 3 view .LVU2176
	ldr	r0, [r4]
	bl	free
.LVL648:
.L610:
	.loc 1 75 3 is_stmt 0 view .LVU2177
.LBE1292:
.LBE1290:
	.loc 1 3016 23 is_stmt 1 view .LVU2178
	.loc 1 3016 16 view .LVU2179
	ldr	r3, [sp, #4]
	cmp	r3, r4
	bne	.L615
.LBE1280:
.LBE1279:
	.loc 1 3021 7 view .LVU2180
.LVL649:
.LBB1293:
.LBI1293:
	.loc 1 73 13 view .LVU2181
.LBB1294:
	.loc 1 75 3 view .LVU2182
	ldr	r0, [fp]
	bl	free
.LVL650:
.L609:
	.loc 1 75 3 is_stmt 0 view .LVU2183
.LBE1294:
.LBE1293:
	.loc 1 3016 23 is_stmt 1 view .LVU2184
	.loc 1 3016 16 view .LVU2185
	ldr	r3, [sp, #8]
	cmp	fp, r3
	bne	.L616
.LBE1278:
.LBE1277:
	.loc 1 3021 7 view .LVU2186
.LBB1295:
.LBB1296:
	.loc 1 75 3 is_stmt 0 view .LVU2187
	mov	r5, r9
	ldr	r9, [sp, #28]
.LVL651:
	.loc 1 75 3 view .LVU2188
.LBE1296:
.LBI1295:
	.loc 1 73 13 is_stmt 1 view .LVU2189
.LBB1297:
	.loc 1 75 3 view .LVU2190
	ldr	r0, [r9]
	bl	free
.LVL652:
.L608:
	.loc 1 75 3 is_stmt 0 view .LVU2191
.LBE1297:
.LBE1295:
	.loc 1 3016 23 is_stmt 1 view .LVU2192
	.loc 1 3016 16 view .LVU2193
	ldr	r3, [sp, #12]
	cmp	r9, r3
	bne	.L617
.LBE1276:
.LBE1275:
	.loc 1 3021 7 view .LVU2194
.LBB1298:
.LBB1299:
	.loc 1 75 3 is_stmt 0 view .LVU2195
	ldr	fp, [sp, #24]
.LVL653:
	.loc 1 75 3 view .LVU2196
.LBE1299:
.LBI1298:
	.loc 1 73 13 is_stmt 1 view .LVU2197
.LBB1300:
	.loc 1 75 3 view .LVU2198
	ldr	r0, [fp]
	bl	free
.LVL654:
.L607:
	.loc 1 75 3 is_stmt 0 view .LVU2199
.LBE1300:
.LBE1298:
	.loc 1 3016 23 is_stmt 1 view .LVU2200
	.loc 1 3016 16 view .LVU2201
	ldr	r3, [sp, #16]
	cmp	fp, r3
	bne	.L618
.LBE1274:
.LBE1273:
	.loc 1 3021 7 view .LVU2202
.LBB1301:
.LBB1302:
	.loc 1 75 3 is_stmt 0 view .LVU2203
	mov	r9, r10
	ldr	r10, [sp, #20]
.LVL655:
	.loc 1 75 3 view .LVU2204
.LBE1302:
.LBI1301:
	.loc 1 73 13 is_stmt 1 view .LVU2205
.LBB1303:
	.loc 1 75 3 view .LVU2206
	ldr	r0, [r10]
	bl	free
.LVL656:
.L606:
	.loc 1 75 3 is_stmt 0 view .LVU2207
.LBE1303:
.LBE1301:
	.loc 1 3016 23 is_stmt 1 view .LVU2208
	.loc 1 3016 16 view .LVU2209
	cmp	r10, r6
	bne	.L619
.LBE1272:
.LBE1271:
	.loc 1 3021 7 view .LVU2210
.LVL657:
.LBB1304:
.LBI1304:
	.loc 1 73 13 view .LVU2211
.LBB1305:
	.loc 1 75 3 view .LVU2212
	ldr	r0, [r7]
	mov	r4, r7
	bl	free
.LVL658:
.L605:
	.loc 1 75 3 is_stmt 0 view .LVU2213
.LBE1305:
.LBE1304:
	.loc 1 3016 23 is_stmt 1 view .LVU2214
	.loc 1 3016 16 view .LVU2215
	cmp	r4, r5
	bne	.L620
.LBE1270:
.LBE1269:
	.loc 1 3021 7 view .LVU2216
.LVL659:
.LBB1306:
.LBI1306:
	.loc 1 73 13 view .LVU2217
.LBB1307:
	.loc 1 75 3 view .LVU2218
	ldr	r0, [r9]
	bl	free
.LVL660:
.L604:
	.loc 1 75 3 is_stmt 0 view .LVU2219
.LBE1307:
.LBE1306:
	.loc 1 3016 23 is_stmt 1 discriminator 2 view .LVU2220
	.loc 1 3016 16 discriminator 2 view .LVU2221
	cmp	r9, r8
	bne	.L621
	.loc 1 3024 1 is_stmt 0 view .LVU2222
	add	sp, sp, #44
	.cfi_def_cfa_offset 36
	@ sp needed
	pop	{r4, r5, r6, r7, r8, r9, r10, fp, pc}
	.cfi_endproc
.LFE136:
	.size	color_tree_cleanup, .-color_tree_cleanup
	.section	.text.lodepng_add32bitInt,"ax",%progbits
	.align	2
	.syntax unified
	.arm
	.type	lodepng_add32bitInt, %function
lodepng_add32bitInt:
.LVL661:
.LFB24:
	.loc 1 338 1 is_stmt 1 view -0
	.cfi_startproc
	@ args = 0, pretend = 0, frame = 0
	@ frame_needed = 0, uses_anonymous_args = 0
	.loc 1 339 3 view .LVU2224
	.loc 1 338 1 is_stmt 0 view .LVU2225
	push	{r4, r5, r6, r7, r8, lr}
	.cfi_def_cfa_offset 24
	.cfi_offset 4, -24
	.cfi_offset 5, -20
	.cfi_offset 6, -16
	.cfi_offset 7, -12
	.cfi_offset 8, -8
	.cfi_offset 14, -4
	.loc 1 339 33 view .LVU2226
	ldr	r7, [r0, #4]
.LBB1317:
.LBB1318:
.LBB1319:
.LBB1320:
	.loc 1 215 19 view .LVU2227
	ldr	r3, [r0, #8]
.LBE1320:
.LBE1319:
.LBE1318:
.LBE1317:
	.loc 1 339 3 view .LVU2228
	add	r6, r7, #4
.LVL662:
.LBB1335:
.LBI1317:
	.loc 1 230 17 is_stmt 1 view .LVU2229
.LBB1332:
	.loc 1 232 3 view .LVU2230
.LBB1329:
.LBI1319:
	.loc 1 213 17 view .LVU2231
.LBB1326:
	.loc 1 215 3 view .LVU2232
	.loc 1 215 5 is_stmt 0 view .LVU2233
	cmp	r6, r3
.LBE1326:
.LBE1329:
.LBE1332:
.LBE1335:
	.loc 1 338 1 view .LVU2234
	mov	r4, r0
	mov	r5, r1
.LBB1336:
.LBB1333:
.LBB1330:
.LBB1327:
.LBB1321:
	.loc 1 218 35 view .LVU2235
	ldr	r0, [r0]
.LVL663:
	.loc 1 218 35 view .LVU2236
.LBE1321:
	.loc 1 215 5 view .LVU2237
	bls	.L660
.LBB1324:
	.loc 1 217 5 is_stmt 1 view .LVU2238
	.loc 1 217 65 is_stmt 0 view .LVU2239
	cmp	r6, r3, lsl #1
	movhi	r8, r6
	.loc 1 217 78 view .LVU2240
	addls	r8, r6, r6, lsl #1
	.loc 1 217 65 view .LVU2241
	lsrls	r8, r8, #1
.LVL664:
	.loc 1 218 5 is_stmt 1 view .LVU2242
.LBB1322:
.LBI1322:
	.loc 1 68 14 view .LVU2243
.LBB1323:
	.loc 1 70 3 view .LVU2244
	.loc 1 70 10 is_stmt 0 view .LVU2245
	mov	r1, r8
.LVL665:
	.loc 1 70 10 view .LVU2246
	bl	realloc
.LVL666:
	.loc 1 70 10 view .LVU2247
.LBE1323:
.LBE1322:
	.loc 1 219 5 is_stmt 1 view .LVU2248
	.loc 1 219 7 is_stmt 0 view .LVU2249
	cmp	r0, #0
	.loc 1 219 7 view .LVU2250
.LBE1324:
.LBE1327:
.LBE1330:
.LBE1333:
.LBE1336:
	.loc 1 340 30 view .LVU2251
	ldmeq	r4, {r0, r7}
.LVL667:
	.loc 1 340 36 view .LVU2252
	subeq	r7, r7, #4
.LBB1337:
.LBB1334:
.LBB1331:
.LBB1328:
.LBB1325:
	.loc 1 219 7 view .LVU2253
	beq	.L663
	.loc 1 221 7 is_stmt 1 view .LVU2254
	.loc 1 221 20 is_stmt 0 view .LVU2255
	str	r8, [r4, #8]
	.loc 1 222 7 is_stmt 1 view .LVU2256
	.loc 1 222 15 is_stmt 0 view .LVU2257
	str	r0, [r4]
.LVL668:
.L660:
	.loc 1 222 15 view .LVU2258
.LBE1325:
.LBE1328:
.LBE1331:
	.loc 1 233 3 is_stmt 1 view .LVU2259
	.loc 1 233 11 is_stmt 0 view .LVU2260
	str	r6, [r4, #4]
	.loc 1 234 3 is_stmt 1 view .LVU2261
.L663:
.LVL669:
	.loc 1 234 3 is_stmt 0 view .LVU2262
.LBE1334:
.LBE1337:
	.loc 1 340 3 is_stmt 1 view .LVU2263
.LBB1338:
.LBI1338:
	.loc 1 327 13 view .LVU2264
.LBB1339:
	.loc 1 329 3 view .LVU2265
	.loc 1 330 3 view .LVU2266
	.loc 1 331 3 view .LVU2267
	.loc 1 332 3 view .LVU2268
	rev	r5, r5
.LVL670:
	.loc 1 329 13 is_stmt 0 view .LVU2269
	str	r5, [r0, r7]	@ unaligned
.LVL671:
	.loc 1 329 13 view .LVU2270
.LBE1339:
.LBE1338:
	.loc 1 341 1 view .LVU2271
	pop	{r4, r5, r6, r7, r8, pc}
	.cfi_endproc
.LFE24:
	.size	lodepng_add32bitInt, .-lodepng_add32bitInt
	.section	.text.getPixelColorsRGBA8,"ax",%progbits
	.align	2
	.syntax unified
	.arm
	.type	getPixelColorsRGBA8, %function
getPixelColorsRGBA8:
.LVL672:
.LFB143:
	.loc 1 3294 1 is_stmt 1 view -0
	.cfi_startproc
	@ args = 4, pretend = 0, frame = 8
	@ frame_needed = 0, uses_anonymous_args = 0
	.loc 1 3294 1 is_stmt 0 view .LVU2273
	push	{r4, r5, r6, r7, r8, r9, r10, fp, lr}
	.cfi_def_cfa_offset 36
	.cfi_offset 4, -36
	.cfi_offset 5, -32
	.cfi_offset 6, -28
	.cfi_offset 7, -24
	.cfi_offset 8, -20
	.cfi_offset 9, -16
	.cfi_offset 10, -12
	.cfi_offset 11, -8
	.cfi_offset 14, -4
	sub	sp, sp, #12
	.cfi_def_cfa_offset 48
	.loc 1 3294 1 view .LVU2274
	ldr	r10, [sp, #48]
	mov	r5, r3
	.loc 1 3297 10 view .LVU2275
	ldrb	r4, [r10]	@ zero_extendqisi2
	.loc 1 3294 1 view .LVU2276
	mov	r9, r2
	.loc 1 3295 3 is_stmt 1 view .LVU2277
	.loc 1 3297 5 is_stmt 0 view .LVU2278
	cmp	r4, #0
	.loc 1 3294 1 view .LVU2279
	mov	r7, r0
	mov	r8, r1
	add	r3, r2, #3
.LVL673:
	.loc 1 3296 3 is_stmt 1 view .LVU2280
	.loc 1 3297 3 view .LVU2281
	.loc 1 3297 5 is_stmt 0 view .LVU2282
	bne	.L667
	.loc 1 3299 5 is_stmt 1 view .LVU2283
	.loc 1 3299 12 is_stmt 0 view .LVU2284
	ldr	r6, [r10, #4]
	.loc 1 3299 7 view .LVU2285
	cmp	r6, #8
	beq	.L787
	.loc 1 3307 10 is_stmt 1 view .LVU2286
	.loc 1 3307 12 is_stmt 0 view .LVU2287
	cmp	r6, #16
	beq	.L788
.LBB1351:
	.loc 1 3317 7 is_stmt 1 view .LVU2288
	.loc 1 3317 31 is_stmt 0 view .LVU2289
	mvn	fp, #0
	.loc 1 3317 16 view .LVU2290
	mvn	r2, fp, lsl r6
.LVL674:
	.loc 1 3319 20 view .LVU2291
	cmp	r1, #0
	.loc 1 3317 16 view .LVU2292
	str	r2, [sp, #4]
.LVL675:
	.loc 1 3318 7 is_stmt 1 view .LVU2293
	.loc 1 3319 7 view .LVU2294
	.loc 1 3319 20 view .LVU2295
	beq	.L666
.LBB1352:
.LBB1353:
.LBB1354:
	.loc 1 2388 17 is_stmt 0 view .LVU2296
	cmp	r6, #0
.LBE1354:
.LBE1353:
.LBE1352:
	.loc 1 3319 13 view .LVU2297
	mov	fp, r4
.LVL676:
.LBB1363:
	.loc 1 3321 9 is_stmt 1 view .LVU2298
.LBB1360:
.LBI1353:
	.loc 1 2384 17 view .LVU2299
.LBB1357:
	.loc 1 2386 3 view .LVU2300
	.loc 1 2387 3 view .LVU2301
	.loc 1 2388 3 view .LVU2302
	.loc 1 2388 17 view .LVU2303
	beq	.L721
.LVL677:
.L789:
	.loc 1 2388 17 is_stmt 0 view .LVU2304
	add	r0, r6, r4
	.loc 1 2386 12 view .LVU2305
	mov	r6, #0
.LVL678:
.L680:
	.loc 1 2390 5 is_stmt 1 view .LVU2306
	.loc 1 2391 5 view .LVU2307
.LBB1355:
.LBI1355:
	.loc 1 2377 22 view .LVU2308
.LBB1356:
	.loc 1 2379 3 view .LVU2309
	.loc 1 2379 79 is_stmt 0 view .LVU2310
	mvn	ip, r4
	.loc 1 2379 52 view .LVU2311
	ldrb	r1, [r5, r4, lsr #3]	@ zero_extendqisi2
	.loc 1 2379 79 view .LVU2312
	and	ip, ip, #7
	.loc 1 2380 3 view .LVU2313
	add	r4, r4, #1
.LVL679:
	.loc 1 2379 73 view .LVU2314
	asr	r1, r1, ip
	.loc 1 2379 17 view .LVU2315
	and	r1, r1, #1
.LVL680:
	.loc 1 2380 3 is_stmt 1 view .LVU2316
	.loc 1 2381 3 view .LVU2317
	.loc 1 2381 3 is_stmt 0 view .LVU2318
.LBE1356:
.LBE1355:
	.loc 1 2388 17 view .LVU2319
	cmp	r0, r4
	.loc 1 2391 12 view .LVU2320
	orr	r6, r1, r6, lsl #1
.LVL681:
	.loc 1 2388 26 is_stmt 1 view .LVU2321
	.loc 1 2388 17 view .LVU2322
	bne	.L680
.LBE1357:
.LBE1360:
	.loc 1 3322 59 is_stmt 0 view .LVU2323
	ldr	r1, [sp, #4]
	rsb	r0, r6, r6, lsl #8
	str	r3, [sp]
	bl	__aeabi_uidiv
.LVL682:
	.loc 1 3322 59 view .LVU2324
	ldr	r3, [sp]
	.loc 1 3322 43 view .LVU2325
	uxtb	r0, r0
.LVL683:
.L679:
.LBB1361:
.LBB1358:
	.loc 1 2393 3 is_stmt 1 view .LVU2326
	.loc 1 2393 3 is_stmt 0 view .LVU2327
.LBE1358:
.LBE1361:
	.loc 1 3322 9 is_stmt 1 view .LVU2328
	.loc 1 3322 43 is_stmt 0 view .LVU2329
	strb	r0, [r7, #2]
	.loc 1 3323 11 view .LVU2330
	cmp	r9, #0
	.loc 1 3322 19 view .LVU2331
	orr	r0, r0, r0, lsl #8
	strh	r0, [r7]	@ unaligned
	.loc 1 3323 9 is_stmt 1 view .LVU2332
	.loc 1 3323 11 is_stmt 0 view .LVU2333
	beq	.L681
	.loc 1 3323 23 is_stmt 1 discriminator 1 view .LVU2334
	.loc 1 3323 33 is_stmt 0 discriminator 1 view .LVU2335
	ldr	r1, [r10, #16]
	cmp	r1, #0
	moveq	r1, #255
	beq	.L682
	.loc 1 3323 53 discriminator 2 view .LVU2336
	ldr	r1, [r10, #20]
	subs	r1, r1, r6
	mvnne	r1, #0
	uxtb	r1, r1
.L682:
	.loc 1 3323 33 discriminator 7 view .LVU2337
	strb	r1, [r7, #3]
.L681:
	.loc 1 3323 33 discriminator 7 view .LVU2338
.LBE1363:
	.loc 1 3319 37 is_stmt 1 discriminator 2 view .LVU2339
	.loc 1 3319 34 is_stmt 0 discriminator 2 view .LVU2340
	add	fp, fp, #1
.LVL684:
	.loc 1 3319 20 discriminator 2 view .LVU2341
	cmp	r8, fp
	.loc 1 3319 46 discriminator 2 view .LVU2342
	add	r7, r7, r3
.LVL685:
	.loc 1 3319 20 is_stmt 1 discriminator 2 view .LVU2343
	beq	.L666
.LBB1364:
	.loc 1 3321 65 is_stmt 0 view .LVU2344
	ldr	r6, [r10, #4]
.LVL686:
	.loc 1 3321 9 is_stmt 1 view .LVU2345
.LBB1362:
	.loc 1 2384 17 view .LVU2346
.LBB1359:
	.loc 1 2386 3 view .LVU2347
	.loc 1 2387 3 view .LVU2348
	.loc 1 2388 3 view .LVU2349
	.loc 1 2388 17 view .LVU2350
	cmp	r6, #0
	bne	.L789
.LVL687:
.L721:
	.loc 1 2388 17 is_stmt 0 view .LVU2351
	mov	r0, r6
	b	.L679
.LVL688:
.L787:
	.loc 1 2388 17 view .LVU2352
.LBE1359:
.LBE1362:
.LBE1364:
.LBE1351:
	.loc 1 3301 20 is_stmt 1 view .LVU2353
	cmp	r1, #0
	beq	.L666
	add	r0, r5, r1
.LVL689:
	.loc 1 3301 20 is_stmt 0 view .LVU2354
	sub	r0, r0, #1
	sub	r5, r5, #1
.LVL690:
.L673:
	.loc 1 3303 9 is_stmt 1 view .LVU2355
	.loc 1 3304 23 view .LVU2356
	.loc 1 3303 47 is_stmt 0 view .LVU2357
	ldrb	r2, [r5, #1]!	@ zero_extendqisi2
.LVL691:
	.loc 1 3304 11 view .LVU2358
	cmp	r9, #0
	.loc 1 3303 19 view .LVU2359
	orr	r1, r2, r2, lsl #8
	.loc 1 3303 43 view .LVU2360
	strb	r2, [r7, #2]
	.loc 1 3303 19 view .LVU2361
	strh	r1, [r7]	@ unaligned
	.loc 1 3304 9 is_stmt 1 view .LVU2362
	.loc 1 3304 11 is_stmt 0 view .LVU2363
	beq	.L671
	.loc 1 3304 33 discriminator 1 view .LVU2364
	ldr	r2, [r10, #16]
	cmp	r2, #0
	moveq	r2, #255
	beq	.L672
	.loc 1 3304 58 discriminator 2 view .LVU2365
	ldrb	r2, [r5]	@ zero_extendqisi2
	.loc 1 3304 53 discriminator 2 view .LVU2366
	ldr	r1, [r10, #20]
	subs	r2, r2, r1
	mvnne	r2, #0
	uxtb	r2, r2
.L672:
	.loc 1 3304 33 discriminator 7 view .LVU2367
	strb	r2, [r7, #3]
.L671:
	.loc 1 3301 37 is_stmt 1 discriminator 2 view .LVU2368
.LVL692:
	.loc 1 3301 20 is_stmt 0 discriminator 2 view .LVU2369
	cmp	r0, r5
	.loc 1 3301 46 discriminator 2 view .LVU2370
	add	r7, r7, r3
.LVL693:
	.loc 1 3301 20 is_stmt 1 discriminator 2 view .LVU2371
	bne	.L673
.LVL694:
.L666:
	.loc 1 3421 1 is_stmt 0 view .LVU2372
	add	sp, sp, #12
	.cfi_remember_state
	.cfi_def_cfa_offset 36
	@ sp needed
	pop	{r4, r5, r6, r7, r8, r9, r10, fp, pc}
.LVL695:
.L667:
	.cfi_restore_state
	.loc 1 3327 8 is_stmt 1 view .LVU2373
	sub	r4, r4, #2
	cmp	r4, #4
	ldrls	pc, [pc, r4, asl #2]
	b	.L666
.L685:
	.word	.L688
	.word	.L687
	.word	.L686
	.word	.L666
	.word	.L684
.L688:
	.loc 1 3329 5 view .LVU2374
	.loc 1 3329 7 is_stmt 0 view .LVU2375
	ldr	r2, [r10, #4]
.LVL696:
	.loc 1 3329 7 view .LVU2376
	cmp	r2, #8
	beq	.L690
.LVL697:
	.loc 1 3342 20 is_stmt 1 view .LVU2377
	cmp	r1, #0
	addne	r8, r1, r1, lsl #1
	addne	r1, r5, r8, lsl #1
.LVL698:
	.loc 1 3342 20 is_stmt 0 view .LVU2378
	beq	.L666
.LVL699:
.L697:
	.loc 1 3344 9 is_stmt 1 view .LVU2379
	.loc 1 3347 23 view .LVU2380
	.loc 1 3344 23 is_stmt 0 view .LVU2381
	ldrb	r2, [r5]	@ zero_extendqisi2
	.loc 1 3347 11 view .LVU2382
	cmp	r9, #0
	.loc 1 3344 19 view .LVU2383
	strb	r2, [r7]
	.loc 1 3345 9 is_stmt 1 view .LVU2384
	.loc 1 3345 23 is_stmt 0 view .LVU2385
	ldrb	r2, [r5, #2]	@ zero_extendqisi2
	.loc 1 3345 19 view .LVU2386
	strb	r2, [r7, #1]
	.loc 1 3346 9 is_stmt 1 view .LVU2387
	.loc 1 3346 23 is_stmt 0 view .LVU2388
	ldrb	r2, [r5, #4]	@ zero_extendqisi2
	.loc 1 3346 19 view .LVU2389
	strb	r2, [r7, #2]
	.loc 1 3347 9 is_stmt 1 view .LVU2390
	.loc 1 3347 11 is_stmt 0 view .LVU2391
	beq	.L695
	.loc 1 3347 33 discriminator 1 view .LVU2392
	ldr	r0, [r10, #16]
	cmp	r0, #0
	beq	.L728
	.loc 1 3348 24 view .LVU2393
	ldrb	ip, [r5]	@ zero_extendqisi2
	.loc 1 3348 40 view .LVU2394
	ldrb	r0, [r5, #1]	@ zero_extendqisi2
	.loc 1 3348 36 view .LVU2395
	add	r0, r0, ip, lsl #8
	.loc 1 3348 12 view .LVU2396
	ldr	ip, [r10, #20]
	cmp	r0, ip
	beq	.L790
.L728:
	.loc 1 3347 33 view .LVU2397
	mov	r2, #255
.L696:
	.loc 1 3347 33 discriminator 4 view .LVU2398
	strb	r2, [r7, #3]
.L695:
	.loc 1 3342 37 is_stmt 1 discriminator 2 view .LVU2399
.LVL700:
	.loc 1 3342 20 is_stmt 0 discriminator 2 view .LVU2400
	add	r5, r5, #6
	cmp	r1, r5
	.loc 1 3342 46 discriminator 2 view .LVU2401
	add	r7, r7, r3
.LVL701:
	.loc 1 3342 20 is_stmt 1 discriminator 2 view .LVU2402
	bne	.L697
	b	.L666
.LVL702:
.L684:
	.loc 1 3400 5 view .LVU2403
	.loc 1 3400 7 is_stmt 0 view .LVU2404
	ldr	r2, [r10, #4]
.LVL703:
	.loc 1 3400 7 view .LVU2405
	cmp	r2, #8
	beq	.L713
.LVL704:
	.loc 1 3412 20 is_stmt 1 view .LVU2406
	cmp	r1, #0
	addne	r8, r5, r1, lsl #3
	beq	.L666
.LVL705:
.L718:
	.loc 1 3414 9 view .LVU2407
	.loc 1 3417 23 view .LVU2408
	.loc 1 3412 37 view .LVU2409
	.loc 1 3414 23 is_stmt 0 view .LVU2410
	ldrb	r2, [r5]	@ zero_extendqisi2
	.loc 1 3417 11 view .LVU2411
	cmp	r9, #0
	.loc 1 3414 19 view .LVU2412
	strb	r2, [r7]
	.loc 1 3415 9 is_stmt 1 view .LVU2413
	.loc 1 3415 23 is_stmt 0 view .LVU2414
	ldrb	r2, [r5, #2]	@ zero_extendqisi2
	.loc 1 3412 20 view .LVU2415
	add	r5, r5, #8
	.loc 1 3415 19 view .LVU2416
	strb	r2, [r7, #1]
	.loc 1 3416 9 is_stmt 1 view .LVU2417
	.loc 1 3416 23 is_stmt 0 view .LVU2418
	ldrb	r2, [r5, #-4]	@ zero_extendqisi2
	.loc 1 3416 19 view .LVU2419
	strb	r2, [r7, #2]
	.loc 1 3417 9 is_stmt 1 view .LVU2420
	.loc 1 3417 37 is_stmt 0 view .LVU2421
	ldrbne	r2, [r5, #-2]	@ zero_extendqisi2
	.loc 1 3417 33 view .LVU2422
	strbne	r2, [r7, #3]
	.loc 1 3412 20 view .LVU2423
	cmp	r5, r8
	.loc 1 3412 46 view .LVU2424
	add	r7, r7, r3
.LVL706:
	.loc 1 3412 20 is_stmt 1 view .LVU2425
	bne	.L718
	b	.L666
.LVL707:
.L686:
	.loc 1 3381 5 view .LVU2426
	.loc 1 3381 7 is_stmt 0 view .LVU2427
	ldr	r2, [r10, #4]
.LVL708:
	.loc 1 3381 7 view .LVU2428
	cmp	r2, #8
	beq	.L707
.LVL709:
	.loc 1 3391 20 is_stmt 1 view .LVU2429
	cmp	r1, #0
	addne	r8, r5, r1, lsl #2
	beq	.L666
.LVL710:
.L712:
	.loc 1 3393 9 view .LVU2430
	.loc 1 3394 23 view .LVU2431
	.loc 1 3391 37 view .LVU2432
	.loc 1 3393 47 is_stmt 0 view .LVU2433
	ldrb	r2, [r5]	@ zero_extendqisi2
	.loc 1 3394 11 view .LVU2434
	cmp	r9, #0
	.loc 1 3393 43 view .LVU2435
	strb	r2, [r7, #2]
	.loc 1 3393 19 view .LVU2436
	orr	r2, r2, r2, lsl #8
	strh	r2, [r7]	@ unaligned
	.loc 1 3394 9 is_stmt 1 view .LVU2437
	.loc 1 3394 37 is_stmt 0 view .LVU2438
	ldrbne	r2, [r5, #2]	@ zero_extendqisi2
	.loc 1 3391 20 view .LVU2439
	add	r5, r5, #4
	.loc 1 3394 33 view .LVU2440
	strbne	r2, [r7, #3]
	.loc 1 3391 20 view .LVU2441
	cmp	r8, r5
	.loc 1 3391 46 view .LVU2442
	add	r7, r7, r3
.LVL711:
	.loc 1 3391 20 is_stmt 1 view .LVU2443
	bne	.L712
	b	.L666
.LVL712:
.L687:
.LBB1365:
	.loc 1 3358 18 view .LVU2444
	cmp	r1, #0
	beq	.L666
	add	r8, r5, r1
	.loc 1 3357 12 is_stmt 0 view .LVU2445
	mov	r1, #0
.LVL713:
	.loc 1 3360 14 view .LVU2446
	ldr	r0, [r10, #4]
.LVL714:
	.loc 1 3360 14 view .LVU2447
	mov	lr, r5
	.loc 1 3360 9 view .LVU2448
	cmp	r0, #8
	.loc 1 3368 33 view .LVU2449
	mvn	r6, #0
.LBB1366:
.LBB1367:
	.loc 1 2386 12 view .LVU2450
	mov	r4, r1
.LVL715:
	.loc 1 2386 12 view .LVU2451
.LBE1367:
.LBE1366:
	.loc 1 3360 7 is_stmt 1 view .LVU2452
	.loc 1 3360 9 is_stmt 0 view .LVU2453
	beq	.L698
.LVL716:
.L791:
.LBB1371:
.LBB1370:
	.loc 1 2388 17 is_stmt 1 view .LVU2454
	cmp	r0, #0
	addne	ip, r0, r1
	.loc 1 2386 12 is_stmt 0 view .LVU2455
	movne	r0, #0
	.loc 1 2388 17 view .LVU2456
	beq	.L700
.LVL717:
.L701:
	.loc 1 2390 5 is_stmt 1 view .LVU2457
	.loc 1 2391 5 view .LVU2458
.LBB1368:
.LBI1368:
	.loc 1 2377 22 view .LVU2459
.LBB1369:
	.loc 1 2379 3 view .LVU2460
	.loc 1 2379 79 is_stmt 0 view .LVU2461
	mvn	fp, r1
	.loc 1 2379 52 view .LVU2462
	ldrb	r2, [r5, r1, lsr #3]	@ zero_extendqisi2
	.loc 1 2379 79 view .LVU2463
	and	fp, fp, #7
	.loc 1 2380 3 view .LVU2464
	add	r1, r1, #1
.LVL718:
	.loc 1 2379 73 view .LVU2465
	asr	r2, r2, fp
	.loc 1 2379 17 view .LVU2466
	and	r2, r2, #1
.LVL719:
	.loc 1 2380 3 is_stmt 1 view .LVU2467
	.loc 1 2381 3 view .LVU2468
	.loc 1 2381 3 is_stmt 0 view .LVU2469
.LBE1369:
.LBE1368:
	.loc 1 2388 17 view .LVU2470
	cmp	ip, r1
	.loc 1 2391 12 view .LVU2471
	orr	r0, r2, r0, lsl #1
.LVL720:
	.loc 1 2388 26 is_stmt 1 view .LVU2472
	.loc 1 2388 17 view .LVU2473
	bne	.L701
.LVL721:
.L700:
	.loc 1 2388 17 is_stmt 0 view .LVU2474
.LBE1370:
.LBE1371:
	.loc 1 3363 7 is_stmt 1 view .LVU2475
	.loc 1 3363 9 is_stmt 0 view .LVU2476
	ldr	r2, [r10, #12]
	cmp	r2, r0
	bhi	.L702
.L792:
	.loc 1 3367 9 is_stmt 1 view .LVU2477
	.loc 1 3368 11 is_stmt 0 view .LVU2478
	cmp	r9, #0
	.loc 1 3367 43 view .LVU2479
	strb	r4, [r7, #2]
	.loc 1 3367 19 view .LVU2480
	strh	r4, [r7]	@ unaligned
	.loc 1 3368 9 is_stmt 1 view .LVU2481
	.loc 1 3368 33 is_stmt 0 view .LVU2482
	strbne	r6, [r7, #3]
.LVL722:
.L704:
	.loc 1 3358 35 is_stmt 1 discriminator 2 view .LVU2483
	.loc 1 3358 18 is_stmt 0 discriminator 2 view .LVU2484
	add	lr, lr, #1
.LVL723:
	.loc 1 3358 18 discriminator 2 view .LVU2485
	cmp	r8, lr
	.loc 1 3358 44 discriminator 2 view .LVU2486
	add	r7, r7, r3
.LVL724:
	.loc 1 3358 18 is_stmt 1 discriminator 2 view .LVU2487
	beq	.L666
	.loc 1 3360 7 view .LVU2488
	.loc 1 3360 14 is_stmt 0 view .LVU2489
	ldr	r0, [r10, #4]
	.loc 1 3360 9 view .LVU2490
	cmp	r0, #8
	bne	.L791
.LVL725:
.L698:
	.loc 1 3360 31 is_stmt 1 discriminator 1 view .LVU2491
	.loc 1 3360 37 is_stmt 0 discriminator 1 view .LVU2492
	ldrb	r0, [lr]	@ zero_extendqisi2
.LVL726:
	.loc 1 3363 7 is_stmt 1 discriminator 1 view .LVU2493
	.loc 1 3363 9 is_stmt 0 discriminator 1 view .LVU2494
	ldr	r2, [r10, #12]
	cmp	r2, r0
	bls	.L792
.L702:
	.loc 1 3372 9 is_stmt 1 view .LVU2495
	.loc 1 3372 34 is_stmt 0 view .LVU2496
	ldr	r2, [r10, #8]
	.loc 1 3375 11 view .LVU2497
	cmp	r9, #0
	.loc 1 3372 34 view .LVU2498
	ldrb	r2, [r2, r0, lsl #2]	@ zero_extendqisi2
	.loc 1 3372 19 view .LVU2499
	strb	r2, [r7]
	.loc 1 3373 9 is_stmt 1 view .LVU2500
	.loc 1 3373 34 is_stmt 0 view .LVU2501
	ldr	r2, [r10, #8]
	add	r2, r2, r0, lsl #2
	ldrb	r2, [r2, #1]	@ zero_extendqisi2
	.loc 1 3373 19 view .LVU2502
	strb	r2, [r7, #1]
	.loc 1 3374 9 is_stmt 1 view .LVU2503
	.loc 1 3374 34 is_stmt 0 view .LVU2504
	ldr	r2, [r10, #8]
	add	r2, r2, r0, lsl #2
	ldrb	r2, [r2, #2]	@ zero_extendqisi2
	.loc 1 3372 41 view .LVU2505
	lsl	r0, r0, #2
.LVL727:
	.loc 1 3374 19 view .LVU2506
	strb	r2, [r7, #2]
	.loc 1 3375 9 is_stmt 1 view .LVU2507
	.loc 1 3375 23 view .LVU2508
	.loc 1 3375 48 is_stmt 0 view .LVU2509
	ldrne	r2, [r10, #8]
	addne	r2, r2, r0
	ldrbne	r2, [r2, #3]	@ zero_extendqisi2
	.loc 1 3375 33 view .LVU2510
	strbne	r2, [r7, #3]
	b	.L704
.LVL728:
.L788:
	.loc 1 3375 33 view .LVU2511
.LBE1365:
	.loc 1 3309 20 is_stmt 1 view .LVU2512
	cmp	r1, #0
	beq	.L666
	add	r5, r5, #1
.LVL729:
	.loc 1 3309 20 is_stmt 0 view .LVU2513
	add	r8, r5, r1, lsl #1
.LVL730:
.L678:
	.loc 1 3311 9 is_stmt 1 view .LVU2514
	.loc 1 3312 23 view .LVU2515
	.loc 1 3311 47 is_stmt 0 view .LVU2516
	ldrb	r2, [r5, #-1]	@ zero_extendqisi2
	.loc 1 3312 11 view .LVU2517
	cmp	r9, #0
	.loc 1 3311 43 view .LVU2518
	strb	r2, [r7, #2]
	.loc 1 3311 19 view .LVU2519
	orr	r2, r2, r2, lsl #8
	strh	r2, [r7]	@ unaligned
	.loc 1 3312 9 is_stmt 1 view .LVU2520
	.loc 1 3312 11 is_stmt 0 view .LVU2521
	beq	.L676
	.loc 1 3312 33 discriminator 1 view .LVU2522
	ldr	r2, [r10, #16]
	cmp	r2, #0
	moveq	r2, #255
	beq	.L677
	.loc 1 3312 65 discriminator 2 view .LVU2523
	ldrb	r1, [r5, #-1]	@ zero_extendqisi2
	.loc 1 3312 81 discriminator 2 view .LVU2524
	ldrb	r2, [r5]	@ zero_extendqisi2
	.loc 1 3312 77 discriminator 2 view .LVU2525
	add	r2, r2, r1, lsl #8
	.loc 1 3312 53 discriminator 2 view .LVU2526
	ldr	r1, [r10, #20]
	subs	r2, r2, r1
	mvnne	r2, #0
	uxtb	r2, r2
.L677:
	.loc 1 3312 33 discriminator 7 view .LVU2527
	strb	r2, [r7, #3]
.L676:
	.loc 1 3309 37 is_stmt 1 discriminator 2 view .LVU2528
.LVL731:
	.loc 1 3309 20 is_stmt 0 discriminator 2 view .LVU2529
	add	r5, r5, #2
	cmp	r8, r5
	.loc 1 3309 46 discriminator 2 view .LVU2530
	add	r7, r7, r3
.LVL732:
	.loc 1 3309 20 is_stmt 1 discriminator 2 view .LVU2531
	bne	.L678
	b	.L666
.LVL733:
.L790:
	.loc 1 3349 24 is_stmt 0 view .LVU2532
	ldrb	ip, [r5, #2]	@ zero_extendqisi2
	.loc 1 3349 40 view .LVU2533
	ldrb	r0, [r5, #3]	@ zero_extendqisi2
	.loc 1 3349 36 view .LVU2534
	add	r0, r0, ip, lsl #8
	.loc 1 3349 12 view .LVU2535
	ldr	ip, [r10, #24]
	cmp	r0, ip
	bne	.L728
	.loc 1 3350 40 view .LVU2536
	ldrb	r0, [r5, #5]	@ zero_extendqisi2
	.loc 1 3350 36 view .LVU2537
	add	r2, r0, r2, lsl #8
	.loc 1 3350 12 view .LVU2538
	ldr	r0, [r10, #28]
	subs	r2, r2, r0
	mvnne	r2, #0
	uxtb	r2, r2
	b	.L696
.LVL734:
.L690:
	.loc 1 3331 20 is_stmt 1 view .LVU2539
	cmp	r1, #0
	beq	.L666
	add	r8, r1, r1, lsl #1
	add	ip, r5, r8
.LVL735:
.L694:
	.loc 1 3333 9 view .LVU2540
	.loc 1 3336 23 view .LVU2541
	.loc 1 3333 23 is_stmt 0 view .LVU2542
	ldrb	r2, [r5]	@ zero_extendqisi2
	.loc 1 3336 11 view .LVU2543
	cmp	r9, #0
	.loc 1 3333 19 view .LVU2544
	strb	r2, [r7]
	.loc 1 3334 9 is_stmt 1 view .LVU2545
	.loc 1 3334 23 is_stmt 0 view .LVU2546
	ldrb	r0, [r5, #1]	@ zero_extendqisi2
	.loc 1 3334 19 view .LVU2547
	strb	r0, [r7, #1]
	.loc 1 3335 9 is_stmt 1 view .LVU2548
	.loc 1 3335 23 is_stmt 0 view .LVU2549
	ldrb	r1, [r5, #2]	@ zero_extendqisi2
	.loc 1 3335 19 view .LVU2550
	strb	r1, [r7, #2]
	.loc 1 3336 9 is_stmt 1 view .LVU2551
	.loc 1 3336 11 is_stmt 0 view .LVU2552
	beq	.L692
	.loc 1 3336 33 discriminator 1 view .LVU2553
	ldr	lr, [r10, #16]
	cmp	lr, #0
	beq	.L725
	.loc 1 3336 53 discriminator 2 view .LVU2554
	ldr	lr, [r10, #20]
	cmp	r2, lr
	beq	.L793
.L725:
	.loc 1 3336 33 view .LVU2555
	mov	r2, #255
.L693:
	.loc 1 3336 33 discriminator 6 view .LVU2556
	strb	r2, [r7, #3]
.L692:
	.loc 1 3331 37 is_stmt 1 discriminator 2 view .LVU2557
.LVL736:
	.loc 1 3331 20 is_stmt 0 discriminator 2 view .LVU2558
	add	r5, r5, #3
	cmp	ip, r5
	.loc 1 3331 46 discriminator 2 view .LVU2559
	add	r7, r7, r3
.LVL737:
	.loc 1 3331 20 is_stmt 1 discriminator 2 view .LVU2560
	bne	.L694
	b	.L666
.LVL738:
.L707:
	.loc 1 3383 20 view .LVU2561
	cmp	r1, #0
	beq	.L666
	add	r8, r5, r1, lsl #1
.LVL739:
.L710:
	.loc 1 3385 9 view .LVU2562
	.loc 1 3386 23 view .LVU2563
	.loc 1 3383 37 view .LVU2564
	.loc 1 3385 47 is_stmt 0 view .LVU2565
	ldrb	r2, [r5]	@ zero_extendqisi2
	.loc 1 3386 11 view .LVU2566
	cmp	r9, #0
	.loc 1 3385 43 view .LVU2567
	strb	r2, [r7, #2]
	.loc 1 3385 19 view .LVU2568
	orr	r2, r2, r2, lsl #8
	strh	r2, [r7]	@ unaligned
	.loc 1 3386 9 is_stmt 1 view .LVU2569
	.loc 1 3386 37 is_stmt 0 view .LVU2570
	ldrbne	r2, [r5, #1]	@ zero_extendqisi2
	.loc 1 3383 20 view .LVU2571
	add	r5, r5, #2
	.loc 1 3386 33 view .LVU2572
	strbne	r2, [r7, #3]
	.loc 1 3383 20 view .LVU2573
	cmp	r8, r5
	.loc 1 3383 46 view .LVU2574
	add	r7, r7, r3
.LVL740:
	.loc 1 3383 20 is_stmt 1 view .LVU2575
	bne	.L710
	b	.L666
.LVL741:
.L713:
	.loc 1 3402 20 view .LVU2576
	cmp	r1, #0
	beq	.L666
	add	r8, r5, r1, lsl #2
.LVL742:
.L716:
	.loc 1 3404 9 view .LVU2577
	.loc 1 3407 23 view .LVU2578
	.loc 1 3402 37 view .LVU2579
	.loc 1 3404 23 is_stmt 0 view .LVU2580
	ldrb	r2, [r5]	@ zero_extendqisi2
	.loc 1 3407 11 view .LVU2581
	cmp	r9, #0
	.loc 1 3404 19 view .LVU2582
	strb	r2, [r7]
	.loc 1 3405 9 is_stmt 1 view .LVU2583
	.loc 1 3405 23 is_stmt 0 view .LVU2584
	ldrb	r2, [r5, #1]	@ zero_extendqisi2
	.loc 1 3402 20 view .LVU2585
	add	r5, r5, #4
	.loc 1 3405 19 view .LVU2586
	strb	r2, [r7, #1]
	.loc 1 3406 9 is_stmt 1 view .LVU2587
	.loc 1 3406 23 is_stmt 0 view .LVU2588
	ldrb	r2, [r5, #-2]	@ zero_extendqisi2
	.loc 1 3406 19 view .LVU2589
	strb	r2, [r7, #2]
	.loc 1 3407 9 is_stmt 1 view .LVU2590
	.loc 1 3407 37 is_stmt 0 view .LVU2591
	ldrbne	r2, [r5, #-1]	@ zero_extendqisi2
	.loc 1 3407 33 view .LVU2592
	strbne	r2, [r7, #3]
	.loc 1 3402 20 view .LVU2593
	cmp	r5, r8
	.loc 1 3402 46 view .LVU2594
	add	r7, r7, r3
.LVL743:
	.loc 1 3402 20 is_stmt 1 view .LVU2595
	bne	.L716
	b	.L666
.LVL744:
.L793:
	.loc 1 3337 12 is_stmt 0 view .LVU2596
	ldr	r2, [r10, #24]
	cmp	r0, r2
	bne	.L725
	.loc 1 3337 39 discriminator 1 view .LVU2597
	ldr	r2, [r10, #28]
	subs	r2, r2, r1
	mvnne	r2, #0
	uxtb	r2, r2
	b	.L693
	.cfi_endproc
.LFE143:
	.size	getPixelColorsRGBA8, .-getPixelColorsRGBA8
	.section	.text.HuffmanTree_makeFromLengths2,"ax",%progbits
	.align	2
	.syntax unified
	.arm
	.type	HuffmanTree_makeFromLengths2, %function
HuffmanTree_makeFromLengths2:
.LVL745:
.LFB36:
	.loc 1 612 1 is_stmt 1 view -0
	.cfi_startproc
	@ args = 0, pretend = 0, frame = 8
	@ frame_needed = 0, uses_anonymous_args = 0
	.loc 1 613 3 view .LVU2599
	.loc 1 614 3 view .LVU2600
	.loc 1 615 3 view .LVU2601
	.loc 1 616 3 view .LVU2602
	.loc 1 618 3 view .LVU2603
.LBB1409:
.LBI1409:
	.loc 1 185 13 view .LVU2604
.LBB1410:
	.loc 1 187 3 view .LVU2605
	.loc 1 188 3 view .LVU2606
	.loc 1 188 3 is_stmt 0 view .LVU2607
.LBE1410:
.LBE1409:
	.loc 1 619 3 is_stmt 1 view .LVU2608
.LBB1413:
.LBI1413:
	.loc 1 185 13 view .LVU2609
.LBB1414:
	.loc 1 187 3 view .LVU2610
	.loc 1 188 3 view .LVU2611
	.loc 1 188 3 is_stmt 0 view .LVU2612
.LBE1414:
.LBE1413:
	.loc 1 621 3 is_stmt 1 view .LVU2613
	.loc 1 612 1 is_stmt 0 view .LVU2614
	push	{r4, r5, r6, r7, r8, r9, r10, fp, lr}
	.cfi_def_cfa_offset 36
	.cfi_offset 4, -36
	.cfi_offset 5, -32
	.cfi_offset 6, -28
	.cfi_offset 7, -24
	.cfi_offset 8, -20
	.cfi_offset 9, -16
	.cfi_offset 10, -12
	.cfi_offset 11, -8
	.cfi_offset 14, -4
	.loc 1 621 48 view .LVU2615
	ldr	r4, [r0, #16]
	.loc 1 612 1 view .LVU2616
	mov	r5, r0
	.loc 1 621 29 view .LVU2617
	lsl	r10, r4, #2
.LVL746:
.LBB1416:
.LBI1416:
	.loc 1 63 14 is_stmt 1 view .LVU2618
.LBB1417:
	.loc 1 65 3 view .LVU2619
.LBE1417:
.LBE1416:
	.loc 1 612 1 is_stmt 0 view .LVU2620
	sub	sp, sp, #12
	.cfi_def_cfa_offset 48
.LBB1419:
.LBB1418:
	.loc 1 65 10 view .LVU2621
	mov	r0, r10
.LVL747:
	.loc 1 65 10 view .LVU2622
	bl	malloc
.LVL748:
.LBE1418:
.LBE1419:
	.loc 1 622 27 view .LVU2623
	subs	r6, r0, #0
	movne	r3, #0
	moveq	r3, #83
	.loc 1 624 38 view .LVU2624
	ldr	r9, [r5, #12]
	.loc 1 622 27 view .LVU2625
	str	r3, [sp]
	.loc 1 624 7 view .LVU2626
	add	r8, r9, #1
.LBB1420:
.LBB1421:
.LBB1422:
.LBB1423:
.LBB1424:
.LBB1425:
	.loc 1 154 5 view .LVU2627
	lsls	r7, r8, #2
.LBE1425:
.LBE1424:
.LBE1423:
.LBE1422:
.LBE1421:
.LBE1420:
	.loc 1 621 16 view .LVU2628
	str	r0, [r5, #4]
	.loc 1 622 3 is_stmt 1 view .LVU2629
.LVL749:
	.loc 1 624 3 view .LVU2630
.LBB1443:
.LBI1420:
	.loc 1 177 17 view .LVU2631
.LBB1439:
	.loc 1 179 3 view .LVU2632
	.loc 1 180 3 view .LVU2633
.LBB1437:
.LBI1422:
	.loc 1 169 17 view .LVU2634
.LBB1435:
	.loc 1 171 3 view .LVU2635
.LBB1433:
.LBI1424:
	.loc 1 152 17 view .LVU2636
.LBB1431:
	.loc 1 154 3 view .LVU2637
	.loc 1 154 5 is_stmt 0 view .LVU2638
	bne	.L796
.LVL750:
	.loc 1 154 5 view .LVU2639
.LBE1431:
.LBE1433:
.LBE1435:
.LBE1437:
	.loc 1 181 22 is_stmt 1 view .LVU2640
	cmp	r8, #0
.LBE1439:
.LBE1443:
.LBB1444:
.LBB1411:
	.loc 1 187 11 is_stmt 0 view .LVU2641
	moveq	fp, r8
.LBE1411:
.LBE1444:
.LBB1445:
.LBB1440:
	.loc 1 181 22 view .LVU2642
	beq	.L798
	.loc 1 181 46 view .LVU2643
	cmn	r9, #1
	movne	r2, #0
	moveq	r2, #1
	mov	r1, r7
	mov	r0, r7
	lsl	r2, r2, #2
.LBE1440:
.LBE1445:
.LBB1446:
.LBB1415:
	.loc 1 187 11 view .LVU2644
	mov	r8, r7
.LVL751:
	.loc 1 187 11 view .LVU2645
.LBE1415:
.LBE1446:
.LBB1447:
.LBB1412:
	mov	fp, r7
.LBE1412:
.LBE1447:
.LBB1448:
.LBB1441:
	.loc 1 181 46 view .LVU2646
	bl	memset
.LVL752:
	.loc 1 181 46 view .LVU2647
.LBE1441:
.LBE1448:
.LBB1449:
.LBI1449:
	.loc 1 177 17 is_stmt 1 view .LVU2648
.LBB1450:
	.loc 1 179 3 view .LVU2649
	.loc 1 180 3 view .LVU2650
.LBB1451:
.LBI1451:
	.loc 1 169 17 view .LVU2651
	.loc 1 171 3 view .LVU2652
.LBB1452:
.LBI1452:
	.loc 1 152 17 view .LVU2653
	.loc 1 154 3 view .LVU2654
	.loc 1 154 3 is_stmt 0 view .LVU2655
.LBE1452:
.LBE1451:
	.loc 1 181 22 is_stmt 1 view .LVU2656
	b	.L834
.LVL753:
.L796:
	.loc 1 181 22 is_stmt 0 view .LVU2657
.LBE1450:
.LBE1449:
.LBB1459:
.LBB1442:
.LBB1438:
.LBB1436:
.LBB1434:
.LBB1432:
.LBB1426:
	.loc 1 156 5 is_stmt 1 view .LVU2658
	.loc 1 157 5 view .LVU2659
.LBB1427:
.LBI1427:
	.loc 1 68 14 view .LVU2660
.LBB1428:
	.loc 1 70 3 view .LVU2661
	.loc 1 70 10 is_stmt 0 view .LVU2662
	mov	r0, r7
	bl	malloc
.LVL754:
	.loc 1 70 10 view .LVU2663
.LBE1428:
.LBE1427:
	.loc 1 158 7 view .LVU2664
	cmp	r0, #0
.LBB1430:
.LBB1429:
	.loc 1 70 10 view .LVU2665
	mov	fp, r0
.LVL755:
	.loc 1 70 10 view .LVU2666
.LBE1429:
.LBE1430:
	.loc 1 158 5 is_stmt 1 view .LVU2667
	.loc 1 158 7 is_stmt 0 view .LVU2668
	beq	.L800
	.loc 1 160 7 is_stmt 1 view .LVU2669
	.loc 1 161 7 view .LVU2670
.LVL756:
	.loc 1 161 7 is_stmt 0 view .LVU2671
.LBE1426:
.LBE1432:
.LBE1434:
.LBE1436:
.LBE1438:
	.loc 1 181 22 is_stmt 1 view .LVU2672
	cmp	r8, #0
	beq	.L798
	.loc 1 181 46 is_stmt 0 view .LVU2673
	cmn	r9, #1
	movne	r2, r7
	moveq	r2, #4
	mov	r1, #0
	str	r0, [sp, #4]
	bl	memset
.LVL757:
	.loc 1 181 46 view .LVU2674
.LBE1442:
.LBE1459:
.LBB1460:
	.loc 1 177 17 is_stmt 1 view .LVU2675
.LBB1458:
	.loc 1 179 3 view .LVU2676
	.loc 1 180 3 view .LVU2677
.LBB1457:
	.loc 1 169 17 view .LVU2678
	.loc 1 171 3 view .LVU2679
.LBB1456:
	.loc 1 152 17 view .LVU2680
	.loc 1 154 3 view .LVU2681
.LBB1453:
	.loc 1 156 5 view .LVU2682
	.loc 1 157 5 view .LVU2683
.LBB1454:
.LBI1454:
	.loc 1 68 14 view .LVU2684
.LBB1455:
	.loc 1 70 3 view .LVU2685
	.loc 1 70 10 is_stmt 0 view .LVU2686
	mov	r0, r7
	bl	malloc
.LVL758:
	.loc 1 70 10 view .LVU2687
.LBE1455:
.LBE1454:
	.loc 1 158 5 is_stmt 1 view .LVU2688
	.loc 1 158 7 is_stmt 0 view .LVU2689
	subs	r8, r0, #0
.LVL759:
	.loc 1 158 7 view .LVU2690
	ldr	r3, [sp, #4]
	beq	.L872
.LVL760:
.L834:
	.loc 1 158 7 view .LVU2691
.LBE1453:
.LBE1456:
.LBE1457:
	.loc 1 181 46 view .LVU2692
	mov	r2, r7
	mov	r1, #0
	mov	r0, r8
	bl	memset
.LVL761:
	.loc 1 181 46 view .LVU2693
.LBE1458:
.LBE1460:
	.loc 1 628 3 is_stmt 1 view .LVU2694
	.loc 1 628 5 is_stmt 0 view .LVU2695
	ldr	r3, [sp]
	cmp	r3, #0
	bne	.L803
.LVL762:
	.loc 1 631 24 is_stmt 1 view .LVU2696
	cmp	r4, #0
	beq	.L873
.LVL763:
.L804:
	.loc 1 631 70 is_stmt 0 view .LVU2697
	ldr	r2, [r5, #8]
	add	r0, r2, r10
	sub	r0, r0, #4
	sub	r2, r2, #4
.LVL764:
.L807:
	.loc 1 631 51 is_stmt 1 discriminator 3 view .LVU2698
	.loc 1 631 65 is_stmt 0 discriminator 3 view .LVU2699
	ldr	r1, [r2, #4]!
	.loc 1 631 51 discriminator 3 view .LVU2700
	ldr	r3, [fp, r1, lsl #2]
	.loc 1 631 24 discriminator 3 view .LVU2701
	cmp	r0, r2
	.loc 1 631 51 discriminator 3 view .LVU2702
	add	r3, r3, #1
	str	r3, [fp, r1, lsl #2]
	.loc 1 631 43 is_stmt 1 discriminator 3 view .LVU2703
	.loc 1 631 24 discriminator 3 view .LVU2704
	bne	.L807
.LVL765:
	.loc 1 633 24 view .LVU2705
	cmp	r9, #0
	beq	.L808
.LVL766:
.L805:
	.loc 1 633 24 is_stmt 0 view .LVU2706
	mov	r0, r8
	.loc 1 633 14 view .LVU2707
	mov	r2, #1
	ldr	r3, [r8]
	sub	r1, fp, #4
.L809:
.LVL767:
	.loc 1 635 7 is_stmt 1 discriminator 3 view .LVU2708
	.loc 1 635 54 is_stmt 0 discriminator 3 view .LVU2709
	ldr	ip, [r1, #4]!
	.loc 1 633 44 discriminator 3 view .LVU2710
	add	r2, r2, #1
.LVL768:
	.loc 1 635 54 discriminator 3 view .LVU2711
	add	r3, r3, ip
	.loc 1 635 80 discriminator 3 view .LVU2712
	lsl	r3, r3, #1
	.loc 1 633 24 discriminator 3 view .LVU2713
	cmp	r9, r2
	.loc 1 635 27 discriminator 3 view .LVU2714
	str	r3, [r0, #4]!
	.loc 1 633 44 is_stmt 1 discriminator 3 view .LVU2715
.LVL769:
	.loc 1 633 24 discriminator 3 view .LVU2716
	bcs	.L809
.LVL770:
.L808:
	.loc 1 638 18 view .LVU2717
	cmp	r4, #0
	beq	.L810
	mov	r1, r6
	.loc 1 640 14 is_stmt 0 view .LVU2718
	ldr	r3, [r5, #8]
	add	ip, r3, r10
	sub	ip, ip, #4
	sub	r3, r3, #4
.LVL771:
.L812:
	.loc 1 640 7 is_stmt 1 view .LVU2719
	.loc 1 640 33 view .LVU2720
	.loc 1 638 37 view .LVU2721
	.loc 1 638 18 view .LVU2722
	.loc 1 640 23 is_stmt 0 view .LVU2723
	ldr	r2, [r3, #4]!
	.loc 1 638 18 view .LVU2724
	add	r1, r1, #4
	.loc 1 640 9 view .LVU2725
	cmp	r2, #0
	.loc 1 640 64 view .LVU2726
	ldrne	r0, [r8, r2, lsl #2]
	.loc 1 640 49 view .LVU2727
	strne	r0, [r1, #-4]
	.loc 1 640 82 view .LVU2728
	addne	r0, r0, #1
	strne	r0, [r8, r2, lsl #2]
	.loc 1 638 18 view .LVU2729
	cmp	ip, r3
	bne	.L812
.L810:
.LVL772:
	.loc 1 644 3 is_stmt 1 view .LVU2730
.LBB1461:
.LBI1461:
	.loc 1 144 13 view .LVU2731
	.loc 1 146 3 view .LVU2732
	.loc 1 147 3 view .LVU2733
.LBB1462:
.LBI1462:
	.loc 1 73 13 view .LVU2734
.LBB1463:
	.loc 1 75 3 view .LVU2735
	mov	r0, fp
	bl	free
.LVL773:
	.loc 1 75 3 is_stmt 0 view .LVU2736
.LBE1463:
.LBE1462:
	.loc 1 148 3 is_stmt 1 view .LVU2737
	.loc 1 148 3 is_stmt 0 view .LVU2738
.LBE1461:
	.loc 1 645 3 is_stmt 1 view .LVU2739
.LBB1470:
.LBI1470:
	.loc 1 144 13 view .LVU2740
	.loc 1 146 3 view .LVU2741
	.loc 1 147 3 view .LVU2742
.LBB1471:
.LBI1471:
	.loc 1 73 13 view .LVU2743
.LBB1472:
	.loc 1 75 3 view .LVU2744
.LBE1472:
.LBE1471:
.LBE1470:
.LBB1481:
.LBB1482:
	.loc 1 552 29 is_stmt 0 view .LVU2745
	lsl	r7, r4, #3
.LBE1482:
.LBE1481:
.LBB1500:
.LBB1477:
.LBB1473:
	.loc 1 75 3 view .LVU2746
	mov	r0, r8
	bl	free
.LVL774:
	.loc 1 75 3 view .LVU2747
.LBE1473:
.LBE1477:
	.loc 1 148 3 is_stmt 1 view .LVU2748
	.loc 1 148 3 is_stmt 0 view .LVU2749
.LBE1500:
	.loc 1 647 3 is_stmt 1 view .LVU2750
	.loc 1 647 14 view .LVU2751
.LBB1501:
.LBI1481:
	.loc 1 546 17 view .LVU2752
.LBB1496:
	.loc 1 548 3 view .LVU2753
	.loc 1 549 3 view .LVU2754
	.loc 1 550 3 view .LVU2755
	.loc 1 552 3 view .LVU2756
.LBB1483:
.LBI1483:
	.loc 1 63 14 view .LVU2757
.LBB1484:
	.loc 1 65 3 view .LVU2758
	.loc 1 65 10 is_stmt 0 view .LVU2759
	mov	r0, r7
	bl	malloc
.LVL775:
	.loc 1 65 10 view .LVU2760
.LBE1484:
.LBE1483:
	.loc 1 553 5 view .LVU2761
	cmp	r0, #0
	.loc 1 552 16 view .LVU2762
	str	r0, [r5]
	.loc 1 553 3 is_stmt 1 view .LVU2763
	.loc 1 553 5 is_stmt 0 view .LVU2764
	beq	.L800
.LVL776:
	.loc 1 565 16 is_stmt 1 view .LVU2765
	lsls	r9, r4, #1
	beq	.L814
	sub	r2, r7, #4
	.loc 1 567 21 is_stmt 0 view .LVU2766
	ldr	r1, .L877
	add	r2, r0, r2
	sub	r3, r0, #4
.LVL777:
.L815:
	.loc 1 567 5 is_stmt 1 view .LVU2767
	.loc 1 567 21 is_stmt 0 view .LVU2768
	str	r1, [r3, #4]!
	.loc 1 565 38 is_stmt 1 view .LVU2769
	.loc 1 565 16 view .LVU2770
	cmp	r2, r3
	bne	.L815
.L814:
.LVL778:
	.loc 1 570 16 view .LVU2771
	cmp	r4, #0
	beq	.L819
	.loc 1 549 12 is_stmt 0 view .LVU2772
	mov	r2, #0
	.loc 1 548 12 view .LVU2773
	mov	r7, r2
	.loc 1 570 9 view .LVU2774
	mov	r10, r2
.LVL779:
	.loc 1 570 9 view .LVU2775
	ldr	r8, [r5, #8]
.LBB1486:
	.loc 1 577 9 view .LVU2776
	ldr	r5, .L877
.LVL780:
	.loc 1 577 9 view .LVU2777
	sub	r8, r8, #4
.LVL781:
.L820:
	.loc 1 577 9 view .LVU2778
.LBE1486:
	.loc 1 572 18 is_stmt 1 view .LVU2779
	.loc 1 572 34 is_stmt 0 view .LVU2780
	ldr	ip, [r8, #4]!
	.loc 1 572 18 view .LVU2781
	cmp	ip, #0
	beq	.L826
.LBB1487:
	.loc 1 574 7 is_stmt 1 view .LVU2782
	.loc 1 574 56 is_stmt 0 view .LVU2783
	ldr	lr, [r6, r10, lsl #2]
	.loc 1 574 85 view .LVU2784
	sub	r3, ip, #1
	.loc 1 574 60 view .LVU2785
	lsr	r3, lr, r3
	.loc 1 576 9 view .LVU2786
	cmp	r2, #0
	.loc 1 574 21 view .LVU2787
	and	r3, r3, #1
.LVL782:
	.loc 1 576 7 is_stmt 1 view .LVU2788
	.loc 1 576 9 is_stmt 0 view .LVU2789
	blt	.L822
	.loc 1 576 42 view .LVU2790
	add	r1, r2, #2
	.loc 1 576 31 view .LVU2791
	cmp	r4, r1
	bcc	.L822
.LBE1487:
	.loc 1 572 11 view .LVU2792
	mov	r1, #0
.LVL783:
.L830:
.LBB1488:
	.loc 1 577 7 is_stmt 1 view .LVU2793
	.loc 1 594 12 view .LVU2794
	.loc 1 577 35 is_stmt 0 view .LVU2795
	add	r3, r3, r2, lsl #1
.LVL784:
	.loc 1 577 22 view .LVU2796
	ldr	r2, [r0, r3, lsl #2]
.LVL785:
	.loc 1 579 14 view .LVU2797
	add	r1, r1, #1
.LVL786:
	.loc 1 577 9 view .LVU2798
	cmp	r2, r5
	.loc 1 594 20 view .LVU2799
	subne	r2, r2, r4
	.loc 1 577 9 view .LVU2800
	beq	.L874
.LVL787:
.L827:
	.loc 1 574 7 is_stmt 1 view .LVU2801
	.loc 1 574 7 is_stmt 0 view .LVU2802
.LBE1488:
	.loc 1 572 39 is_stmt 1 view .LVU2803
	.loc 1 572 18 view .LVU2804
.LBB1489:
	.loc 1 574 85 is_stmt 0 view .LVU2805
	sub	r3, ip, r1
	sub	r3, r3, #1
.LBE1489:
	.loc 1 572 18 view .LVU2806
	cmp	ip, r1
.LBB1490:
	.loc 1 576 42 view .LVU2807
	add	fp, r2, #2
	.loc 1 574 60 view .LVU2808
	lsr	r3, lr, r3
.LBE1490:
	.loc 1 572 18 view .LVU2809
	beq	.L826
.LBB1491:
	.loc 1 576 9 view .LVU2810
	cmp	r2, #0
	.loc 1 574 21 view .LVU2811
	and	r3, r3, #1
.LVL788:
	.loc 1 576 7 is_stmt 1 view .LVU2812
	.loc 1 576 9 is_stmt 0 view .LVU2813
	blt	.L822
	.loc 1 576 31 view .LVU2814
	cmp	r4, fp
	bcs	.L830
.LVL789:
.L822:
	.loc 1 576 71 view .LVU2815
	mov	r0, #55
.LVL790:
.L794:
	.loc 1 576 71 view .LVU2816
.LBE1491:
.LBE1496:
.LBE1501:
	.loc 1 649 1 view .LVU2817
	add	sp, sp, #12
	.cfi_remember_state
	.cfi_def_cfa_offset 36
	@ sp needed
	pop	{r4, r5, r6, r7, r8, r9, r10, fp, pc}
.LVL791:
.L798:
	.cfi_restore_state
	.loc 1 628 3 is_stmt 1 view .LVU2818
	.loc 1 628 5 is_stmt 0 view .LVU2819
	ldr	r3, [sp]
	cmp	r3, #0
	bne	.L837
.LVL792:
	.loc 1 631 24 is_stmt 1 view .LVU2820
	cmp	r4, #0
	moveq	r8, r4
	beq	.L805
	ldr	r8, [sp]
	b	.L804
.LVL793:
.L874:
.LBB1502:
.LBB1497:
.LBB1492:
	.loc 1 579 9 view .LVU2821
	.loc 1 588 11 view .LVU2822
	.loc 1 579 11 is_stmt 0 view .LVU2823
	cmp	ip, r1
	beq	.L875
	.loc 1 588 11 view .LVU2824
	add	r7, r7, #1
.LVL794:
	.loc 1 590 11 is_stmt 1 view .LVU2825
	.loc 1 590 56 is_stmt 0 view .LVU2826
	add	r2, r4, r7
	.loc 1 590 43 view .LVU2827
	str	r2, [r0, r3, lsl #2]
	.loc 1 591 11 is_stmt 1 view .LVU2828
.LVL795:
	.loc 1 591 11 is_stmt 0 view .LVU2829
	ldr	ip, [r8]
	.loc 1 591 19 view .LVU2830
	mov	r2, r7
	b	.L827
.LVL796:
.L875:
	.loc 1 581 11 is_stmt 1 view .LVU2831
	.loc 1 574 7 view .LVU2832
	.loc 1 581 43 is_stmt 0 view .LVU2833
	str	r10, [r0, r3, lsl #2]
	.loc 1 582 11 is_stmt 1 view .LVU2834
.LVL797:
	.loc 1 582 11 is_stmt 0 view .LVU2835
.LBE1492:
	.loc 1 572 39 is_stmt 1 view .LVU2836
	.loc 1 572 18 view .LVU2837
	.loc 1 572 34 is_stmt 0 view .LVU2838
	ldr	ip, [r8]
	.loc 1 572 18 view .LVU2839
	cmp	ip, r1
	beq	.L876
.LBB1493:
	.loc 1 574 85 view .LVU2840
	sub	r3, ip, r1
	sub	r3, r3, #1
	.loc 1 574 60 view .LVU2841
	lsr	r3, lr, r3
	.loc 1 582 19 view .LVU2842
	mov	r2, #0
	.loc 1 574 21 view .LVU2843
	and	r3, r3, #1
.LVL798:
	.loc 1 576 7 is_stmt 1 view .LVU2844
	.loc 1 576 7 is_stmt 0 view .LVU2845
	b	.L830
.LVL799:
.L876:
	.loc 1 582 19 view .LVU2846
	mov	r2, #0
.LVL800:
.L826:
	.loc 1 582 19 view .LVU2847
.LBE1493:
	.loc 1 570 34 is_stmt 1 view .LVU2848
	add	r10, r10, #1
.LVL801:
	.loc 1 570 16 view .LVU2849
	cmp	r4, r10
	bhi	.L820
.LVL802:
	.loc 1 598 16 view .LVU2850
	cmp	r9, #0
	beq	.L819
	.loc 1 600 50 is_stmt 0 view .LVU2851
	mov	r1, #0
	sub	r0, r0, #4
	.loc 1 600 7 view .LVU2852
	ldr	r2, .L877
.LVL803:
	.loc 1 600 7 view .LVU2853
	add	r9, r0, r9, lsl #2
.LVL804:
.L832:
	.loc 1 600 5 is_stmt 1 view .LVU2854
	.loc 1 598 38 view .LVU2855
	.loc 1 598 16 view .LVU2856
	.loc 1 600 7 is_stmt 0 view .LVU2857
	ldr	r3, [r0, #4]!
	cmp	r3, r2
	.loc 1 600 34 is_stmt 1 view .LVU2858
	.loc 1 600 50 is_stmt 0 view .LVU2859
	streq	r1, [r0]
	.loc 1 598 16 view .LVU2860
	cmp	r9, r0
	bne	.L832
	b	.L819
.LVL805:
.L872:
	.loc 1 598 16 view .LVU2861
.LBE1497:
.LBE1502:
	.loc 1 644 3 is_stmt 1 view .LVU2862
.LBB1503:
	.loc 1 144 13 view .LVU2863
	.loc 1 146 3 view .LVU2864
	.loc 1 147 3 view .LVU2865
.LBB1467:
	.loc 1 73 13 view .LVU2866
.LBB1464:
	.loc 1 75 3 view .LVU2867
	mov	r0, r3
.LVL806:
	.loc 1 75 3 is_stmt 0 view .LVU2868
	bl	free
.LVL807:
	.loc 1 75 3 view .LVU2869
.LBE1464:
.LBE1467:
	.loc 1 148 3 is_stmt 1 view .LVU2870
	.loc 1 148 3 is_stmt 0 view .LVU2871
.LBE1503:
	.loc 1 645 3 is_stmt 1 view .LVU2872
.LBB1504:
	.loc 1 144 13 view .LVU2873
	.loc 1 146 3 view .LVU2874
	.loc 1 147 3 view .LVU2875
.LBB1478:
	.loc 1 73 13 view .LVU2876
.LBB1474:
	.loc 1 75 3 view .LVU2877
	.loc 1 75 3 is_stmt 0 view .LVU2878
.LBE1474:
.LBE1478:
	.loc 1 148 3 is_stmt 1 view .LVU2879
	.loc 1 148 3 is_stmt 0 view .LVU2880
.LBE1504:
	.loc 1 647 3 is_stmt 1 view .LVU2881
.L800:
.LBB1505:
.LBB1498:
.LBB1494:
	.loc 1 576 71 is_stmt 0 view .LVU2882
	mov	r0, #83
.LBE1494:
.LBE1498:
.LBE1505:
	.loc 1 649 1 view .LVU2883
	add	sp, sp, #12
	.cfi_remember_state
	.cfi_def_cfa_offset 36
	@ sp needed
	pop	{r4, r5, r6, r7, r8, r9, r10, fp, pc}
.LVL808:
.L837:
	.cfi_restore_state
	.loc 1 628 5 view .LVU2884
	mov	r8, #0
.L803:
.LVL809:
	.loc 1 644 3 is_stmt 1 view .LVU2885
.LBB1506:
	.loc 1 144 13 view .LVU2886
	.loc 1 146 3 view .LVU2887
	.loc 1 147 3 view .LVU2888
.LBB1468:
	.loc 1 73 13 view .LVU2889
.LBB1465:
	.loc 1 75 3 view .LVU2890
	mov	r0, fp
	bl	free
.LVL810:
	.loc 1 75 3 is_stmt 0 view .LVU2891
.LBE1465:
.LBE1468:
	.loc 1 148 3 is_stmt 1 view .LVU2892
	.loc 1 148 3 is_stmt 0 view .LVU2893
.LBE1506:
	.loc 1 645 3 is_stmt 1 view .LVU2894
.LBB1507:
	.loc 1 144 13 view .LVU2895
	.loc 1 146 3 view .LVU2896
	.loc 1 147 3 view .LVU2897
.LBB1479:
	.loc 1 73 13 view .LVU2898
.LBB1475:
	.loc 1 75 3 view .LVU2899
	mov	r0, r8
	bl	free
.LVL811:
	.loc 1 75 3 is_stmt 0 view .LVU2900
.LBE1475:
.LBE1479:
	.loc 1 148 3 is_stmt 1 view .LVU2901
	.loc 1 148 3 is_stmt 0 view .LVU2902
.LBE1507:
	.loc 1 647 3 is_stmt 1 view .LVU2903
	b	.L800
.LVL812:
.L873:
	.loc 1 633 24 view .LVU2904
	cmp	r9, #0
	bne	.L805
.LVL813:
	.loc 1 644 3 view .LVU2905
.LBB1508:
	.loc 1 144 13 view .LVU2906
	.loc 1 146 3 view .LVU2907
	.loc 1 147 3 view .LVU2908
.LBB1469:
	.loc 1 73 13 view .LVU2909
.LBB1466:
	.loc 1 75 3 view .LVU2910
	mov	r0, fp
	bl	free
.LVL814:
	.loc 1 75 3 is_stmt 0 view .LVU2911
.LBE1466:
.LBE1469:
	.loc 1 148 3 is_stmt 1 view .LVU2912
	.loc 1 148 3 is_stmt 0 view .LVU2913
.LBE1508:
	.loc 1 645 3 is_stmt 1 view .LVU2914
.LBB1509:
	.loc 1 144 13 view .LVU2915
	.loc 1 146 3 view .LVU2916
	.loc 1 147 3 view .LVU2917
.LBB1480:
	.loc 1 73 13 view .LVU2918
.LBB1476:
	.loc 1 75 3 view .LVU2919
	mov	r0, r8
	bl	free
.LVL815:
	.loc 1 75 3 is_stmt 0 view .LVU2920
.LBE1476:
.LBE1480:
	.loc 1 148 3 is_stmt 1 view .LVU2921
	.loc 1 148 3 is_stmt 0 view .LVU2922
.LBE1509:
	.loc 1 647 3 is_stmt 1 view .LVU2923
	.loc 1 647 14 view .LVU2924
.LBB1510:
	.loc 1 546 17 view .LVU2925
.LBB1499:
	.loc 1 548 3 view .LVU2926
	.loc 1 549 3 view .LVU2927
	.loc 1 550 3 view .LVU2928
	.loc 1 552 3 view .LVU2929
.LBB1495:
	.loc 1 63 14 view .LVU2930
.LBB1485:
	.loc 1 65 3 view .LVU2931
	.loc 1 65 10 is_stmt 0 view .LVU2932
	mov	r0, r9
	bl	malloc
.LVL816:
	.loc 1 65 10 view .LVU2933
.LBE1485:
.LBE1495:
	.loc 1 553 5 view .LVU2934
	cmp	r0, #0
	.loc 1 552 16 view .LVU2935
	str	r0, [r5]
	.loc 1 553 3 is_stmt 1 view .LVU2936
	.loc 1 553 5 is_stmt 0 view .LVU2937
	beq	.L800
.LVL817:
.L819:
	.loc 1 603 10 view .LVU2938
	mov	r0, #0
	b	.L794
.L878:
	.align	2
.L877:
	.word	32767
.LBE1499:
.LBE1510:
	.cfi_endproc
.LFE36:
	.size	HuffmanTree_makeFromLengths2, .-HuffmanTree_makeFromLengths2
	.section	.text.HuffmanTree_makeFromFrequencies.constprop.0,"ax",%progbits
	.align	2
	.syntax unified
	.arm
	.type	HuffmanTree_makeFromFrequencies.constprop.0, %function
HuffmanTree_makeFromFrequencies.constprop.0:
.LVL818:
.LFB227:
	.loc 1 879 17 is_stmt 1 view -0
	.cfi_startproc
	@ args = 4, pretend = 0, frame = 0
	@ frame_needed = 0, uses_anonymous_args = 0
	.loc 1 879 17 is_stmt 0 view .LVU2940
	push	{r4, r5, r6, r7, r8, lr}
	.cfi_def_cfa_offset 24
	.cfi_offset 4, -24
	.cfi_offset 5, -20
	.cfi_offset 6, -16
	.cfi_offset 7, -12
	.cfi_offset 8, -8
	.cfi_offset 14, -4
	.loc 1 883 21 view .LVU2941
	sub	lr, r3, #-1073741823
	.loc 1 879 17 view .LVU2942
	mov	r4, r3
	.loc 1 883 36 is_stmt 1 view .LVU2943
	ldr	r3, [r1, lr, lsl #2]
.LVL819:
	.loc 1 883 36 is_stmt 0 view .LVU2944
	cmp	r2, r4
	clz	r3, r3
	lsr	r3, r3, #5
	movcs	r3, #0
	cmp	r3, #0
	.loc 1 879 17 view .LVU2945
	mov	r6, r1
	mov	r5, r0
	ldr	r7, [sp, #24]
	.loc 1 883 21 view .LVU2946
	add	lr, r1, lr, lsl #2
	.loc 1 883 36 view .LVU2947
	beq	.L880
.L881:
	.loc 1 883 60 is_stmt 1 view .LVU2948
	.loc 1 883 36 is_stmt 0 view .LVU2949
	ldr	ip, [lr, #-4]!
	.loc 1 883 60 view .LVU2950
	sub	r4, r4, #1
.LVL820:
	.loc 1 883 36 is_stmt 1 view .LVU2951
	clz	ip, ip
	cmp	r4, r2
	lsr	ip, ip, #5
	movls	ip, #0
	cmp	ip, #0
	bne	.L881
.L880:
	.loc 1 884 3 view .LVU2952
.LBB1517:
.LBB1518:
	.loc 1 70 10 is_stmt 0 view .LVU2953
	mov	r1, #1
.LVL821:
	.loc 1 70 10 view .LVU2954
.LBE1518:
.LBE1517:
	.loc 1 884 19 view .LVU2955
	str	r7, [r5, #12]
	.loc 1 885 3 is_stmt 1 view .LVU2956
	.loc 1 885 18 is_stmt 0 view .LVU2957
	str	r4, [r5, #16]
	.loc 1 886 3 is_stmt 1 view .LVU2958
.LVL822:
.LBB1520:
.LBI1517:
	.loc 1 68 14 view .LVU2959
.LBB1519:
	.loc 1 70 3 view .LVU2960
	.loc 1 70 10 is_stmt 0 view .LVU2961
	lsl	r0, r4, #2
.LVL823:
	.loc 1 70 10 view .LVU2962
	bl	calloc
.LVL824:
	.loc 1 70 10 view .LVU2963
.LBE1519:
.LBE1520:
	.loc 1 887 5 view .LVU2964
	cmp	r0, #0
	.loc 1 886 17 view .LVU2965
	str	r0, [r5, #8]
	.loc 1 887 3 is_stmt 1 view .LVU2966
	.loc 1 887 5 is_stmt 0 view .LVU2967
	beq	.L883
	.loc 1 889 3 is_stmt 1 view .LVU2968
	.loc 1 891 3 view .LVU2969
.LVL825:
.LBB1521:
.LBI1521:
	.loc 1 789 10 view .LVU2970
.LBB1522:
	.loc 1 792 3 view .LVU2971
	.loc 1 793 3 view .LVU2972
	.loc 1 794 3 view .LVU2973
	.loc 1 795 3 view .LVU2974
	.loc 1 797 3 view .LVU2975
	.loc 1 797 5 is_stmt 0 view .LVU2976
	cmp	r4, #0
	beq	.L885
	.loc 1 798 3 is_stmt 1 view .LVU2977
	.loc 1 798 10 is_stmt 0 view .LVU2978
	mov	r3, #1
	.loc 1 798 5 view .LVU2979
	cmp	r4, r3, lsl r7
	bhi	.L885
	mov	r3, r7
	mov	r2, r4
	mov	r1, r6
	bl	lodepng_huffman_code_lengths.part.0
.LVL826:
	.loc 1 798 5 view .LVU2980
.LBE1522:
.LBE1521:
	.loc 1 892 3 is_stmt 1 view .LVU2981
	.loc 1 892 5 is_stmt 0 view .LVU2982
	cmp	r0, #0
	.loc 1 892 5 view .LVU2983
	popne	{r4, r5, r6, r7, r8, pc}
	.loc 1 892 14 is_stmt 1 view .LVU2984
	.loc 1 892 22 is_stmt 0 view .LVU2985
	mov	r0, r5
.LVL827:
	.loc 1 894 1 view .LVU2986
	pop	{r4, r5, r6, r7, r8, lr}
	.cfi_remember_state
	.cfi_restore 14
	.cfi_restore 8
	.cfi_restore 7
	.cfi_restore 6
	.cfi_restore 5
	.cfi_restore 4
	.cfi_def_cfa_offset 0
.LVL828:
	.loc 1 892 22 view .LVU2987
	b	HuffmanTree_makeFromLengths2
.LVL829:
.L885:
	.cfi_restore_state
.LBB1524:
.LBB1523:
	.loc 1 797 28 view .LVU2988
	mov	r0, #80
.LVL830:
	.loc 1 797 28 view .LVU2989
.LBE1523:
.LBE1524:
	.loc 1 894 1 view .LVU2990
	pop	{r4, r5, r6, r7, r8, pc}
.LVL831:
.L883:
	.loc 1 887 29 view .LVU2991
	mov	r0, #83
	pop	{r4, r5, r6, r7, r8, pc}
	.cfi_endproc
.LFE227:
	.size	HuffmanTree_makeFromFrequencies.constprop.0, .-HuffmanTree_makeFromFrequencies.constprop.0
	.section	.text.generateFixedDistanceTree.constprop.0.isra.0,"ax",%progbits
	.align	2
	.syntax unified
	.arm
	.type	generateFixedDistanceTree.constprop.0.isra.0, %function
generateFixedDistanceTree.constprop.0.isra.0:
.LVL832:
.LFB229:
	.loc 1 927 17 is_stmt 1 view -0
	.cfi_startproc
	@ args = 0, pretend = 0, frame = 0
	@ frame_needed = 0, uses_anonymous_args = 0
	.loc 1 929 3 view .LVU2993
	.loc 1 930 3 view .LVU2994
.LBB1541:
.LBI1541:
	.loc 1 63 14 view .LVU2995
.LBB1542:
	.loc 1 65 3 view .LVU2996
.LBE1542:
.LBE1541:
	.loc 1 927 17 is_stmt 0 view .LVU2997
	push	{r4, r5, r6, lr}
	.cfi_def_cfa_offset 16
	.cfi_offset 4, -16
	.cfi_offset 5, -12
	.cfi_offset 6, -8
	.cfi_offset 14, -4
	.loc 1 927 17 view .LVU2998
	mov	r5, r0
.LBB1544:
.LBB1543:
	.loc 1 65 10 view .LVU2999
	mov	r0, #128
.LVL833:
	.loc 1 65 10 view .LVU3000
	bl	malloc
.LVL834:
	.loc 1 65 10 view .LVU3001
.LBE1543:
.LBE1544:
	.loc 1 931 3 is_stmt 1 view .LVU3002
	.loc 1 931 5 is_stmt 0 view .LVU3003
	subs	r4, r0, #0
	popeq	{r4, r5, r6, pc}
	.loc 1 934 38 view .LVU3004
	mov	ip, #5
	sub	r3, r4, #4
	add	r2, r4, #124
.L893:
	.loc 1 934 28 is_stmt 1 view .LVU3005
	.loc 1 934 38 is_stmt 0 view .LVU3006
	str	ip, [r3, #4]!
	.loc 1 934 23 is_stmt 1 view .LVU3007
	.loc 1 934 16 view .LVU3008
	cmp	r2, r3
	bne	.L893
	.loc 1 935 3 view .LVU3009
.LVL835:
.LBB1545:
.LBI1545:
	.loc 1 656 17 view .LVU3010
.LBB1546:
	.loc 1 659 3 view .LVU3011
	.loc 1 660 3 view .LVU3012
.LBB1547:
.LBI1547:
	.loc 1 63 14 view .LVU3013
.LBB1548:
	.loc 1 65 3 view .LVU3014
	.loc 1 65 10 is_stmt 0 view .LVU3015
	mov	r0, #128
.LVL836:
	.loc 1 65 10 view .LVU3016
	bl	malloc
.LVL837:
	.loc 1 65 10 view .LVU3017
.LBE1548:
.LBE1547:
	.loc 1 661 5 view .LVU3018
	cmp	r0, #0
	.loc 1 660 17 view .LVU3019
	str	r0, [r5, #8]
	.loc 1 661 3 is_stmt 1 view .LVU3020
	.loc 1 661 5 is_stmt 0 view .LVU3021
	beq	.L894
	.loc 1 662 51 view .LVU3022
	mov	r2, #128
	mov	r1, r4
	bl	memcpy
.LVL838:
	.loc 1 663 3 is_stmt 1 view .LVU3023
	.loc 1 664 3 view .LVU3024
	.loc 1 664 19 is_stmt 0 view .LVU3025
	mov	r2, #15
	mov	r3, #32
	.loc 1 665 10 view .LVU3026
	mov	r0, r5
	.loc 1 664 19 view .LVU3027
	str	r2, [r5, #12]	@ unaligned
	str	r3, [r5, #16]	@ unaligned
	.loc 1 665 3 is_stmt 1 view .LVU3028
	.loc 1 665 10 is_stmt 0 view .LVU3029
	bl	HuffmanTree_makeFromLengths2
.LVL839:
.L894:
	.loc 1 665 10 view .LVU3030
.LBE1546:
.LBE1545:
	.loc 1 937 3 is_stmt 1 view .LVU3031
.LBB1549:
.LBI1549:
	.loc 1 73 13 view .LVU3032
.LBB1550:
	.loc 1 75 3 view .LVU3033
	mov	r0, r4
.LBE1550:
.LBE1549:
	.loc 1 939 1 is_stmt 0 view .LVU3034
	pop	{r4, r5, r6, lr}
	.cfi_restore 14
	.cfi_restore 6
	.cfi_restore 5
	.cfi_restore 4
	.cfi_def_cfa_offset 0
.LVL840:
.LBB1552:
.LBB1551:
	.loc 1 75 3 view .LVU3035
	b	free
.LVL841:
	.loc 1 75 3 view .LVU3036
.LBE1551:
.LBE1552:
	.cfi_endproc
.LFE229:
	.size	generateFixedDistanceTree.constprop.0.isra.0, .-generateFixedDistanceTree.constprop.0.isra.0
	.section	.text.generateFixedLitLenTree.constprop.0.isra.0,"ax",%progbits
	.align	2
	.syntax unified
	.arm
	.type	generateFixedLitLenTree.constprop.0.isra.0, %function
generateFixedLitLenTree.constprop.0.isra.0:
.LVL842:
.LFB231:
	.loc 1 908 17 is_stmt 1 view -0
	.cfi_startproc
	@ args = 0, pretend = 0, frame = 0
	@ frame_needed = 0, uses_anonymous_args = 0
	.loc 1 910 3 view .LVU3038
	.loc 1 911 3 view .LVU3039
.LBB1569:
.LBI1569:
	.loc 1 63 14 view .LVU3040
.LBB1570:
	.loc 1 65 3 view .LVU3041
.LBE1570:
.LBE1569:
	.loc 1 908 17 is_stmt 0 view .LVU3042
	push	{r4, r5, r6, lr}
	.cfi_def_cfa_offset 16
	.cfi_offset 4, -16
	.cfi_offset 5, -12
	.cfi_offset 6, -8
	.cfi_offset 14, -4
	.loc 1 908 17 view .LVU3043
	mov	r4, r0
.LBB1572:
.LBB1571:
	.loc 1 65 10 view .LVU3044
	mov	r0, #1152
.LVL843:
	.loc 1 65 10 view .LVU3045
	bl	malloc
.LVL844:
	.loc 1 65 10 view .LVU3046
.LBE1571:
.LBE1572:
	.loc 1 912 3 is_stmt 1 view .LVU3047
	.loc 1 912 5 is_stmt 0 view .LVU3048
	subs	r5, r0, #0
	popeq	{r4, r5, r6, pc}
	.loc 1 915 39 view .LVU3049
	mov	ip, #8
	sub	r3, r5, #4
	add	r2, r5, #572
.L902:
	.loc 1 915 29 is_stmt 1 view .LVU3050
	.loc 1 915 39 is_stmt 0 view .LVU3051
	str	ip, [r3, #4]!
	.loc 1 915 24 is_stmt 1 view .LVU3052
	.loc 1 915 16 view .LVU3053
	cmp	r3, r2
	bne	.L902
	.loc 1 916 41 is_stmt 0 view .LVU3054
	mov	ip, #9
	add	r2, r5, #1020
.L903:
	.loc 1 916 31 is_stmt 1 view .LVU3055
	.loc 1 916 41 is_stmt 0 view .LVU3056
	str	ip, [r3, #4]!
	.loc 1 916 26 is_stmt 1 view .LVU3057
	.loc 1 916 18 view .LVU3058
	cmp	r3, r2
	bne	.L903
	.loc 1 917 41 is_stmt 0 view .LVU3059
	mov	r1, #7
	add	r2, r5, #1104
	add	r0, r2, #12
.LVL845:
.L904:
	.loc 1 917 31 is_stmt 1 view .LVU3060
	.loc 1 917 41 is_stmt 0 view .LVU3061
	str	r1, [r3, #4]!
	.loc 1 917 26 is_stmt 1 view .LVU3062
	.loc 1 917 18 view .LVU3063
	cmp	r0, r3
	bne	.L904
	.loc 1 918 41 is_stmt 0 view .LVU3064
	mov	r0, #8
	add	r1, r5, #1136
	add	r3, r2, #12
	add	r1, r1, #12
.L905:
	.loc 1 918 31 is_stmt 1 view .LVU3065
	.loc 1 918 41 is_stmt 0 view .LVU3066
	str	r0, [r3, #4]!
	.loc 1 918 26 is_stmt 1 view .LVU3067
	.loc 1 918 18 view .LVU3068
	cmp	r1, r3
	bne	.L905
	.loc 1 920 3 view .LVU3069
.LVL846:
.LBB1573:
.LBI1573:
	.loc 1 656 17 view .LVU3070
.LBB1574:
	.loc 1 659 3 view .LVU3071
	.loc 1 660 3 view .LVU3072
.LBB1575:
.LBI1575:
	.loc 1 63 14 view .LVU3073
.LBB1576:
	.loc 1 65 3 view .LVU3074
	.loc 1 65 10 is_stmt 0 view .LVU3075
	mov	r0, #1152
	bl	malloc
.LVL847:
	.loc 1 65 10 view .LVU3076
.LBE1576:
.LBE1575:
	.loc 1 661 5 view .LVU3077
	cmp	r0, #0
	.loc 1 660 17 view .LVU3078
	str	r0, [r4, #8]
	.loc 1 661 3 is_stmt 1 view .LVU3079
	.loc 1 661 5 is_stmt 0 view .LVU3080
	beq	.L906
	.loc 1 662 51 view .LVU3081
	mov	r2, #1152
	mov	r1, r5
	bl	memcpy
.LVL848:
	.loc 1 663 3 is_stmt 1 view .LVU3082
	.loc 1 664 3 view .LVU3083
	.loc 1 664 19 is_stmt 0 view .LVU3084
	mov	r2, #15
	mov	r3, #288
	.loc 1 665 10 view .LVU3085
	mov	r0, r4
	.loc 1 664 19 view .LVU3086
	str	r2, [r4, #12]	@ unaligned
	str	r3, [r4, #16]	@ unaligned
	.loc 1 665 3 is_stmt 1 view .LVU3087
	.loc 1 665 10 is_stmt 0 view .LVU3088
	bl	HuffmanTree_makeFromLengths2
.LVL849:
.L906:
	.loc 1 665 10 view .LVU3089
.LBE1574:
.LBE1573:
	.loc 1 922 3 is_stmt 1 view .LVU3090
.LBB1577:
.LBI1577:
	.loc 1 73 13 view .LVU3091
.LBB1578:
	.loc 1 75 3 view .LVU3092
	mov	r0, r5
.LBE1578:
.LBE1577:
	.loc 1 924 1 is_stmt 0 view .LVU3093
	pop	{r4, r5, r6, lr}
	.cfi_restore 14
	.cfi_restore 6
	.cfi_restore 5
	.cfi_restore 4
	.cfi_def_cfa_offset 0
.LVL850:
.LBB1580:
.LBB1579:
	.loc 1 75 3 view .LVU3094
	b	free
.LVL851:
	.loc 1 75 3 view .LVU3095
.LBE1579:
.LBE1580:
	.cfi_endproc
.LFE231:
	.size	generateFixedLitLenTree.constprop.0.isra.0, .-generateFixedLitLenTree.constprop.0.isra.0
	.section	.text.getPixelColorRGBA8,"ax",%progbits
	.align	2
	.syntax unified
	.arm
	.type	getPixelColorRGBA8, %function
getPixelColorRGBA8:
.LVL852:
.LFB142:
	.loc 1 3185 1 is_stmt 1 view -0
	.cfi_startproc
	@ args = 12, pretend = 0, frame = 0
	@ frame_needed = 0, uses_anonymous_args = 0
	.loc 1 3186 3 view .LVU3097
	.loc 1 3185 1 is_stmt 0 view .LVU3098
	push	{r4, r5, r6, r7, r8, r9, r10, lr}
	.cfi_def_cfa_offset 32
	.cfi_offset 4, -32
	.cfi_offset 5, -28
	.cfi_offset 6, -24
	.cfi_offset 7, -20
	.cfi_offset 8, -16
	.cfi_offset 9, -12
	.cfi_offset 10, -8
	.cfi_offset 14, -4
	.loc 1 3185 1 view .LVU3099
	ldr	r5, [sp, #40]
	mov	r6, r0
	.loc 1 3186 10 view .LVU3100
	ldrb	lr, [r5]	@ zero_extendqisi2
	.loc 1 3185 1 view .LVU3101
	mov	r7, r1
	.loc 1 3186 5 view .LVU3102
	cmp	lr, #0
	.loc 1 3185 1 view .LVU3103
	mov	r9, r2
	mov	r8, r3
	ldr	r10, [sp, #32]
	ldr	ip, [sp, #36]
	.loc 1 3186 5 view .LVU3104
	bne	.L916
	.loc 1 3188 5 is_stmt 1 view .LVU3105
	.loc 1 3188 12 is_stmt 0 view .LVU3106
	ldr	r4, [r5, #4]
	.loc 1 3188 7 view .LVU3107
	cmp	r4, #8
	beq	.L960
	.loc 1 3194 10 is_stmt 1 view .LVU3108
	.loc 1 3194 12 is_stmt 0 view .LVU3109
	cmp	r4, #16
	bne	.L920
	.loc 1 3196 7 is_stmt 1 view .LVU3110
	.loc 1 3196 24 is_stmt 0 view .LVU3111
	ldrb	r3, [r10, ip, lsl #1]	@ zero_extendqisi2
.LVL853:
	.loc 1 3196 20 view .LVU3112
	strb	r3, [r2]
	.loc 1 3196 15 view .LVU3113
	strb	r3, [r1]
	.loc 1 3196 10 view .LVU3114
	strb	r3, [r0]
	.loc 1 3197 7 is_stmt 1 view .LVU3115
	.loc 1 3197 9 is_stmt 0 view .LVU3116
	ldr	r3, [r5, #16]
	cmp	r3, #0
	.loc 1 3196 24 view .LVU3117
	add	r3, r10, ip, lsl #1
	.loc 1 3197 9 view .LVU3118
	beq	.L918
	.loc 1 3197 56 discriminator 1 view .LVU3119
	ldrb	r3, [r3, #1]	@ zero_extendqisi2
	.loc 1 3197 40 discriminator 1 view .LVU3120
	ldrb	r1, [r10, ip, lsl #1]	@ zero_extendqisi2
.LVL854:
	.loc 1 3197 28 discriminator 1 view .LVU3121
	ldr	r2, [r5, #20]
.LVL855:
	.loc 1 3197 52 discriminator 1 view .LVU3122
	add	r3, r3, r1, lsl #8
	.loc 1 3197 28 discriminator 1 view .LVU3123
	cmp	r3, r2
	bne	.L918
.LVL856:
.L921:
	.loc 1 3191 50 is_stmt 1 discriminator 2 view .LVU3124
	.loc 1 3191 53 is_stmt 0 discriminator 2 view .LVU3125
	mov	r3, #0
	strb	r3, [r8]
	pop	{r4, r5, r6, r7, r8, r9, r10, pc}
.LVL857:
.L916:
	.loc 1 3210 8 is_stmt 1 view .LVU3126
	sub	r0, lr, #2
.LVL858:
	.loc 1 3210 8 is_stmt 0 view .LVU3127
	cmp	r0, #4
	ldrls	pc, [pc, r0, asl #2]
	b	.L915
.L925:
	.word	.L928
	.word	.L927
	.word	.L926
	.word	.L915
	.word	.L924
.L924:
	.loc 1 3269 5 is_stmt 1 view .LVU3128
	.loc 1 3269 7 is_stmt 0 view .LVU3129
	ldr	r3, [r5, #4]
.LVL859:
	.loc 1 3269 7 view .LVU3130
	cmp	r3, #8
	beq	.L961
	.loc 1 3278 7 is_stmt 1 view .LVU3131
	.loc 1 3278 14 is_stmt 0 view .LVU3132
	ldrb	r3, [r10, ip, lsl #3]	@ zero_extendqisi2
	.loc 1 3279 14 view .LVU3133
	add	r10, r10, ip, lsl #3
	.loc 1 3278 10 view .LVU3134
	strb	r3, [r6]
	.loc 1 3279 7 is_stmt 1 view .LVU3135
	.loc 1 3279 14 is_stmt 0 view .LVU3136
	ldrb	r3, [r10, #2]	@ zero_extendqisi2
	.loc 1 3279 10 view .LVU3137
	strb	r3, [r1]
	.loc 1 3280 7 is_stmt 1 view .LVU3138
	.loc 1 3280 14 is_stmt 0 view .LVU3139
	ldrb	r3, [r10, #4]	@ zero_extendqisi2
	.loc 1 3280 10 view .LVU3140
	strb	r3, [r2]
	.loc 1 3281 7 is_stmt 1 view .LVU3141
	.loc 1 3281 14 is_stmt 0 view .LVU3142
	ldrb	r3, [r10, #6]	@ zero_extendqisi2
	.loc 1 3281 10 view .LVU3143
	strb	r3, [r8]
.L915:
	.loc 1 3284 1 view .LVU3144
	pop	{r4, r5, r6, r7, r8, r9, r10, pc}
.LVL860:
.L960:
	.loc 1 3190 7 is_stmt 1 view .LVU3145
	.loc 1 3190 24 is_stmt 0 view .LVU3146
	ldrb	r3, [r10, ip]	@ zero_extendqisi2
.LVL861:
	.loc 1 3190 20 view .LVU3147
	strb	r3, [r2]
	.loc 1 3190 15 view .LVU3148
	strb	r3, [r1]
	.loc 1 3190 10 view .LVU3149
	strb	r3, [r0]
	.loc 1 3191 7 is_stmt 1 view .LVU3150
	.loc 1 3191 9 is_stmt 0 view .LVU3151
	ldr	r2, [r5, #16]
.LVL862:
	.loc 1 3191 9 view .LVU3152
	cmp	r2, #0
	beq	.L918
	.loc 1 3191 28 discriminator 1 view .LVU3153
	ldr	r2, [r5, #20]
	cmp	r3, r2
	beq	.L921
.LVL863:
.L918:
	.loc 1 3192 12 is_stmt 1 view .LVU3154
	.loc 1 3192 15 is_stmt 0 view .LVU3155
	mvn	r3, #0
	strb	r3, [r8]
	pop	{r4, r5, r6, r7, r8, r9, r10, pc}
.LVL864:
.L920:
.LBB1592:
	.loc 1 3202 7 is_stmt 1 view .LVU3156
	.loc 1 3202 31 is_stmt 0 view .LVU3157
	mvn	r1, #0
.LVL865:
.LBB1593:
.LBB1594:
	.loc 1 2388 17 view .LVU3158
	cmp	r4, #0
.LBE1594:
.LBE1593:
	.loc 1 3202 16 view .LVU3159
	mvn	r1, r1, lsl r4
.LVL866:
	.loc 1 3203 7 is_stmt 1 view .LVU3160
	.loc 1 3203 20 is_stmt 0 view .LVU3161
	mul	ip, ip, r4
.LVL867:
	.loc 1 3204 7 is_stmt 1 view .LVU3162
.LBB1599:
.LBI1593:
	.loc 1 2384 17 view .LVU3163
.LBB1597:
	.loc 1 2386 3 view .LVU3164
	.loc 1 2387 3 view .LVU3165
	.loc 1 2388 3 view .LVU3166
	.loc 1 2388 17 view .LVU3167
	beq	.L922
	add	r2, r4, ip
.LVL868:
	.loc 1 2386 12 is_stmt 0 view .LVU3168
	mov	r4, lr
.LVL869:
.L923:
	.loc 1 2390 5 is_stmt 1 view .LVU3169
	.loc 1 2391 5 view .LVU3170
.LBB1595:
.LBI1595:
	.loc 1 2377 22 view .LVU3171
.LBB1596:
	.loc 1 2379 3 view .LVU3172
	.loc 1 2379 79 is_stmt 0 view .LVU3173
	mvn	r3, ip
	.loc 1 2379 52 view .LVU3174
	ldrb	lr, [r10, ip, lsr #3]	@ zero_extendqisi2
	.loc 1 2379 79 view .LVU3175
	and	r3, r3, #7
	.loc 1 2380 3 view .LVU3176
	add	ip, ip, #1
.LVL870:
	.loc 1 2379 73 view .LVU3177
	asr	lr, lr, r3
	.loc 1 2379 17 view .LVU3178
	and	lr, lr, #1
.LVL871:
	.loc 1 2380 3 is_stmt 1 view .LVU3179
	.loc 1 2381 3 view .LVU3180
	.loc 1 2381 3 is_stmt 0 view .LVU3181
.LBE1596:
.LBE1595:
	.loc 1 2388 17 view .LVU3182
	cmp	ip, r2
	.loc 1 2391 12 view .LVU3183
	orr	r4, lr, r4, lsl #1
.LVL872:
	.loc 1 2388 26 is_stmt 1 view .LVU3184
	.loc 1 2388 17 view .LVU3185
	bne	.L923
.LBE1597:
.LBE1599:
	.loc 1 3205 36 is_stmt 0 view .LVU3186
	rsb	r0, r4, r4, lsl #8
.LVL873:
	.loc 1 3205 36 view .LVU3187
	bl	__aeabi_uidiv
.LVL874:
	.loc 1 3205 20 view .LVU3188
	uxtb	lr, r0
.LVL875:
.L922:
.LBB1600:
.LBB1598:
	.loc 1 2393 3 is_stmt 1 view .LVU3189
	.loc 1 2393 3 is_stmt 0 view .LVU3190
.LBE1598:
.LBE1600:
	.loc 1 3205 7 is_stmt 1 view .LVU3191
	.loc 1 3205 20 is_stmt 0 view .LVU3192
	strb	lr, [r9]
	.loc 1 3205 15 view .LVU3193
	strb	lr, [r7]
	.loc 1 3205 10 view .LVU3194
	strb	lr, [r6]
	.loc 1 3206 7 is_stmt 1 view .LVU3195
	.loc 1 3206 9 is_stmt 0 view .LVU3196
	ldr	r3, [r5, #16]
	cmp	r3, #0
	beq	.L918
	.loc 1 3206 28 discriminator 1 view .LVU3197
	ldr	r3, [r5, #20]
	cmp	r3, r4
	bne	.L918
	b	.L921
.LVL876:
.L926:
	.loc 1 3206 28 discriminator 1 view .LVU3198
.LBE1592:
	.loc 1 3256 5 is_stmt 1 view .LVU3199
	.loc 1 3256 7 is_stmt 0 view .LVU3200
	ldr	r3, [r5, #4]
.LVL877:
	.loc 1 3256 7 view .LVU3201
	cmp	r3, #8
	beq	.L962
	.loc 1 3263 7 is_stmt 1 view .LVU3202
	.loc 1 3263 24 is_stmt 0 view .LVU3203
	ldrb	r3, [r10, ip, lsl #2]	@ zero_extendqisi2
	.loc 1 3264 14 view .LVU3204
	add	ip, r10, ip, lsl #2
	.loc 1 3263 20 view .LVU3205
	strb	r3, [r2]
	.loc 1 3263 15 view .LVU3206
	strb	r3, [r1]
	.loc 1 3263 10 view .LVU3207
	strb	r3, [r6]
	.loc 1 3264 7 is_stmt 1 view .LVU3208
	.loc 1 3264 14 is_stmt 0 view .LVU3209
	ldrb	r3, [ip, #2]	@ zero_extendqisi2
	.loc 1 3264 10 view .LVU3210
	strb	r3, [r8]
	pop	{r4, r5, r6, r7, r8, r9, r10, pc}
.LVL878:
.L927:
.LBB1601:
	.loc 1 3231 5 is_stmt 1 view .LVU3211
	.loc 1 3232 5 view .LVU3212
	.loc 1 3232 12 is_stmt 0 view .LVU3213
	ldr	r1, [r5, #4]
.LVL879:
	.loc 1 3232 7 view .LVU3214
	cmp	r1, #8
	bne	.L930
	.loc 1 3232 29 is_stmt 1 discriminator 1 view .LVU3215
	.loc 1 3232 35 is_stmt 0 discriminator 1 view .LVU3216
	ldrb	r1, [r10, ip]	@ zero_extendqisi2
.LVL880:
.L931:
	.loc 1 3239 5 is_stmt 1 view .LVU3217
	.loc 1 3239 7 is_stmt 0 view .LVU3218
	ldr	r3, [r5, #12]
	cmp	r3, r1
	bhi	.L933
	.loc 1 3243 7 is_stmt 1 view .LVU3219
	.loc 1 3243 20 is_stmt 0 view .LVU3220
	mov	r3, #0
	.loc 1 3244 10 view .LVU3221
	mvn	r2, #0
	.loc 1 3243 20 view .LVU3222
	strb	r3, [r9]
	.loc 1 3243 15 view .LVU3223
	strb	r3, [r7]
	.loc 1 3243 10 view .LVU3224
	strb	r3, [r6]
	.loc 1 3244 7 is_stmt 1 view .LVU3225
	.loc 1 3244 10 is_stmt 0 view .LVU3226
	strb	r2, [r8]
	pop	{r4, r5, r6, r7, r8, r9, r10, pc}
.LVL881:
.L928:
	.loc 1 3244 10 view .LVU3227
.LBE1601:
	.loc 1 3212 5 is_stmt 1 view .LVU3228
	.loc 1 3212 7 is_stmt 0 view .LVU3229
	ldr	r3, [r5, #4]
.LVL882:
	.loc 1 3214 17 view .LVU3230
	add	ip, ip, ip, lsl #1
	.loc 1 3212 7 view .LVU3231
	cmp	r3, #8
	beq	.L963
	.loc 1 3220 7 is_stmt 1 view .LVU3232
	.loc 1 3220 14 is_stmt 0 view .LVU3233
	ldrb	r3, [r10, ip, lsl #1]	@ zero_extendqisi2
	.loc 1 3220 10 view .LVU3234
	strb	r3, [r6]
	.loc 1 3221 7 is_stmt 1 view .LVU3235
	.loc 1 3220 17 is_stmt 0 view .LVU3236
	lsl	r3, ip, #1
	.loc 1 3221 14 view .LVU3237
	add	r2, r3, #2
.LVL883:
	.loc 1 3221 14 view .LVU3238
	ldrb	r1, [r10, r2]	@ zero_extendqisi2
.LVL884:
	.loc 1 3220 14 view .LVU3239
	add	ip, r10, ip, lsl #1
	.loc 1 3221 10 view .LVU3240
	strb	r1, [r7]
	.loc 1 3222 7 is_stmt 1 view .LVU3241
	.loc 1 3222 14 is_stmt 0 view .LVU3242
	ldrb	r1, [ip, #4]	@ zero_extendqisi2
	.loc 1 3222 10 view .LVU3243
	strb	r1, [r9]
	.loc 1 3223 7 is_stmt 1 view .LVU3244
	.loc 1 3223 9 is_stmt 0 view .LVU3245
	ldr	r0, [r5, #16]
	cmp	r0, #0
	beq	.L918
	.loc 1 3223 40 discriminator 1 view .LVU3246
	ldrb	r0, [r10, r3]	@ zero_extendqisi2
	.loc 1 3223 56 discriminator 1 view .LVU3247
	ldrb	r3, [ip, #1]	@ zero_extendqisi2
	.loc 1 3223 52 discriminator 1 view .LVU3248
	add	r3, r3, r0, lsl #8
	.loc 1 3223 28 discriminator 1 view .LVU3249
	ldr	r0, [r5, #20]
	cmp	r3, r0
	bne	.L918
	.loc 1 3224 22 view .LVU3250
	ldrb	r2, [r10, r2]	@ zero_extendqisi2
	.loc 1 3224 38 view .LVU3251
	ldrb	r3, [ip, #3]	@ zero_extendqisi2
	.loc 1 3224 34 view .LVU3252
	add	r3, r3, r2, lsl #8
	.loc 1 3224 10 view .LVU3253
	ldr	r2, [r5, #24]
	cmp	r3, r2
	bne	.L918
	.loc 1 3225 38 view .LVU3254
	ldrb	r3, [ip, #5]	@ zero_extendqisi2
	.loc 1 3225 10 view .LVU3255
	ldr	r2, [r5, #28]
	.loc 1 3225 34 view .LVU3256
	add	r3, r3, r1, lsl #8
	.loc 1 3225 10 view .LVU3257
	cmp	r3, r2
	bne	.L918
	b	.L921
.LVL885:
.L933:
.LBB1609:
	.loc 1 3248 7 is_stmt 1 view .LVU3258
	.loc 1 3248 25 is_stmt 0 view .LVU3259
	ldr	r3, [r5, #8]
	ldrb	r3, [r3, r1, lsl #2]	@ zero_extendqisi2
	.loc 1 3248 10 view .LVU3260
	strb	r3, [r6]
	.loc 1 3249 7 is_stmt 1 view .LVU3261
	.loc 1 3249 25 is_stmt 0 view .LVU3262
	ldr	r3, [r5, #8]
	add	r3, r3, r1, lsl #2
	ldrb	r3, [r3, #1]	@ zero_extendqisi2
	.loc 1 3249 10 view .LVU3263
	strb	r3, [r7]
	.loc 1 3250 7 is_stmt 1 view .LVU3264
	.loc 1 3250 25 is_stmt 0 view .LVU3265
	ldr	r3, [r5, #8]
	add	r3, r3, r1, lsl #2
	ldrb	r3, [r3, #2]	@ zero_extendqisi2
	.loc 1 3250 10 view .LVU3266
	strb	r3, [r9]
	.loc 1 3251 7 is_stmt 1 view .LVU3267
	.loc 1 3251 25 is_stmt 0 view .LVU3268
	ldr	r3, [r5, #8]
	add	r3, r3, r1, lsl #2
	ldrb	r3, [r3, #3]	@ zero_extendqisi2
	.loc 1 3251 10 view .LVU3269
	strb	r3, [r8]
	pop	{r4, r5, r6, r7, r8, r9, r10, pc}
.LVL886:
.L930:
.LBB1602:
	.loc 1 3235 7 is_stmt 1 view .LVU3270
.LBB1603:
.LBB1604:
	.loc 1 2388 17 is_stmt 0 view .LVU3271
	cmp	r1, #0
.LBE1604:
.LBE1603:
	.loc 1 3235 20 view .LVU3272
	mul	ip, ip, r1
.LVL887:
	.loc 1 3236 7 is_stmt 1 view .LVU3273
.LBB1608:
.LBI1603:
	.loc 1 2384 17 view .LVU3274
.LBB1607:
	.loc 1 2386 3 view .LVU3275
	.loc 1 2387 3 view .LVU3276
	.loc 1 2388 3 view .LVU3277
	.loc 1 2388 17 view .LVU3278
	beq	.L931
	add	r0, r1, ip
	.loc 1 2386 12 is_stmt 0 view .LVU3279
	mov	r1, #0
.LVL888:
.L932:
	.loc 1 2390 5 is_stmt 1 view .LVU3280
	.loc 1 2391 5 view .LVU3281
.LBB1605:
.LBI1605:
	.loc 1 2377 22 view .LVU3282
.LBB1606:
	.loc 1 2379 3 view .LVU3283
	.loc 1 2379 79 is_stmt 0 view .LVU3284
	mvn	r2, ip
	.loc 1 2379 52 view .LVU3285
	ldrb	r3, [r10, ip, lsr #3]	@ zero_extendqisi2
	.loc 1 2379 79 view .LVU3286
	and	r2, r2, #7
	.loc 1 2380 3 view .LVU3287
	add	ip, ip, #1
.LVL889:
	.loc 1 2379 73 view .LVU3288
	asr	r3, r3, r2
	.loc 1 2379 17 view .LVU3289
	and	r3, r3, #1
.LVL890:
	.loc 1 2380 3 is_stmt 1 view .LVU3290
	.loc 1 2381 3 view .LVU3291
	.loc 1 2381 3 is_stmt 0 view .LVU3292
.LBE1606:
.LBE1605:
	.loc 1 2388 17 view .LVU3293
	cmp	ip, r0
	.loc 1 2391 12 view .LVU3294
	orr	r1, r3, r1, lsl #1
.LVL891:
	.loc 1 2388 26 is_stmt 1 view .LVU3295
	.loc 1 2388 17 view .LVU3296
	bne	.L932
	b	.L931
.LVL892:
.L963:
	.loc 1 2388 17 is_stmt 0 view .LVU3297
.LBE1607:
.LBE1608:
.LBE1602:
.LBE1609:
	.loc 1 3214 7 is_stmt 1 view .LVU3298
	.loc 1 3214 14 is_stmt 0 view .LVU3299
	ldrb	r3, [r10, ip]!	@ zero_extendqisi2
	.loc 1 3214 10 view .LVU3300
	strb	r3, [r6]
	.loc 1 3214 27 is_stmt 1 view .LVU3301
	.loc 1 3214 34 is_stmt 0 view .LVU3302
	ldrb	r3, [r10, #1]	@ zero_extendqisi2
	.loc 1 3214 30 view .LVU3303
	strb	r3, [r1]
	.loc 1 3214 47 is_stmt 1 view .LVU3304
	.loc 1 3214 54 is_stmt 0 view .LVU3305
	ldrb	r3, [r10, #2]	@ zero_extendqisi2
	.loc 1 3214 50 view .LVU3306
	strb	r3, [r2]
	.loc 1 3215 7 is_stmt 1 view .LVU3307
	.loc 1 3215 9 is_stmt 0 view .LVU3308
	ldr	r2, [r5, #16]
.LVL893:
	.loc 1 3215 9 view .LVU3309
	cmp	r2, #0
	beq	.L918
	.loc 1 3215 31 discriminator 1 view .LVU3310
	ldrb	r1, [r6]	@ zero_extendqisi2
.LVL894:
	.loc 1 3215 28 discriminator 1 view .LVU3311
	ldr	r2, [r5, #20]
	cmp	r1, r2
	bne	.L918
	.loc 1 3215 52 discriminator 2 view .LVU3312
	ldrb	r1, [r7]	@ zero_extendqisi2
	.loc 1 3215 49 discriminator 2 view .LVU3313
	ldr	r2, [r5, #24]
	cmp	r1, r2
	bne	.L918
	.loc 1 3215 70 discriminator 3 view .LVU3314
	ldr	r2, [r5, #28]
	cmp	r3, r2
	bne	.L918
	b	.L921
.LVL895:
.L962:
	.loc 1 3258 7 is_stmt 1 view .LVU3315
	.loc 1 3258 24 is_stmt 0 view .LVU3316
	ldrb	r3, [r10, ip, lsl #1]	@ zero_extendqisi2
	.loc 1 3259 14 view .LVU3317
	add	ip, r10, ip, lsl #1
	.loc 1 3258 20 view .LVU3318
	strb	r3, [r2]
	.loc 1 3258 15 view .LVU3319
	strb	r3, [r1]
	.loc 1 3258 10 view .LVU3320
	strb	r3, [r6]
	.loc 1 3259 7 is_stmt 1 view .LVU3321
	.loc 1 3259 14 is_stmt 0 view .LVU3322
	ldrb	r3, [ip, #1]	@ zero_extendqisi2
	.loc 1 3259 10 view .LVU3323
	strb	r3, [r8]
	pop	{r4, r5, r6, r7, r8, r9, r10, pc}
.L961:
	.loc 1 3271 7 is_stmt 1 view .LVU3324
	.loc 1 3271 14 is_stmt 0 view .LVU3325
	ldrb	r3, [r10, ip, lsl #2]	@ zero_extendqisi2
	.loc 1 3272 14 view .LVU3326
	add	ip, r10, ip, lsl #2
	.loc 1 3271 10 view .LVU3327
	strb	r3, [r6]
	.loc 1 3272 7 is_stmt 1 view .LVU3328
	.loc 1 3272 14 is_stmt 0 view .LVU3329
	ldrb	r3, [ip, #1]	@ zero_extendqisi2
	.loc 1 3272 10 view .LVU3330
	strb	r3, [r1]
	.loc 1 3273 7 is_stmt 1 view .LVU3331
	.loc 1 3273 14 is_stmt 0 view .LVU3332
	ldrb	r3, [ip, #2]	@ zero_extendqisi2
	.loc 1 3273 10 view .LVU3333
	strb	r3, [r2]
	.loc 1 3274 7 is_stmt 1 view .LVU3334
	.loc 1 3274 14 is_stmt 0 view .LVU3335
	ldrb	r3, [ip, #3]	@ zero_extendqisi2
	.loc 1 3274 10 view .LVU3336
	strb	r3, [r8]
	pop	{r4, r5, r6, r7, r8, r9, r10, pc}
	.cfi_endproc
.LFE142:
	.size	getPixelColorRGBA8, .-getPixelColorRGBA8
	.section	.text.lodepng_inflatev.constprop.0,"ax",%progbits
	.align	2
	.syntax unified
	.arm
	.type	lodepng_inflatev.constprop.0, %function
lodepng_inflatev.constprop.0:
.LVL896:
.LFB232:
	.loc 1 1253 17 is_stmt 1 view -0
	.cfi_startproc
	@ args = 0, pretend = 0, frame = 120
	@ frame_needed = 0, uses_anonymous_args = 0
	.loc 1 1258 3 view .LVU3338
	.loc 1 1258 10 is_stmt 0 view .LVU3339
	mov	r3, #0
	.loc 1 1253 17 view .LVU3340
	push	{r4, r5, r6, r7, r8, r9, r10, fp, lr}
	.cfi_def_cfa_offset 36
	.cfi_offset 4, -36
	.cfi_offset 5, -32
	.cfi_offset 6, -28
	.cfi_offset 7, -24
	.cfi_offset 8, -20
	.cfi_offset 9, -16
	.cfi_offset 10, -12
	.cfi_offset 11, -8
	.cfi_offset 14, -4
	mov	r8, r1
	.loc 1 1260 10 view .LVU3341
	mov	r9, r3
	.loc 1 1253 17 view .LVU3342
	sub	sp, sp, #124
	.cfi_def_cfa_offset 160
	.loc 1 1253 17 view .LVU3343
	str	r2, [sp, #24]
	.loc 1 1258 10 view .LVU3344
	str	r3, [sp, #44]
	.loc 1 1259 3 is_stmt 1 view .LVU3345
.LVL897:
	.loc 1 1260 3 view .LVU3346
	.loc 1 1261 3 view .LVU3347
	.loc 1 1263 3 view .LVU3348
	.loc 1 1265 3 view .LVU3349
	.loc 1 1253 17 is_stmt 0 view .LVU3350
	str	r0, [sp, #16]
.LBB1749:
	.loc 1 1268 25 view .LVU3351
	lsl	fp, r2, #3
	.loc 1 1268 25 view .LVU3352
.LBE1749:
	.loc 1 1265 9 is_stmt 1 view .LVU3353
.LVL898:
.L1049:
.LBB2066:
	.loc 1 1267 5 view .LVU3354
	.loc 1 1268 5 view .LVU3355
	.loc 1 1268 11 is_stmt 0 view .LVU3356
	ldr	r3, [sp, #44]
	add	r2, r3, #2
	.loc 1 1268 7 view .LVU3357
	cmp	r2, fp
	bcs	.L970
	.loc 1 1269 5 is_stmt 1 view .LVU3358
.LVL899:
.LBB1750:
.LBI1750:
	.loc 1 447 22 view .LVU3359
.LBB1751:
	.loc 1 449 3 view .LVU3360
	.loc 1 450 3 is_stmt 0 view .LVU3361
	add	ip, r3, #1
.LBE1751:
.LBE1750:
.LBB1755:
.LBB1756:
	.loc 1 449 53 view .LVU3362
	ldrb	r0, [r8, r2, lsr #3]	@ zero_extendqisi2
.LBE1756:
.LBE1755:
.LBB1762:
.LBB1763:
	ldrb	r1, [r8, ip, lsr #3]	@ zero_extendqisi2
.LBE1763:
.LBE1762:
.LBB1767:
.LBB1757:
	.loc 1 449 88 view .LVU3363
	and	r2, r2, #7
.LBE1757:
.LBE1767:
.LBB1768:
.LBB1764:
	and	ip, ip, #7
	.loc 1 449 72 view .LVU3364
	asr	r1, r1, ip
.LBE1764:
.LBE1768:
.LBB1769:
.LBB1758:
	asr	r2, r0, r2
.LBE1758:
.LBE1769:
.LBB1770:
.LBB1752:
	.loc 1 449 53 view .LVU3365
	ldrb	r0, [r8, r3, lsr #3]	@ zero_extendqisi2
.LBE1752:
.LBE1770:
.LBB1771:
.LBB1759:
	.loc 1 449 17 view .LVU3366
	and	r2, r2, #1
.LBE1759:
.LBE1771:
.LBB1772:
.LBB1765:
	and	r1, r1, #1
.LBE1765:
.LBE1772:
.LBB1773:
.LBB1753:
	.loc 1 449 88 view .LVU3367
	and	ip, r3, #7
.LBE1753:
.LBE1773:
	.loc 1 1271 11 view .LVU3368
	add	r1, r1, r2, lsl #1
.LBB1774:
.LBB1754:
	.loc 1 449 72 view .LVU3369
	asr	r2, r0, ip
	.loc 1 449 17 view .LVU3370
	and	r2, r2, #1
	str	r2, [sp, #4]
.LVL900:
	.loc 1 450 3 is_stmt 1 view .LVU3371
	.loc 1 451 3 view .LVU3372
	.loc 1 451 3 is_stmt 0 view .LVU3373
.LBE1754:
.LBE1774:
	.loc 1 1270 5 is_stmt 1 view .LVU3374
.LBB1775:
.LBI1762:
	.loc 1 447 22 view .LVU3375
.LBB1766:
	.loc 1 449 3 view .LVU3376
	.loc 1 450 3 view .LVU3377
	.loc 1 451 3 view .LVU3378
	.loc 1 451 3 is_stmt 0 view .LVU3379
.LBE1766:
.LBE1775:
	.loc 1 1271 5 is_stmt 1 view .LVU3380
.LBB1776:
.LBI1755:
	.loc 1 447 22 view .LVU3381
.LBB1760:
	.loc 1 449 3 view .LVU3382
	.loc 1 450 3 view .LVU3383
.LBE1760:
.LBE1776:
	.loc 1 1273 7 is_stmt 0 view .LVU3384
	cmp	r1, #3
.LBB1777:
.LBB1761:
	.loc 1 450 3 view .LVU3385
	add	r2, r3, #3
	str	r2, [sp, #44]
	.loc 1 451 3 is_stmt 1 view .LVU3386
.LVL901:
	.loc 1 451 3 is_stmt 0 view .LVU3387
.LBE1761:
.LBE1777:
	.loc 1 1273 5 is_stmt 1 view .LVU3388
	.loc 1 1273 7 is_stmt 0 view .LVU3389
	beq	.L1050
	.loc 1 1274 10 is_stmt 1 view .LVU3390
	.loc 1 1274 12 is_stmt 0 view .LVU3391
	cmp	r1, #0
	bne	.L967
.LBB1778:
.LBB1779:
	.loc 1 1231 23 is_stmt 1 view .LVU3392
	tst	r2, #7
	beq	.L968
	add	r3, r3, #4
.L969:
	.loc 1 1231 29 view .LVU3393
	.loc 1 1231 23 view .LVU3394
	mov	r2, r3
	.loc 1 1231 16 is_stmt 0 view .LVU3395
	and	r3, r3, #7
	.loc 1 1231 23 view .LVU3396
	cmp	r3, #0
	add	r3, r2, #1
	bne	.L969
	str	r2, [sp, #44]
.L968:
	.loc 1 1232 3 is_stmt 1 view .LVU3397
	.loc 1 1235 5 is_stmt 0 view .LVU3398
	ldr	r3, [sp, #24]
	.loc 1 1232 5 view .LVU3399
	lsr	r5, r2, #3
.LVL902:
	.loc 1 1235 3 is_stmt 1 view .LVU3400
	.loc 1 1235 8 is_stmt 0 view .LVU3401
	add	r6, r5, #4
	.loc 1 1235 5 view .LVU3402
	cmp	r3, r6
	bls	.L970
	.loc 1 1236 3 is_stmt 1 view .LVU3403
	.loc 1 1236 26 is_stmt 0 view .LVU3404
	add	r3, r8, r5
	.loc 1 1236 11 view .LVU3405
	ldrb	r7, [r8, r2, lsr #3]	@ zero_extendqisi2
	.loc 1 1236 26 view .LVU3406
	ldrb	r2, [r3, #1]	@ zero_extendqisi2
	.loc 1 1237 27 view .LVU3407
	add	r5, r5, #3
.LVL903:
	.loc 1 1236 7 view .LVU3408
	add	r7, r7, r2, lsl #8
.LVL904:
	.loc 1 1236 35 is_stmt 1 view .LVU3409
	.loc 1 1237 3 view .LVU3410
	.loc 1 1237 12 is_stmt 0 view .LVU3411
	ldrb	r3, [r3, #2]	@ zero_extendqisi2
	.loc 1 1237 27 view .LVU3412
	ldrb	r2, [r8, r5]	@ zero_extendqisi2
	add	r5, r8, r5
.LVL905:
	.loc 1 1237 8 view .LVU3413
	add	r3, r3, r2, lsl #8
	.loc 1 1240 5 view .LVU3414
	ldr	r2, .L1138
	.loc 1 1240 10 view .LVU3415
	add	r3, r3, r7
.LVL906:
	.loc 1 1237 36 is_stmt 1 view .LVU3416
	.loc 1 1240 3 view .LVU3417
	.loc 1 1240 5 is_stmt 0 view .LVU3418
	cmp	r3, r2
	bne	.L1051
	.loc 1 1242 3 is_stmt 1 view .LVU3419
.LBB1780:
.LBB1781:
.LBB1782:
.LBB1783:
	.loc 1 215 19 is_stmt 0 view .LVU3420
	ldr	r3, [sp, #16]
.LBE1783:
.LBE1782:
.LBE1781:
.LBE1780:
	.loc 1 1242 7 view .LVU3421
	add	r10, r7, r9
.LVL907:
.LBB1792:
.LBI1780:
	.loc 1 230 17 is_stmt 1 view .LVU3422
.LBB1789:
	.loc 1 232 3 view .LVU3423
.LBB1788:
.LBI1782:
	.loc 1 213 17 view .LVU3424
.LBB1787:
	.loc 1 215 3 view .LVU3425
	.loc 1 215 19 is_stmt 0 view .LVU3426
	ldr	r3, [r3, #8]
.LVL908:
	.loc 1 215 5 view .LVU3427
	cmp	r10, r3
	bls	.L971
.LBB1784:
	.loc 1 217 5 is_stmt 1 view .LVU3428
	.loc 1 217 65 is_stmt 0 view .LVU3429
	cmp	r10, r3, lsl #1
	movhi	r4, r10
	.loc 1 217 78 view .LVU3430
	addls	r3, r10, r10, lsl #1
	.loc 1 217 65 view .LVU3431
	lsrls	r4, r3, #1
.LVL909:
	.loc 1 218 5 is_stmt 1 view .LVU3432
.LBB1785:
.LBI1785:
	.loc 1 68 14 view .LVU3433
.LBB1786:
	.loc 1 70 3 view .LVU3434
	.loc 1 70 10 is_stmt 0 view .LVU3435
	ldr	r3, [sp, #16]
	mov	r1, r4
.LVL910:
	.loc 1 70 10 view .LVU3436
	ldr	r0, [r3]
	bl	realloc
.LVL911:
	.loc 1 70 10 view .LVU3437
.LBE1786:
.LBE1785:
	.loc 1 219 5 is_stmt 1 view .LVU3438
	.loc 1 219 7 is_stmt 0 view .LVU3439
	cmp	r0, #0
	.loc 1 219 7 view .LVU3440
	beq	.L1053
	.loc 1 221 7 is_stmt 1 view .LVU3441
	.loc 1 221 20 is_stmt 0 view .LVU3442
	ldr	r3, [sp, #16]
	str	r4, [r3, #8]
	.loc 1 222 7 is_stmt 1 view .LVU3443
	.loc 1 222 15 is_stmt 0 view .LVU3444
	str	r0, [r3]
.LVL912:
.L971:
	.loc 1 222 15 view .LVU3445
.LBE1784:
.LBE1787:
.LBE1788:
	.loc 1 233 3 is_stmt 1 view .LVU3446
.LBE1789:
.LBE1792:
	.loc 1 1245 5 is_stmt 0 view .LVU3447
	ldr	r3, [sp, #24]
.LBB1793:
.LBB1790:
	.loc 1 233 11 view .LVU3448
	ldr	ip, [sp, #16]
.LBE1790:
.LBE1793:
	.loc 1 1245 8 view .LVU3449
	add	r2, r6, r7
	.loc 1 1245 5 view .LVU3450
	cmp	r3, r2
.LBB1794:
.LBB1791:
	.loc 1 233 11 view .LVU3451
	str	r10, [ip, #4]
	.loc 1 234 3 is_stmt 1 view .LVU3452
.LVL913:
	.loc 1 234 3 is_stmt 0 view .LVU3453
.LBE1791:
.LBE1794:
	.loc 1 1245 3 is_stmt 1 view .LVU3454
	.loc 1 1245 5 is_stmt 0 view .LVU3455
	bcc	.L1054
.LVL914:
	.loc 1 1246 16 is_stmt 1 view .LVU3456
	cmp	r7, #0
	beq	.L1055
.LVL915:
.L974:
	.loc 1 1246 28 view .LVU3457
	.loc 1 1246 28 is_stmt 0 view .LVU3458
	mov	r3, r9
.LVL916:
	.loc 1 1246 52 view .LVU3459
	ldrb	r0, [r5, #1]!	@ zero_extendqisi2
	.loc 1 1246 48 view .LVU3460
	ldr	r1, [ip]
	.loc 1 1246 44 view .LVU3461
	add	r9, r9, #1
.LVL917:
	.loc 1 1246 16 view .LVU3462
	cmp	r10, r9
	.loc 1 1246 48 view .LVU3463
	strb	r0, [r1, r3]
	.loc 1 1246 23 is_stmt 1 view .LVU3464
	.loc 1 1246 16 view .LVU3465
	bne	.L974
.LVL918:
.L973:
	.loc 1 1248 3 view .LVU3466
	.loc 1 1248 13 is_stmt 0 view .LVU3467
	lsl	r2, r2, #3
	.loc 1 1248 9 view .LVU3468
	str	r2, [sp, #44]
	.loc 1 1250 3 is_stmt 1 view .LVU3469
.LVL919:
	.loc 1 1250 3 is_stmt 0 view .LVU3470
.LBE1779:
.LBE1778:
	.loc 1 1277 5 is_stmt 1 view .LVU3471
.L975:
	.loc 1 1277 5 is_stmt 0 view .LVU3472
.LBE2066:
	.loc 1 1265 9 is_stmt 1 view .LVU3473
	ldr	r3, [sp, #4]
	cmp	r3, #0
	beq	.L1049
	.loc 1 1280 10 is_stmt 0 view .LVU3474
	mov	r10, #0
	.loc 1 1281 1 view .LVU3475
	mov	r0, r10
	add	sp, sp, #124
	.cfi_remember_state
	.cfi_def_cfa_offset 36
	@ sp needed
	pop	{r4, r5, r6, r7, r8, r9, r10, fp, pc}
.LVL920:
.L967:
	.cfi_restore_state
.LBB2067:
	.loc 1 1275 10 is_stmt 1 view .LVU3476
.LBB1799:
.LBI1799:
	.loc 1 1131 17 view .LVU3477
.LBB1800:
	.loc 1 1134 3 view .LVU3478
	.loc 1 1135 3 view .LVU3479
	.loc 1 1136 3 view .LVU3480
	.loc 1 1137 3 view .LVU3481
	.loc 1 1139 3 view .LVU3482
.LBB1801:
.LBI1801:
	.loc 1 531 13 view .LVU3483
.LBB1802:
	.loc 1 533 3 view .LVU3484
	.loc 1 534 3 view .LVU3485
	.loc 1 533 16 is_stmt 0 view .LVU3486
	mov	r0, #0
	.loc 1 535 17 view .LVU3487
	mov	r5, #0
.LBE1802:
.LBE1801:
	.loc 1 1142 5 view .LVU3488
	cmp	r1, #1
.LBB1804:
.LBB1803:
	.loc 1 533 16 view .LVU3489
	mov	r1, #0
.LVL921:
	.loc 1 535 17 view .LVU3490
	str	r5, [sp, #56]
	.loc 1 533 16 view .LVU3491
	strd	r0, [sp, #48]
	.loc 1 535 3 is_stmt 1 view .LVU3492
.LVL922:
	.loc 1 535 3 is_stmt 0 view .LVU3493
.LBE1803:
.LBE1804:
	.loc 1 1140 3 is_stmt 1 view .LVU3494
.LBB1805:
.LBI1805:
	.loc 1 531 13 view .LVU3495
.LBB1806:
	.loc 1 533 3 view .LVU3496
	.loc 1 534 3 view .LVU3497
	.loc 1 535 3 view .LVU3498
	.loc 1 533 16 is_stmt 0 view .LVU3499
	strd	r0, [sp, #72]
	.loc 1 535 17 view .LVU3500
	str	r5, [sp, #80]
.LVL923:
	.loc 1 535 17 view .LVU3501
.LBE1806:
.LBE1805:
	.loc 1 1142 3 is_stmt 1 view .LVU3502
	.loc 1 1142 5 is_stmt 0 view .LVU3503
	beq	.L1123
	.loc 1 1143 8 is_stmt 1 view .LVU3504
	.loc 1 1143 23 view .LVU3505
.LVL924:
.LBB1807:
.LBI1807:
	.loc 1 983 17 view .LVU3506
.LBB1808:
	.loc 1 987 3 view .LVU3507
	.loc 1 988 3 view .LVU3508
	.loc 1 989 3 view .LVU3509
	.loc 1 992 3 view .LVU3510
	.loc 1 993 3 view .LVU3511
	.loc 1 995 3 view .LVU3512
	.loc 1 996 3 view .LVU3513
	.loc 1 998 3 view .LVU3514
	.loc 1 998 12 is_stmt 0 view .LVU3515
	add	r7, r3, #17
	.loc 1 998 5 view .LVU3516
	cmp	r7, fp
	movhi	r6, r5
	.loc 1 998 43 view .LVU3517
	movhi	r10, #49
	.loc 1 998 5 view .LVU3518
	bhi	.L1120
.LBB1809:
.LBB1810:
	.loc 1 457 9 view .LVU3519
	mov	r0, r5
.L978:
	.loc 1 457 9 view .LVU3520
	add	ip, r2, r0
.LVL925:
	.loc 1 459 5 is_stmt 1 view .LVU3521
	.loc 1 459 37 is_stmt 0 view .LVU3522
	ldrb	r1, [r8, ip, lsr #3]	@ zero_extendqisi2
	.loc 1 459 72 view .LVU3523
	and	ip, ip, #7
	.loc 1 459 56 view .LVU3524
	asr	r1, r1, ip
	.loc 1 459 16 view .LVU3525
	and	r1, r1, #1
	.loc 1 459 12 view .LVU3526
	add	r5, r5, r1, lsl r0
.LVL926:
	.loc 1 460 5 is_stmt 1 view .LVU3527
	.loc 1 457 26 view .LVU3528
	add	r0, r0, #1
.LVL927:
	.loc 1 457 16 view .LVU3529
	cmp	r0, #5
	bne	.L978
.LBE1810:
.LBE1809:
.LBB1811:
.LBB1812:
	.loc 1 456 12 is_stmt 0 view .LVU3530
	mov	r6, #0
	.loc 1 457 9 view .LVU3531
	mov	r1, r6
	add	r0, r3, #8
.LVL928:
.L980:
	.loc 1 457 9 view .LVU3532
	add	ip, r0, r1
.LVL929:
	.loc 1 459 5 is_stmt 1 view .LVU3533
	.loc 1 459 37 is_stmt 0 view .LVU3534
	ldrb	r2, [r8, ip, lsr #3]	@ zero_extendqisi2
	.loc 1 459 72 view .LVU3535
	and	ip, ip, #7
	.loc 1 459 56 view .LVU3536
	asr	r2, r2, ip
	.loc 1 459 16 view .LVU3537
	and	r2, r2, #1
	.loc 1 459 12 view .LVU3538
	add	r6, r6, r2, lsl r1
.LVL930:
	.loc 1 460 5 is_stmt 1 view .LVU3539
	.loc 1 457 26 view .LVU3540
	add	r1, r1, #1
.LVL931:
	.loc 1 457 16 view .LVU3541
	cmp	r1, #5
	bne	.L980
.LBE1812:
.LBE1811:
.LBB1813:
.LBB1814:
	.loc 1 456 12 is_stmt 0 view .LVU3542
	mov	r10, #0
	.loc 1 457 9 view .LVU3543
	mov	r1, r10
.LVL932:
	.loc 1 457 9 view .LVU3544
	add	r3, r3, #13
.LVL933:
.L981:
	.loc 1 457 9 view .LVU3545
	add	r0, r3, r1
.LVL934:
	.loc 1 459 5 is_stmt 1 view .LVU3546
	.loc 1 459 37 is_stmt 0 view .LVU3547
	ldrb	r2, [r8, r0, lsr #3]	@ zero_extendqisi2
	.loc 1 459 72 view .LVU3548
	and	r0, r0, #7
	.loc 1 459 56 view .LVU3549
	asr	r2, r2, r0
	.loc 1 459 16 view .LVU3550
	and	r2, r2, #1
	.loc 1 459 12 view .LVU3551
	add	r10, r10, r2, lsl r1
.LVL935:
	.loc 1 460 5 is_stmt 1 view .LVU3552
	.loc 1 457 26 view .LVU3553
	add	r1, r1, #1
.LVL936:
	.loc 1 457 16 view .LVU3554
	cmp	r1, #4
	bne	.L981
.LBE1814:
.LBE1813:
	.loc 1 1005 9 is_stmt 0 view .LVU3555
	add	r10, r10, #4
.LVL937:
	.loc 1 1007 20 view .LVU3556
	add	r3, r10, r10, lsl #1
	.loc 1 1007 12 view .LVU3557
	add	r3, r3, r7
	.loc 1 1007 5 view .LVU3558
	cmp	fp, r3
	str	r7, [sp, #44]
.LBB1816:
.LBB1815:
	.loc 1 462 3 is_stmt 1 view .LVU3559
.LVL938:
	.loc 1 462 3 is_stmt 0 view .LVU3560
.LBE1815:
.LBE1816:
	.loc 1 1007 3 is_stmt 1 view .LVU3561
	.loc 1 1007 5 is_stmt 0 view .LVU3562
	bcc	.L1124
	.loc 1 1009 3 is_stmt 1 view .LVU3563
.LVL939:
.LBB1817:
.LBI1817:
	.loc 1 531 13 view .LVU3564
.LBB1818:
	.loc 1 533 3 view .LVU3565
	.loc 1 534 3 view .LVU3566
	.loc 1 533 16 is_stmt 0 view .LVU3567
	mov	r2, #0
	mov	r3, #0
	.loc 1 535 17 view .LVU3568
	mov	r4, #0
.LBE1818:
.LBE1817:
.LBB1821:
.LBB1822:
	.loc 1 65 10 view .LVU3569
	mov	r0, #76
.LBE1822:
.LBE1821:
.LBB1825:
.LBB1819:
	.loc 1 533 16 view .LVU3570
	strd	r2, [sp, #96]
	.loc 1 535 3 is_stmt 1 view .LVU3571
.LVL940:
	.loc 1 535 3 is_stmt 0 view .LVU3572
.LBE1819:
.LBE1825:
	.loc 1 1011 3 is_stmt 1 view .LVU3573
	.loc 1 1011 9 view .LVU3574
	.loc 1 1015 5 view .LVU3575
.LBB1826:
.LBI1821:
	.loc 1 63 14 view .LVU3576
.LBB1823:
	.loc 1 65 3 view .LVU3577
.LBE1823:
.LBE1826:
.LBB1827:
.LBB1820:
	.loc 1 535 17 is_stmt 0 view .LVU3578
	str	r4, [sp, #104]
.LBE1820:
.LBE1827:
.LBB1828:
.LBB1824:
	.loc 1 65 10 view .LVU3579
	bl	malloc
.LVL941:
	.loc 1 65 10 view .LVU3580
.LBE1824:
.LBE1828:
	.loc 1 1016 5 is_stmt 1 view .LVU3581
	.loc 1 1016 7 is_stmt 0 view .LVU3582
	subs	r2, r0, #0
	str	r2, [sp, #32]
	beq	.L1057
	mov	lr, #16
	mov	r3, r4
	.loc 1 1018 11 view .LVU3583
	mov	ip, r4
	mov	r0, r6
.LVL942:
	.loc 1 1018 11 view .LVU3584
	mov	r4, lr
	mov	r6, r2
	ldr	r1, .L1138+4
	b	.L987
.LVL943:
.L984:
	.loc 1 1018 25 view .LVU3585
	add	ip, ip, #1
.LVL944:
	.loc 1 1018 18 view .LVU3586
	cmp	ip, #19
	.loc 1 1020 46 view .LVU3587
	str	lr, [r6, r4]
	.loc 1 1018 25 is_stmt 1 view .LVU3588
.LVL945:
	.loc 1 1018 18 view .LVU3589
	beq	.L986
.L1125:
	.loc 1 1020 41 is_stmt 0 view .LVU3590
	ldr	r4, [r1, #4]!
.LVL946:
.L987:
	.loc 1 1020 7 is_stmt 1 view .LVU3591
	.loc 1 1020 9 is_stmt 0 view .LVU3592
	cmp	r10, ip
.LBB1829:
.LBB1830:
	.loc 1 456 12 view .LVU3593
	mov	lr, #0
.LBE1830:
.LBE1829:
	.loc 1 1020 30 view .LVU3594
	lsl	r4, r4, #2
	.loc 1 1020 9 view .LVU3595
	bls	.L984
.LBB1833:
.LBB1831:
	.loc 1 457 9 view .LVU3596
	mov	r2, lr
	str	r10, [sp]
.L985:
	add	r10, r7, r2
.LVL947:
	.loc 1 459 5 is_stmt 1 view .LVU3597
	.loc 1 459 37 is_stmt 0 view .LVU3598
	ldrb	r3, [r8, r10, lsr #3]	@ zero_extendqisi2
	.loc 1 459 72 view .LVU3599
	and	r10, r10, #7
	.loc 1 459 56 view .LVU3600
	asr	r3, r3, r10
	.loc 1 459 16 view .LVU3601
	and	r3, r3, #1
	.loc 1 459 12 view .LVU3602
	add	lr, lr, r3, lsl r2
.LVL948:
	.loc 1 460 5 is_stmt 1 view .LVU3603
	.loc 1 457 26 view .LVU3604
	add	r2, r2, #1
.LVL949:
	.loc 1 457 16 view .LVU3605
	cmp	r2, #3
	bne	.L985
.LBE1831:
.LBE1833:
	.loc 1 1018 25 is_stmt 0 view .LVU3606
	add	ip, ip, #1
.LVL950:
	.loc 1 1018 18 view .LVU3607
	cmp	ip, #19
.LBB1834:
.LBB1832:
	.loc 1 460 5 view .LVU3608
	mov	r3, #1
.LVL951:
	.loc 1 460 5 view .LVU3609
	ldr	r10, [sp]
	add	r7, r7, #3
.LBE1832:
.LBE1834:
	.loc 1 1020 46 view .LVU3610
	str	lr, [r6, r4]
	.loc 1 1018 25 is_stmt 1 view .LVU3611
.LVL952:
	.loc 1 1018 18 view .LVU3612
	bne	.L1125
.L986:
	.loc 1 1018 18 is_stmt 0 view .LVU3613
	cmp	r3, #0
	mov	r6, r0
.LVL953:
.LBB1835:
.LBB1836:
.LBB1837:
.LBB1838:
	.loc 1 65 10 view .LVU3614
	mov	r0, #76
	strne	r7, [sp, #44]
.LBE1838:
.LBE1837:
.LBE1836:
.LBE1835:
	.loc 1 1024 5 is_stmt 1 view .LVU3615
.LVL954:
.LBB1845:
.LBI1835:
	.loc 1 656 17 view .LVU3616
.LBB1843:
	.loc 1 659 3 view .LVU3617
	.loc 1 660 3 view .LVU3618
.LBB1841:
.LBI1837:
	.loc 1 63 14 view .LVU3619
.LBB1839:
	.loc 1 65 3 view .LVU3620
	.loc 1 65 10 is_stmt 0 view .LVU3621
	bl	malloc
.LVL955:
	.loc 1 65 10 view .LVU3622
.LBE1839:
.LBE1841:
	.loc 1 661 5 view .LVU3623
	cmp	r0, #0
.LBB1842:
.LBB1840:
	.loc 1 65 10 view .LVU3624
	str	r0, [sp, #36]
.LVL956:
	.loc 1 65 10 view .LVU3625
.LBE1840:
.LBE1842:
	.loc 1 660 17 view .LVU3626
	str	r0, [sp, #104]
	.loc 1 661 3 is_stmt 1 view .LVU3627
	.loc 1 661 5 is_stmt 0 view .LVU3628
	beq	.L1059
	.loc 1 662 51 view .LVU3629
	mov	r2, #76
	ldr	r1, [sp, #32]
	bl	memcpy
.LVL957:
	.loc 1 663 3 is_stmt 1 view .LVU3630
	.loc 1 664 3 view .LVU3631
	.loc 1 664 19 is_stmt 0 view .LVU3632
	mov	r3, #7
	str	r3, [sp, #108]	@ unaligned
	mov	r3, #19
	.loc 1 665 10 view .LVU3633
	add	r0, sp, #96
.LVL958:
	.loc 1 664 19 view .LVU3634
	str	r3, [sp, #112]	@ unaligned
	.loc 1 665 3 is_stmt 1 view .LVU3635
	.loc 1 665 10 is_stmt 0 view .LVU3636
	bl	HuffmanTree_makeFromLengths2
.LVL959:
	.loc 1 665 10 view .LVU3637
.LBE1843:
.LBE1845:
	.loc 1 1025 5 is_stmt 1 view .LVU3638
	.loc 1 1025 7 is_stmt 0 view .LVU3639
	subs	r10, r0, #0
	beq	.L1126
	mov	r6, #0
	mov	r5, r6
	mov	r3, r6
	.loc 1 993 13 view .LVU3640
	str	r6, [sp]
	.loc 1 992 13 view .LVU3641
	str	r6, [sp, #20]
.LVL960:
.L983:
	.loc 1 1122 3 is_stmt 1 view .LVU3642
.LBB1846:
.LBI1846:
	.loc 1 73 13 view .LVU3643
.LBB1847:
	.loc 1 75 3 view .LVU3644
	ldr	r0, [sp, #32]
	str	r3, [sp, #8]
	bl	free
.LVL961:
	.loc 1 75 3 is_stmt 0 view .LVU3645
.LBE1847:
.LBE1846:
	.loc 1 1123 3 is_stmt 1 view .LVU3646
.LBB1850:
.LBI1850:
	.loc 1 73 13 view .LVU3647
.LBB1851:
	.loc 1 75 3 view .LVU3648
	ldr	r0, [sp, #20]
	bl	free
.LVL962:
	.loc 1 75 3 is_stmt 0 view .LVU3649
.LBE1851:
.LBE1850:
	.loc 1 1124 3 is_stmt 1 view .LVU3650
.LBB1853:
.LBI1853:
	.loc 1 73 13 view .LVU3651
.LBB1854:
	.loc 1 75 3 view .LVU3652
	ldr	r0, [sp]
	bl	free
.LVL963:
	.loc 1 75 3 is_stmt 0 view .LVU3653
.LBE1854:
.LBE1853:
	.loc 1 1125 3 is_stmt 1 view .LVU3654
.LBB1856:
.LBI1856:
	.loc 1 538 13 view .LVU3655
.LBB1857:
	.loc 1 540 3 view .LVU3656
.LBB1858:
.LBI1858:
	.loc 1 73 13 view .LVU3657
.LBB1859:
	.loc 1 75 3 view .LVU3658
.LBE1859:
.LBE1858:
.LBE1857:
.LBE1856:
	mov	r3, #0
	mov	r4, r3
.LBB1877:
.LBB1874:
.LBB1863:
.LBB1860:
	ldr	r0, [sp, #96]
.LBE1860:
.LBE1863:
.LBE1874:
.LBE1877:
	str	r3, [sp, #28]
.LBB1878:
.LBB1875:
.LBB1864:
.LBB1861:
	bl	free
.LVL964:
	.loc 1 75 3 is_stmt 0 view .LVU3659
.LBE1861:
.LBE1864:
	.loc 1 541 3 is_stmt 1 view .LVU3660
.LBB1865:
.LBI1865:
	.loc 1 73 13 view .LVU3661
.LBB1866:
	.loc 1 75 3 view .LVU3662
	ldr	r0, [sp, #100]
	bl	free
.LVL965:
	.loc 1 75 3 is_stmt 0 view .LVU3663
.LBE1866:
.LBE1865:
	.loc 1 542 3 is_stmt 1 view .LVU3664
.LBB1868:
.LBI1868:
	.loc 1 73 13 view .LVU3665
.LBB1869:
	.loc 1 75 3 view .LVU3666
	ldr	r0, [sp, #36]
	bl	free
.LVL966:
	.loc 1 75 3 is_stmt 0 view .LVU3667
.LBE1869:
.LBE1868:
.LBE1875:
.LBE1878:
.LBE1808:
.LBE1807:
	.loc 1 1145 9 is_stmt 1 view .LVU3668
.LBB1945:
.LBB1938:
	mov	r7, r4
	ldr	r3, [sp, #8]
	b	.L979
.LVL967:
.L1051:
	.loc 1 1145 9 is_stmt 0 view .LVU3669
.LBE1938:
.LBE1945:
.LBE1800:
.LBE1799:
.LBB2057:
.LBB1795:
	.loc 1 1240 34 view .LVU3670
	mov	r10, #21
.LVL968:
.L964:
	.loc 1 1240 34 view .LVU3671
.LBE1795:
.LBE2057:
.LBE2067:
	.loc 1 1281 1 view .LVU3672
	mov	r0, r10
	add	sp, sp, #124
	.cfi_remember_state
	.cfi_def_cfa_offset 36
	@ sp needed
	pop	{r4, r5, r6, r7, r8, r9, r10, fp, pc}
.LVL969:
.L970:
	.cfi_restore_state
.LBB2068:
	.loc 1 1268 37 view .LVU3673
	mov	r10, #52
.LBE2068:
	.loc 1 1281 1 view .LVU3674
	mov	r0, r10
	add	sp, sp, #124
	.cfi_remember_state
	.cfi_def_cfa_offset 36
	@ sp needed
	pop	{r4, r5, r6, r7, r8, r9, r10, fp, pc}
.LVL970:
.L1123:
	.cfi_restore_state
.LBB2069:
.LBB2058:
.LBB2052:
	.loc 1 1142 18 is_stmt 1 view .LVU3675
.LBB1946:
.LBI1946:
	.loc 1 975 13 view .LVU3676
.LBB1947:
	.loc 1 978 3 view .LVU3677
	add	r3, sp, #48
.LVL971:
	.loc 1 978 3 is_stmt 0 view .LVU3678
	mov	r0, r3
	str	r3, [sp, #8]
	bl	generateFixedLitLenTree.constprop.0.isra.0
.LVL972:
	.loc 1 979 3 is_stmt 1 view .LVU3679
	add	r3, sp, #72
.LVL973:
	.loc 1 979 3 is_stmt 0 view .LVU3680
	mov	r0, r3
	str	r3, [sp, #12]
	bl	generateFixedDistanceTree.constprop.0.isra.0
.LVL974:
	.loc 1 979 3 view .LVU3681
.LBE1947:
.LBE1946:
	.loc 1 1145 9 is_stmt 1 view .LVU3682
.LBB1948:
.LBB1949:
	.loc 1 542 20 is_stmt 0 view .LVU3683
	ldr	r3, [sp, #80]
.LBE1949:
.LBE1948:
.LBB1964:
.LBB1965:
	ldr	r6, [sp, #56]
.LBE1965:
.LBE1964:
.LBB1980:
.LBB1956:
	str	r3, [sp, #28]
.LVL975:
.L977:
	.loc 1 542 20 view .LVU3684
.LBE1956:
.LBE1980:
.LBB1981:
	.loc 1 1156 28 view .LVU3685
	mvn	r4, #256
	add	r7, sp, #44
.LVL976:
	.loc 1 1156 28 view .LVU3686
	str	r6, [sp, #32]
	ldr	r6, [sp, #16]
	str	r7, [sp]
.LVL977:
.L1048:
	.loc 1 1148 5 is_stmt 1 view .LVU3687
	.loc 1 1148 24 is_stmt 0 view .LVU3688
	mov	r3, fp
	mov	r0, r8
	ldr	r2, [sp, #8]
	ldr	r1, [sp]
	bl	huffmanDecodeSymbol
.LVL978:
	.loc 1 1149 7 view .LVU3689
	cmp	r0, #255
	.loc 1 1148 24 view .LVU3690
	mov	r5, r0
.LVL979:
	.loc 1 1149 5 is_stmt 1 view .LVU3691
	.loc 1 1149 7 is_stmt 0 view .LVU3692
	bls	.L1127
	.loc 1 1156 10 is_stmt 1 view .LVU3693
	.loc 1 1156 28 is_stmt 0 view .LVU3694
	add	r3, r0, r4
	.loc 1 1156 12 view .LVU3695
	cmp	r3, #28
	bhi	.L1032
.LBB1982:
	.loc 1 1158 7 is_stmt 1 view .LVU3696
	.loc 1 1159 7 view .LVU3697
	.loc 1 1160 7 view .LVU3698
	.loc 1 1163 7 view .LVU3699
	.loc 1 1163 14 is_stmt 0 view .LVU3700
	ldr	r2, .L1138+8
	.loc 1 1167 11 view .LVU3701
	ldr	lr, [sp, #44]
	.loc 1 1163 14 view .LVU3702
	add	r3, r2, r3, lsl #2
	.loc 1 1166 22 view .LVU3703
	ldr	ip, [r3, #468]
	.loc 1 1163 14 view .LVU3704
	ldr	r5, [r3, #112]
.LVL980:
	.loc 1 1166 7 is_stmt 1 view .LVU3705
	.loc 1 1167 7 view .LVU3706
	.loc 1 1167 15 is_stmt 0 view .LVU3707
	add	r7, ip, lr
	.loc 1 1167 9 view .LVU3708
	cmp	fp, r7
	bcc	.L1119
.LVL981:
.LBB1983:
.LBB1984:
	.loc 1 457 16 is_stmt 1 view .LVU3709
	cmp	ip, #0
	beq	.L1034
	.loc 1 456 12 is_stmt 0 view .LVU3710
	mov	r0, #0
.LVL982:
	.loc 1 457 9 view .LVU3711
	mov	r2, r0
.LVL983:
.L1035:
	.loc 1 457 9 view .LVU3712
	add	r1, lr, r2
.LVL984:
	.loc 1 459 5 is_stmt 1 view .LVU3713
	.loc 1 459 37 is_stmt 0 view .LVU3714
	ldrb	r3, [r8, r1, lsr #3]	@ zero_extendqisi2
	.loc 1 459 72 view .LVU3715
	and	r1, r1, #7
	.loc 1 459 56 view .LVU3716
	asr	r3, r3, r1
	.loc 1 459 16 view .LVU3717
	and	r3, r3, #1
	.loc 1 459 12 view .LVU3718
	add	r0, r0, r3, lsl r2
.LVL985:
	.loc 1 460 5 is_stmt 1 view .LVU3719
	.loc 1 457 26 view .LVU3720
	add	r2, r2, #1
.LVL986:
	.loc 1 457 16 view .LVU3721
	cmp	ip, r2
	bne	.L1035
	str	r7, [sp, #44]
.LBE1984:
.LBE1983:
	.loc 1 1168 14 is_stmt 0 view .LVU3722
	add	r5, r5, r0
.LVL987:
.L1034:
.LBB1986:
.LBB1985:
	.loc 1 462 3 is_stmt 1 view .LVU3723
	.loc 1 462 3 is_stmt 0 view .LVU3724
.LBE1985:
.LBE1986:
	.loc 1 1171 7 is_stmt 1 view .LVU3725
	.loc 1 1171 16 is_stmt 0 view .LVU3726
	mov	r3, fp
	mov	r0, r8
	ldr	r2, [sp, #12]
	ldr	r1, [sp]
	bl	huffmanDecodeSymbol
.LVL988:
	.loc 1 1172 7 is_stmt 1 view .LVU3727
	.loc 1 1172 9 is_stmt 0 view .LVU3728
	cmp	r0, #29
	bhi	.L1128
	.loc 1 1183 7 is_stmt 1 view .LVU3729
	.loc 1 1183 16 is_stmt 0 view .LVU3730
	ldr	r3, .L1138+8
	.loc 1 1187 11 view .LVU3731
	ldr	lr, [sp, #44]
	.loc 1 1183 16 view .LVU3732
	add	r0, r3, r0, lsl #2
.LVL989:
	.loc 1 1186 22 view .LVU3733
	ldr	ip, [r0, #348]
	.loc 1 1183 16 view .LVU3734
	ldr	r7, [r0, #228]
.LVL990:
	.loc 1 1186 7 is_stmt 1 view .LVU3735
	.loc 1 1187 7 view .LVU3736
	.loc 1 1187 15 is_stmt 0 view .LVU3737
	add	r10, ip, lr
	.loc 1 1187 9 view .LVU3738
	cmp	fp, r10
	bcc	.L1119
.LVL991:
.LBB1987:
.LBB1988:
	.loc 1 457 16 is_stmt 1 view .LVU3739
	cmp	ip, #0
	beq	.L1038
	.loc 1 456 12 is_stmt 0 view .LVU3740
	mov	r0, #0
	.loc 1 457 9 view .LVU3741
	mov	r2, r0
.LVL992:
.L1039:
	.loc 1 457 9 view .LVU3742
	add	r1, lr, r2
.LVL993:
	.loc 1 459 5 is_stmt 1 view .LVU3743
	.loc 1 459 37 is_stmt 0 view .LVU3744
	ldrb	r3, [r8, r1, lsr #3]	@ zero_extendqisi2
	.loc 1 459 72 view .LVU3745
	and	r1, r1, #7
	.loc 1 459 56 view .LVU3746
	asr	r3, r3, r1
	.loc 1 459 16 view .LVU3747
	and	r3, r3, #1
	.loc 1 459 12 view .LVU3748
	add	r0, r0, r3, lsl r2
.LVL994:
	.loc 1 460 5 is_stmt 1 view .LVU3749
	.loc 1 457 26 view .LVU3750
	add	r2, r2, #1
.LVL995:
	.loc 1 457 16 view .LVU3751
	cmp	ip, r2
	bne	.L1039
	str	r10, [sp, #44]
.LBE1988:
.LBE1987:
	.loc 1 1188 16 is_stmt 0 view .LVU3752
	add	r7, r7, r0
.LVL996:
.L1038:
.LBB1990:
.LBB1989:
	.loc 1 462 3 is_stmt 1 view .LVU3753
	.loc 1 462 3 is_stmt 0 view .LVU3754
.LBE1989:
.LBE1990:
	.loc 1 1191 7 is_stmt 1 view .LVU3755
	.loc 1 1192 7 view .LVU3756
	.loc 1 1192 9 is_stmt 0 view .LVU3757
	cmp	r9, r7
	bcc	.L1129
	.loc 1 1192 49 is_stmt 1 view .LVU3758
	.loc 1 1193 7 view .LVU3759
.LVL997:
	.loc 1 1195 7 view .LVU3760
.LBB1991:
.LBB1992:
.LBB1993:
.LBB1994:
	.loc 1 215 19 is_stmt 0 view .LVU3761
	ldr	r3, [r6, #8]
.LBE1994:
.LBE1993:
.LBE1992:
.LBE1991:
	.loc 1 1195 11 view .LVU3762
	add	r10, r9, r5
.LVL998:
.LBB2004:
.LBI1991:
	.loc 1 230 17 is_stmt 1 view .LVU3763
.LBB2001:
	.loc 1 232 3 view .LVU3764
.LBB2000:
.LBI1993:
	.loc 1 213 17 view .LVU3765
.LBB1999:
	.loc 1 215 3 view .LVU3766
	.loc 1 215 5 is_stmt 0 view .LVU3767
	cmp	r10, r3
.LBB1995:
	.loc 1 218 35 view .LVU3768
	ldr	r0, [r6]
.LBE1995:
	.loc 1 215 5 view .LVU3769
	bls	.L1041
.LBB1998:
	.loc 1 217 5 is_stmt 1 view .LVU3770
	.loc 1 217 65 is_stmt 0 view .LVU3771
	cmp	r10, r3, lsl #1
	movhi	r1, r10
	.loc 1 217 78 view .LVU3772
	addls	r1, r10, r10, lsl #1
	.loc 1 217 65 view .LVU3773
	lsrls	r1, r1, #1
.LVL999:
	.loc 1 218 5 is_stmt 1 view .LVU3774
.LBB1996:
.LBI1996:
	.loc 1 68 14 view .LVU3775
.LBB1997:
	.loc 1 70 3 view .LVU3776
	.loc 1 70 10 is_stmt 0 view .LVU3777
	str	r1, [sp, #20]
	bl	realloc
.LVL1000:
	.loc 1 70 10 view .LVU3778
.LBE1997:
.LBE1996:
	.loc 1 219 5 is_stmt 1 view .LVU3779
	.loc 1 219 7 is_stmt 0 view .LVU3780
	cmp	r0, #0
	.loc 1 219 7 view .LVU3781
	ldr	r1, [sp, #20]
	beq	.L1121
	.loc 1 221 7 is_stmt 1 view .LVU3782
	.loc 1 221 20 is_stmt 0 view .LVU3783
	str	r1, [r6, #8]
	.loc 1 222 7 is_stmt 1 view .LVU3784
	.loc 1 222 15 is_stmt 0 view .LVU3785
	str	r0, [r6]
.LVL1001:
.L1041:
	.loc 1 222 15 view .LVU3786
.LBE1998:
.LBE1999:
.LBE2000:
.LBE2001:
.LBE2004:
	.loc 1 1196 10 view .LVU3787
	cmp	r5, r7
.LBB2005:
.LBB2002:
	.loc 1 233 11 view .LVU3788
	str	r10, [r6, #4]
.LBE2002:
.LBE2005:
	.loc 1 1193 16 view .LVU3789
	sub	r1, r9, r7
.LBB2006:
.LBB2003:
	.loc 1 233 3 is_stmt 1 view .LVU3790
	.loc 1 234 3 view .LVU3791
.LVL1002:
	.loc 1 234 3 is_stmt 0 view .LVU3792
.LBE2003:
.LBE2006:
	.loc 1 1195 71 is_stmt 1 view .LVU3793
	.loc 1 1196 7 view .LVU3794
	.loc 1 1196 10 is_stmt 0 view .LVU3795
	bhi	.L1130
	.loc 1 1202 9 is_stmt 1 view .LVU3796
	add	r1, r0, r1
	mov	r2, r5
	add	r0, r0, r9
	bl	memcpy
.LVL1003:
	.loc 1 1203 9 view .LVU3797
.L1047:
	.loc 1 1199 27 is_stmt 0 view .LVU3798
	mov	r9, r10
.LVL1004:
	.loc 1 1199 27 view .LVU3799
.LBE1982:
.LBE1981:
	.loc 1 1145 9 is_stmt 1 view .LVU3800
	.loc 1 1145 9 is_stmt 0 view .LVU3801
	b	.L1048
.LVL1005:
.L1127:
.LBB2024:
	.loc 1 1152 7 is_stmt 1 view .LVU3802
.LBB2007:
.LBB2008:
.LBB2009:
.LBB2010:
	.loc 1 215 19 is_stmt 0 view .LVU3803
	ldr	r3, [r6, #8]
.LBE2010:
.LBE2009:
.LBE2008:
.LBE2007:
	.loc 1 1152 11 view .LVU3804
	add	r7, r9, #1
.LVL1006:
.LBB2018:
.LBI2007:
	.loc 1 230 17 is_stmt 1 view .LVU3805
.LBB2017:
	.loc 1 232 3 view .LVU3806
.LBB2016:
.LBI2009:
	.loc 1 213 17 view .LVU3807
.LBB2015:
	.loc 1 215 3 view .LVU3808
	.loc 1 215 5 is_stmt 0 view .LVU3809
	cmp	r7, r3
.LBB2011:
	.loc 1 218 35 view .LVU3810
	ldr	r0, [r6]
.LVL1007:
	.loc 1 218 35 view .LVU3811
.LBE2011:
	.loc 1 215 5 view .LVU3812
	bls	.L1028
.LBB2014:
	.loc 1 217 5 is_stmt 1 view .LVU3813
	.loc 1 217 65 is_stmt 0 view .LVU3814
	cmp	r7, r3, lsl #1
	movhi	r10, r7
	.loc 1 217 78 view .LVU3815
	addls	r10, r7, r7, lsl #1
	.loc 1 217 65 view .LVU3816
	lsrls	r10, r10, #1
.LVL1008:
	.loc 1 218 5 is_stmt 1 view .LVU3817
.LBB2012:
.LBI2012:
	.loc 1 68 14 view .LVU3818
.LBB2013:
	.loc 1 70 3 view .LVU3819
	.loc 1 70 10 is_stmt 0 view .LVU3820
	mov	r1, r10
	bl	realloc
.LVL1009:
	.loc 1 70 10 view .LVU3821
.LBE2013:
.LBE2012:
	.loc 1 219 5 is_stmt 1 view .LVU3822
	.loc 1 219 7 is_stmt 0 view .LVU3823
	cmp	r0, #0
	.loc 1 219 7 view .LVU3824
	beq	.L1121
	.loc 1 221 7 is_stmt 1 view .LVU3825
	.loc 1 221 20 is_stmt 0 view .LVU3826
	str	r10, [r6, #8]
	.loc 1 222 7 is_stmt 1 view .LVU3827
	.loc 1 222 15 is_stmt 0 view .LVU3828
	str	r0, [r6]
.LVL1010:
.L1028:
	.loc 1 222 15 view .LVU3829
.LBE2014:
.LBE2015:
.LBE2016:
	.loc 1 233 3 is_stmt 1 view .LVU3830
	.loc 1 233 11 is_stmt 0 view .LVU3831
	str	r7, [r6, #4]
	.loc 1 234 3 is_stmt 1 view .LVU3832
.LVL1011:
	.loc 1 234 3 is_stmt 0 view .LVU3833
.LBE2017:
.LBE2018:
	.loc 1 1152 66 is_stmt 1 view .LVU3834
	.loc 1 1153 7 view .LVU3835
	.loc 1 1153 25 is_stmt 0 view .LVU3836
	strb	r5, [r0, r9]
	.loc 1 1154 7 is_stmt 1 view .LVU3837
.LVL1012:
	.loc 1 1152 11 is_stmt 0 view .LVU3838
	mov	r9, r7
	b	.L1048
.LVL1013:
.L1130:
.LBB2019:
	.loc 1 1199 11 is_stmt 1 view .LVU3839
	.loc 1 1199 42 is_stmt 0 view .LVU3840
	ldrb	r3, [r0, r1]	@ zero_extendqisi2
	.loc 1 1197 34 view .LVU3841
	cmp	r5, #1
	.loc 1 1199 31 view .LVU3842
	strb	r3, [r0, r9]
	.loc 1 1199 51 view .LVU3843
	add	r3, r1, #1
.LVL1014:
	.loc 1 1197 44 is_stmt 1 view .LVU3844
	.loc 1 1197 34 view .LVU3845
	beq	.L1047
	add	r1, r1, r5
.LVL1015:
.L1046:
	.loc 1 1197 34 is_stmt 0 view .LVU3846
	mov	ip, r3
	.loc 1 1199 36 view .LVU3847
	ldr	r2, [r6]
	add	r0, r3, r7
.LVL1016:
	.loc 1 1199 11 is_stmt 1 view .LVU3848
	.loc 1 1199 42 is_stmt 0 view .LVU3849
	ldrb	ip, [r2, ip]	@ zero_extendqisi2
.LVL1017:
	.loc 1 1199 51 view .LVU3850
	add	r3, r3, #1
.LVL1018:
	.loc 1 1197 34 view .LVU3851
	cmp	r3, r1
	.loc 1 1199 31 view .LVU3852
	strb	ip, [r2, r0]
	.loc 1 1197 44 is_stmt 1 view .LVU3853
	.loc 1 1197 34 view .LVU3854
	bne	.L1046
	b	.L1047
.LVL1019:
.L1124:
	.loc 1 1197 34 is_stmt 0 view .LVU3855
.LBE2019:
.LBE2024:
	.loc 1 1145 9 is_stmt 1 view .LVU3856
.LBB2025:
.LBB1939:
	mov	r6, #0
	.loc 1 1007 50 is_stmt 0 view .LVU3857
	mov	r10, #50
.LVL1020:
.L1120:
	.loc 1 1007 50 view .LVU3858
	mov	r5, r6
	mov	r3, r6
	mov	r7, r6
.LVL1021:
	.loc 1 1007 50 view .LVU3859
	mov	r4, r6
	str	r6, [sp, #28]
.LVL1022:
.L979:
	.loc 1 1007 50 view .LVU3860
.LBE1939:
.LBE2025:
	.loc 1 1219 3 is_stmt 1 view .LVU3861
.LBB2026:
.LBI1964:
	.loc 1 538 13 view .LVU3862
.LBB1972:
	.loc 1 540 3 view .LVU3863
.LBB1966:
.LBI1966:
	.loc 1 73 13 view .LVU3864
.LBB1967:
	.loc 1 75 3 view .LVU3865
	mov	r0, r3
	bl	free
.LVL1023:
	.loc 1 75 3 is_stmt 0 view .LVU3866
.LBE1967:
.LBE1966:
	.loc 1 541 3 is_stmt 1 view .LVU3867
.LBB1968:
.LBI1968:
	.loc 1 73 13 view .LVU3868
.LBB1969:
	.loc 1 75 3 view .LVU3869
	mov	r0, r5
	bl	free
.LVL1024:
	.loc 1 75 3 is_stmt 0 view .LVU3870
.LBE1969:
.LBE1968:
	.loc 1 542 3 is_stmt 1 view .LVU3871
.LBB1970:
.LBI1970:
	.loc 1 73 13 view .LVU3872
.LBB1971:
	.loc 1 75 3 view .LVU3873
	mov	r0, r6
	bl	free
.LVL1025:
	.loc 1 75 3 is_stmt 0 view .LVU3874
.LBE1971:
.LBE1970:
.LBE1972:
.LBE2026:
	.loc 1 1220 3 is_stmt 1 view .LVU3875
.LBB2027:
.LBI1948:
	.loc 1 538 13 view .LVU3876
.LBB1957:
	.loc 1 540 3 view .LVU3877
.LBB1950:
.LBI1950:
	.loc 1 73 13 view .LVU3878
.LBB1951:
	.loc 1 75 3 view .LVU3879
	mov	r0, r4
	bl	free
.LVL1026:
	.loc 1 75 3 is_stmt 0 view .LVU3880
.LBE1951:
.LBE1950:
	.loc 1 541 3 is_stmt 1 view .LVU3881
.LBB1952:
.LBI1952:
	.loc 1 73 13 view .LVU3882
.LBB1953:
	.loc 1 75 3 view .LVU3883
	mov	r0, r7
	bl	free
.LVL1027:
	.loc 1 75 3 is_stmt 0 view .LVU3884
.LBE1953:
.LBE1952:
	.loc 1 542 3 is_stmt 1 view .LVU3885
.LBB1954:
.LBI1954:
	.loc 1 73 13 view .LVU3886
.LBB1955:
	.loc 1 75 3 view .LVU3887
	ldr	r0, [sp, #28]
	bl	free
.LVL1028:
	.loc 1 75 3 is_stmt 0 view .LVU3888
.LBE1955:
.LBE1954:
.LBE1957:
.LBE2027:
	.loc 1 1222 3 is_stmt 1 view .LVU3889
	.loc 1 1222 3 is_stmt 0 view .LVU3890
.LBE2052:
.LBE2058:
	.loc 1 1277 5 is_stmt 1 view .LVU3891
	.loc 1 1277 7 is_stmt 0 view .LVU3892
	cmp	r10, #0
	beq	.L975
	b	.L964
.LVL1029:
.L1119:
.LBB2059:
.LBB2053:
.LBB2028:
.LBB2020:
	.loc 1 1167 56 view .LVU3893
	mov	r10, #51
	ldr	r6, [sp, #32]
.LBE2020:
.LBE2028:
.LBB2029:
.LBB1958:
	.loc 1 540 20 view .LVU3894
	ldr	r4, [sp, #72]
	.loc 1 541 20 view .LVU3895
	ldr	r7, [sp, #76]
.LBE1958:
.LBE2029:
.LBB2030:
.LBB1973:
	.loc 1 540 20 view .LVU3896
	ldr	r3, [sp, #48]
	.loc 1 541 20 view .LVU3897
	ldr	r5, [sp, #52]
	b	.L979
.LVL1030:
.L1050:
	.loc 1 541 20 view .LVU3898
.LBE1973:
.LBE2030:
.LBE2053:
.LBE2059:
	.loc 1 1273 27 view .LVU3899
	mov	r10, #20
	b	.L964
.LVL1031:
.L1054:
.LBB2060:
.LBB1796:
	.loc 1 1245 33 view .LVU3900
	mov	r10, #23
.LVL1032:
	.loc 1 1245 33 view .LVU3901
	b	.L964
.LVL1033:
.L1126:
	.loc 1 1245 33 view .LVU3902
.LBE1796:
.LBE2060:
.LBB2061:
.LBB2054:
.LBB2031:
.LBB1940:
	.loc 1 1028 5 is_stmt 1 view .LVU3903
.LBB1879:
.LBI1879:
	.loc 1 63 14 view .LVU3904
.LBB1880:
	.loc 1 65 3 view .LVU3905
	.loc 1 65 10 is_stmt 0 view .LVU3906
	mov	r1, #1
	mov	r0, #1152
.LVL1034:
	.loc 1 65 10 view .LVU3907
	bl	calloc
.LVL1035:
	mov	r3, r0
.LBE1880:
.LBE1879:
.LBB1882:
.LBB1883:
	mov	r1, #1
	mov	r0, #128
.LBE1883:
.LBE1882:
.LBB1885:
.LBB1881:
	mov	r4, r3
	str	r3, [sp, #20]
.LVL1036:
	.loc 1 65 10 view .LVU3908
.LBE1881:
.LBE1885:
	.loc 1 1029 5 is_stmt 1 view .LVU3909
.LBB1886:
.LBI1882:
	.loc 1 63 14 view .LVU3910
.LBB1884:
	.loc 1 65 3 view .LVU3911
	.loc 1 65 10 is_stmt 0 view .LVU3912
	bl	calloc
.LVL1037:
	.loc 1 65 10 view .LVU3913
.LBE1884:
.LBE1886:
	.loc 1 1030 5 is_stmt 1 view .LVU3914
	.loc 1 1030 7 is_stmt 0 view .LVU3915
	cmp	r0, #0
	cmpne	r4, #0
	mov	r3, r4
	.loc 1 1030 22 view .LVU3916
	str	r0, [sp]
	.loc 1 1030 7 view .LVU3917
	moveq	r3, #1
	movne	r3, #0
	beq	.L1061
.LVL1038:
	.loc 1 1030 7 view .LVU3918
	add	r2, r5, #256
	add	r1, r2, #2
	.loc 1 1036 13 view .LVU3919
	adds	r6, r6, r1
	str	r1, [sp, #28]
.LVL1039:
	.loc 1 1036 13 is_stmt 1 view .LVU3920
	beq	.L1023
	.loc 1 1035 7 is_stmt 0 view .LVU3921
	mov	r10, r3
	ldr	r3, [sp]
	rsb	r5, r5, r5, lsl #30
	add	r3, r3, r5, lsl #2
	sub	r1, r3, #1024
	add	r7, sp, #44
.LVL1040:
	.loc 1 1035 7 view .LVU3922
	sub	r1, r1, #4
.LBB1887:
.LBB1888:
	.loc 1 1094 35 view .LVU3923
	str	r9, [sp, #12]
	str	r7, [sp, #8]
	mov	r4, r10
.LVL1041:
	.loc 1 1094 35 view .LVU3924
	mov	r9, r1
	mov	r3, fp
	ldr	r7, [sp, #20]
.LVL1042:
	.loc 1 1094 35 view .LVU3925
.LBE1888:
.LBE1887:
	.loc 1 1001 8 view .LVU3926
	add	r5, r2, #1
	b	.L1022
.LVL1043:
.L1132:
.LBB1909:
	.loc 1 1041 9 is_stmt 1 view .LVU3927
	.loc 1 1041 11 is_stmt 0 view .LVU3928
	cmp	r5, r10
	.loc 1 1041 22 is_stmt 1 view .LVU3929
	.loc 1 1042 33 is_stmt 0 view .LVU3930
	ldrls	r1, [sp]
	.loc 1 1042 25 view .LVU3931
	subls	r2, r10, r5
	.loc 1 1041 35 view .LVU3932
	strhi	r0, [r7, r10, lsl #2]
	.loc 1 1042 14 is_stmt 1 view .LVU3933
	.loc 1 1042 33 is_stmt 0 view .LVU3934
	strls	r0, [r1, r2, lsl #2]
	.loc 1 1043 9 is_stmt 1 view .LVU3935
	add	r10, r10, #1
.LVL1044:
.L994:
	.loc 1 1043 9 is_stmt 0 view .LVU3936
.LBE1909:
	.loc 1 1036 13 is_stmt 1 view .LVU3937
	cmp	r6, r10
	bls	.L1131
.LVL1045:
.L1022:
.LBB1910:
	.loc 1 1038 7 view .LVU3938
	.loc 1 1038 23 is_stmt 0 view .LVU3939
	mov	r0, r8
	ldr	r1, [sp, #8]
	add	r2, sp, #96
	bl	huffmanDecodeSymbol
.LVL1046:
	.loc 1 1039 7 is_stmt 1 view .LVU3940
	.loc 1 1039 9 is_stmt 0 view .LVU3941
	cmp	r0, #15
	bls	.L1132
	.loc 1 1045 12 is_stmt 1 view .LVU3942
	.loc 1 1045 14 is_stmt 0 view .LVU3943
	cmp	r0, #16
	beq	.L1133
	.loc 1 1066 12 is_stmt 1 view .LVU3944
	.loc 1 1066 14 is_stmt 0 view .LVU3945
	cmp	r0, #17
	beq	.L1134
	.loc 1 1082 12 is_stmt 1 view .LVU3946
	.loc 1 1082 14 is_stmt 0 view .LVU3947
	cmp	r0, #18
	bne	.L1014
.LBB1893:
	.loc 1 1084 9 is_stmt 1 view .LVU3948
.LVL1047:
	.loc 1 1085 9 view .LVU3949
	.loc 1 1085 13 is_stmt 0 view .LVU3950
	ldr	lr, [sp, #44]
	.loc 1 1085 17 view .LVU3951
	add	fp, lr, #7
	.loc 1 1085 11 view .LVU3952
	cmp	r3, fp
	bcc	.L1066
.LBB1889:
.LBB1890:
	.loc 1 456 12 view .LVU3953
	mov	ip, #0
	.loc 1 457 9 view .LVU3954
	mov	r1, ip
.LVL1048:
.L1015:
	.loc 1 457 9 view .LVU3955
	add	r0, lr, r1
.LVL1049:
	.loc 1 459 5 is_stmt 1 view .LVU3956
	.loc 1 459 37 is_stmt 0 view .LVU3957
	ldrb	r2, [r8, r0, lsr #3]	@ zero_extendqisi2
	.loc 1 459 72 view .LVU3958
	and	r0, r0, #7
	.loc 1 459 56 view .LVU3959
	asr	r2, r2, r0
	.loc 1 459 16 view .LVU3960
	and	r2, r2, #1
	.loc 1 459 12 view .LVU3961
	add	ip, ip, r2, lsl r1
.LVL1050:
	.loc 1 460 5 is_stmt 1 view .LVU3962
	.loc 1 457 26 view .LVU3963
	add	r1, r1, #1
.LVL1051:
	.loc 1 457 16 view .LVU3964
	cmp	r1, #7
	bne	.L1015
.LBE1890:
.LBE1889:
	.loc 1 1089 22 is_stmt 0 view .LVU3965
	cmn	ip, #11
	str	fp, [sp, #44]
.LBB1892:
.LBB1891:
	.loc 1 462 3 is_stmt 1 view .LVU3966
.LVL1052:
	.loc 1 462 3 is_stmt 0 view .LVU3967
.LBE1891:
.LBE1892:
	.loc 1 1089 9 is_stmt 1 view .LVU3968
	.loc 1 1089 22 view .LVU3969
	beq	.L994
	.loc 1 1091 11 view .LVU3970
	.loc 1 1091 13 is_stmt 0 view .LVU3971
	cmp	r6, r10
	bls	.L1116
	add	r2, r10, #11
	add	r2, r2, ip
.L1017:
	.loc 1 1091 54 is_stmt 1 view .LVU3972
	.loc 1 1093 11 view .LVU3973
	.loc 1 1093 24 view .LVU3974
	.loc 1 1094 16 view .LVU3975
	.loc 1 1093 13 is_stmt 0 view .LVU3976
	cmp	r5, r10
	.loc 1 1093 37 view .LVU3977
	strhi	r4, [r7, r10, lsl #2]
	.loc 1 1094 35 view .LVU3978
	strls	r4, [r9, r10, lsl #2]
	.loc 1 1091 11 is_stmt 1 view .LVU3979
	.loc 1 1095 11 view .LVU3980
	add	r10, r10, #1
.LVL1053:
	.loc 1 1089 35 view .LVU3981
	.loc 1 1089 22 view .LVU3982
	cmp	r10, r2
	beq	.L994
	.loc 1 1091 13 is_stmt 0 view .LVU3983
	cmp	r6, r10
	bne	.L1017
.L1116:
	.loc 1 1091 13 view .LVU3984
	mov	fp, r3
	.loc 1 1091 41 view .LVU3985
	mov	r10, #15
.LVL1054:
	.loc 1 1091 41 view .LVU3986
	ldr	r9, [sp, #12]
.LVL1055:
.L1000:
	.loc 1 1091 41 view .LVU3987
.LBE1893:
.LBE1910:
	.loc 1 1036 13 is_stmt 1 view .LVU3988
	.loc 1 1110 5 view .LVU3989
	.loc 1 1112 37 is_stmt 0 view .LVU3990
	mov	r6, #0
	mov	r5, r6
	mov	r3, r6
	b	.L983
.LVL1056:
.L1134:
.LBB1911:
.LBB1894:
	.loc 1 1068 9 is_stmt 1 view .LVU3991
	.loc 1 1069 9 view .LVU3992
	.loc 1 1069 13 is_stmt 0 view .LVU3993
	ldr	lr, [sp, #44]
	.loc 1 1069 17 view .LVU3994
	add	fp, lr, #3
	.loc 1 1069 11 view .LVU3995
	cmp	r3, fp
	bcc	.L1066
.LBB1895:
.LBB1896:
	.loc 1 456 12 view .LVU3996
	mov	ip, #0
	.loc 1 457 9 view .LVU3997
	mov	r1, ip
.LVL1057:
.L1007:
	.loc 1 457 9 view .LVU3998
	add	r0, lr, r1
.LVL1058:
	.loc 1 459 5 is_stmt 1 view .LVU3999
	.loc 1 459 37 is_stmt 0 view .LVU4000
	ldrb	r2, [r8, r0, lsr #3]	@ zero_extendqisi2
	.loc 1 459 72 view .LVU4001
	and	r0, r0, #7
	.loc 1 459 56 view .LVU4002
	asr	r2, r2, r0
	.loc 1 459 16 view .LVU4003
	and	r2, r2, #1
	.loc 1 459 12 view .LVU4004
	add	ip, ip, r2, lsl r1
.LVL1059:
	.loc 1 460 5 is_stmt 1 view .LVU4005
	.loc 1 457 26 view .LVU4006
	add	r1, r1, #1
.LVL1060:
	.loc 1 457 16 view .LVU4007
	cmp	r1, #3
	bne	.L1007
.LBE1896:
.LBE1895:
