	.arch armv6k
	.fpu vfp
	.eabi_attribute 28, 1
	.eabi_attribute 20, 1
	.eabi_attribute 21, 1
	.eabi_attribute 23, 3
	.eabi_attribute 24, 1
	.eabi_attribute 25, 1
	.eabi_attribute 26, 1
	.eabi_attribute 30, 2
	.eabi_attribute 34, 1
	.eabi_attribute 18, 4
	.file	"main.c"
	.text
.Ltext0:
	.cfi_sections	.debug_frame
	.file 1 "/Users/blackout/Desktop/Craftus-Rehabilitated/source/main.c"
	.section	.text.releaseWorld,"ax",%progbits
	.align	2
	.global	releaseWorld
	.syntax unified
	.arm
	.type	releaseWorld, %function
releaseWorld:
.LVL0:
.LFB226:
	.loc 1 30 81 view -0
	.cfi_startproc
	@ args = 0, pretend = 0, frame = 0
	@ frame_needed = 0, uses_anonymous_args = 0
	.loc 1 31 2 view .LVU1
.LBB31:
	.loc 1 31 7 view .LVU2
	.loc 1 31 20 view .LVU3
.LBE31:
	.loc 1 30 81 is_stmt 0 view .LVU4
	push	{r4, r5, r6, r7, r8, r9, r10, lr}
	.cfi_def_cfa_offset 32
	.cfi_offset 4, -32
	.cfi_offset 5, -28
	.cfi_offset 6, -24
	.cfi_offset 7, -20
	.cfi_offset 8, -16
	.cfi_offset 9, -12
	.cfi_offset 10, -8
	.cfi_offset 14, -4
	.loc 1 30 81 view .LVU5
	mov	r6, r2
	mov	r9, r0
	mov	r8, r1
	ldr	r5, .L8
	ldr	r7, .L8+4
	add	r5, r2, r5
	add	r7, r2, r7
.LVL1:
.L2:
.LBB33:
.LBB32:
	.loc 1 32 21 is_stmt 1 view .LVU6
	sub	r4, r5, #36
.LVL2:
.L3:
	.loc 1 33 4 discriminator 3 view .LVU7
	ldr	r1, [r4, #4]!
	mov	r0, r6
	bl	World_UnloadChunk
.LVL3:
	.loc 1 32 29 discriminator 3 view .LVU8
	.loc 1 32 21 discriminator 3 view .LVU9
	cmp	r4, r5
	bne	.L3
.LBE32:
	.loc 1 31 28 discriminator 2 view .LVU10
	.loc 1 31 20 discriminator 2 view .LVU11
	add	r5, r4, #36
	cmp	r5, r7
	bne	.L2
.LBE33:
	.loc 1 36 2 view .LVU12
	mov	r0, r9
	bl	ChunkWorker_Finish
.LVL4:
	.loc 1 37 2 view .LVU13
	mov	r0, r6
	bl	World_Reset
.LVL5:
	.loc 1 39 2 view .LVU14
	mov	r0, r8
	.loc 1 40 1 is_stmt 0 view .LVU15
	pop	{r4, r5, r6, r7, r8, r9, r10, lr}
	.cfi_restore 14
	.cfi_restore 10
	.cfi_restore 9
	.cfi_restore 8
	.cfi_restore 7
	.cfi_restore 6
	.cfi_restore 5
	.cfi_restore 4
	.cfi_def_cfa_offset 0
.LVL6:
	.loc 1 39 2 view .LVU16
	b	SaveManager_Unload
.LVL7:
.L9:
	.loc 1 39 2 view .LVU17
	.align	2
.L8:
	.word	11919672
	.word	11919996
	.cfi_endproc
.LFE226:
	.size	releaseWorld, .-releaseWorld
	.section	.rodata.str1.4,"aMS",%progbits,1
	.align	2
.LC1:
	.ascii	"romfs\000"
	.align	2
.LC2:
	.ascii	"%d FPS  Usage: CPU: %5.2f%% GPU: %5.2f%% Buf: %5.2f"
	.ascii	"%% Lin: %d\000"
	.align	2
.LC3:
	.ascii	"Player: %f, %f, %f P: %f Y: %f\000"
	.global	__aeabi_ul2f
	.section	.text.startup.main,"ax",%progbits
	.align	2
	.global	main
	.syntax unified
	.arm
	.type	main, %function
main:
.LFB227:
	.loc 1 42 12 is_stmt 1 view -0
	.cfi_startproc
	@ args = 0, pretend = 0, frame = 840
	@ frame_needed = 0, uses_anonymous_args = 0
	.loc 1 43 2 view .LVU19
	.loc 1 42 12 is_stmt 0 view .LVU20
	push	{r4, r5, r6, r7, r8, r9, r10, fp, lr}
	.cfi_def_cfa_offset 36
	.cfi_offset 4, -36
	.cfi_offset 5, -32
	.cfi_offset 6, -28
	.cfi_offset 7, -24
	.cfi_offset 8, -20
	.cfi_offset 9, -16
	.cfi_offset 10, -12
	.cfi_offset 11, -8
	.cfi_offset 14, -4
	vpush.64	{d8, d9, d10, d11, d12, d13}
	.cfi_def_cfa_offset 84
	.cfi_offset 80, -84
	.cfi_offset 81, -80
	.cfi_offset 82, -76
	.cfi_offset 83, -72
	.cfi_offset 84, -68
	.cfi_offset 85, -64
	.cfi_offset 86, -60
	.cfi_offset 87, -56
	.cfi_offset 88, -52
	.cfi_offset 89, -48
	.cfi_offset 90, -44
	.cfi_offset 91, -40
	.loc 1 62 78 view .LVU21
	mov	r4, #1
	.loc 1 43 12 view .LVU22
	mov	r7, #0
	.loc 1 42 12 view .LVU23
	sub	sp, sp, #876
	.cfi_def_cfa_offset 960
	.loc 1 43 12 view .LVU24
	strb	r7, [sp, #33]
	.loc 1 45 2 is_stmt 1 view .LVU25
	bl	gfxInitDefault
.LVL8:
	.loc 1 47 2 view .LVU26
	mov	r0, r4
	bl	gfxSet3D
.LVL9:
	.loc 1 49 2 view .LVU27
.LBB34:
.LBI34:
	.file 2 "/opt/devkitPro//libctru/include/3ds/romfs.h"
	.loc 2 84 22 view .LVU28
.LBB35:
	.loc 2 86 2 view .LVU29
	.loc 2 86 9 is_stmt 0 view .LVU30
	ldr	r0, .L57+76
	bl	romfsMountSelf
.LVL10:
.LBE35:
.LBE34:
	.loc 1 51 2 is_stmt 1 view .LVU31
	.loc 1 52 2 view .LVU32
	.loc 1 53 2 view .LVU33
	.loc 1 55 2 view .LVU34
	bl	SuperChunk_InitPools
.LVL11:
	.loc 1 57 2 view .LVU35
	bl	SaveManager_InitFileSystem
.LVL12:
	.loc 1 59 2 view .LVU36
	.loc 1 60 2 view .LVU37
	add	r0, sp, #264
	bl	ChunkWorker_Init
.LVL13:
	.loc 1 61 2 view .LVU38
	.loc 1 61 78 is_stmt 0 view .LVU39
	ldr	r2, .L57+32
	add	r3, sp, #60
	ldm	r2, {r0, r1, r2}
	stm	r3, {r0, r1, r2}
	.loc 1 61 2 view .LVU40
	str	r2, [sp]
	ldm	r3, {r2, r3}
	mov	r1, #4
	add	r0, sp, #264
	bl	ChunkWorker_AddHandler
.LVL14:
	.loc 1 62 2 is_stmt 1 view .LVU41
	.loc 1 62 78 is_stmt 0 view .LVU42
	add	r3, sp, #36
	str	r3, [sp, #76]
	ldr	r3, .L57+36
	strb	r4, [sp, #80]
	str	r3, [sp, #72]
	.loc 1 62 2 view .LVU43
	ldr	r3, [sp, #80]
	mov	r1, #2
	str	r3, [sp]
	add	r3, sp, #72
	ldm	r3, {r2, r3}
	add	r0, sp, #264
	bl	ChunkWorker_AddHandler
.LVL15:
	.loc 1 63 2 is_stmt 1 view .LVU44
	.loc 1 63 78 is_stmt 0 view .LVU45
	add	r3, sp, #40
	str	r3, [sp, #88]
	ldr	r3, .L57+40
	strb	r4, [sp, #92]
	str	r3, [sp, #84]
	.loc 1 63 2 view .LVU46
	ldr	r3, [sp, #92]
	mov	r1, #2
	str	r3, [sp]
	add	r3, sp, #84
	ldm	r3, {r2, r3}
	add	r0, sp, #264
	bl	ChunkWorker_AddHandler
.LVL16:
	.loc 1 64 2 is_stmt 1 view .LVU47
	.loc 1 64 78 is_stmt 0 view .LVU48
	ldr	r3, .L57+44
	strb	r4, [sp, #104]
	str	r3, [sp, #96]
	.loc 1 64 2 view .LVU49
	ldr	r3, [sp, #104]
	.loc 1 64 78 view .LVU50
	add	r8, sp, #44
	.loc 1 64 2 view .LVU51
	str	r3, [sp]
	.loc 1 64 78 view .LVU52
	str	r8, [sp, #100]
	.loc 1 64 2 view .LVU53
	add	r3, sp, #96
	ldm	r3, {r2, r3}
	mov	r1, #2
	add	r0, sp, #264
	bl	ChunkWorker_AddHandler
.LVL17:
	.loc 1 66 2 is_stmt 1 view .LVU54
	bl	sino_init
.LVL18:
	.loc 1 68 2 view .LVU55
	.loc 1 68 25 is_stmt 0 view .LVU56
	ldr	r0, .L57+48
	bl	malloc
.LVL19:
	mov	r5, r0
	.loc 1 71 2 view .LVU57
	add	r0, sp, #612
	mov	r1, r5
	bl	Player_Init
.LVL20:
	.loc 1 72 2 view .LVU58
	add	r1, sp, #612
	add	r0, sp, #188
	bl	PlayerController_Init
.LVL21:
	.loc 1 74 2 view .LVU59
	mov	r1, r5
	add	r0, sp, #36
	bl	SuperFlatGen_Init
.LVL22:
	.loc 1 75 2 view .LVU60
	mov	r1, r5
	add	r0, sp, #40
	bl	SmeaGen_Init
.LVL23:
	.loc 1 76 2 view .LVU61
	mov	r1, r5
	mov	r0, r8
	bl	TestGen_Init
.LVL24:
	.loc 1 78 2 view .LVU62
	add	r2, sp, #268
	add	r3, sp, #33
	mov	r0, r5
	add	r1, sp, #612
	bl	Renderer_Init
.LVL25:
	.loc 1 80 2 view .LVU63
	bl	DebugUI_Init
.LVL26:
	.loc 1 82 2 view .LVU64
	bl	WorldSelect_Init
.LVL27:
	.loc 1 84 2 view .LVU65
	mov	r0, r5
	add	r1, sp, #268
	bl	World_Init
.LVL28:
	.loc 1 87 2 view .LVU66
	add	r1, sp, #612
	add	r0, sp, #144
	bl	SaveManager_Init
.LVL29:
	.loc 1 88 75 view .LVU67
	add	r3, sp, #144
	str	r3, [sp, #112]
	ldr	r3, .L57+52
	strb	r4, [sp, #116]
	str	r3, [sp, #108]
	.loc 1 88 2 view .LVU68
	ldr	r3, [sp, #116]
	mov	r1, r7
	str	r3, [sp]
	add	r3, sp, #108
	ldm	r3, {r2, r3}
	add	r0, sp, #264
	bl	ChunkWorker_AddHandler
.LVL30:
	.loc 1 89 75 view .LVU69
	add	r3, sp, #144
	str	r3, [sp, #124]
	ldr	r3, .L57+56
	strb	r4, [sp, #128]
	str	r3, [sp, #120]
	.loc 1 89 2 view .LVU70
	ldr	r3, [sp, #128]
	mov	r1, r4
	str	r3, [sp]
	add	r3, sp, #120
	add	r0, sp, #264
	ldm	r3, {r2, r3}
	.loc 1 92 35 view .LVU71
	vldr.32	s23, .L57+8
	.loc 1 89 2 view .LVU72
	bl	ChunkWorker_AddHandler
.LVL31:
	.loc 1 91 22 view .LVU73
	bl	svcGetSystemTick
.LVL32:
.LBB36:
	.loc 1 95 110 view .LVU74
	vldr.32	s25, .L57+12
	.loc 1 96 58 view .LVU75
	vldr.32	s27, .L57+16
	.loc 1 102 9 view .LVU76
	vldr.32	s24, .L57+20
	.loc 1 102 6 view .LVU77
	vldr.32	s26, .L57+24
.LBE36:
	.loc 1 92 18 view .LVU78
	vmov.f32	s22, s23
	.loc 1 93 24 view .LVU79
	mov	r10, r7
	.loc 1 93 6 view .LVU80
	mov	r6, r7
.LVL33:
	.loc 1 69 2 is_stmt 1 view .LVU81
	.loc 1 70 2 view .LVU82
	.loc 1 71 2 view .LVU83
	.loc 1 72 2 view .LVU84
	.loc 1 74 2 view .LVU85
	.loc 1 75 2 view .LVU86
	.loc 1 76 2 view .LVU87
	.loc 1 78 2 view .LVU88
	.loc 1 80 2 view .LVU89
	.loc 1 82 2 view .LVU90
	.loc 1 84 2 view .LVU91
	.loc 1 86 2 view .LVU92
	.loc 1 87 2 view .LVU93
	.loc 1 88 2 view .LVU94
	.loc 1 89 2 view .LVU95
	.loc 1 91 2 view .LVU96
	.loc 1 91 22 is_stmt 0 view .LVU97
	mov	fp, r0
	mov	r9, r1
.LVL34:
	.loc 1 92 2 is_stmt 1 view .LVU98
	.loc 1 93 2 view .LVU99
	.loc 1 94 2 view .LVU100
	.loc 1 94 8 is_stmt 0 view .LVU101
	b	.L11
.LVL35:
.L52:
	.loc 1 94 8 view .LVU102
	add	r4, sp, #164
.LVL36:
.L19:
.LBB119:
	.loc 1 201 3 is_stmt 1 discriminator 1 view .LVU103
	add	r3, sp, #180
	ldm	r3, {r0, r1}
	stm	sp, {r0, r1}
	ldm	r4, {r0, r1, r2, r3}
	mov	fp, r8
	mov	r9, r7
	bl	Gui_InputData
.LVL37:
.L11:
	.loc 1 201 3 is_stmt 0 discriminator 1 view .LVU104
.LBE119:
	.loc 1 94 9 is_stmt 1 view .LVU105
	bl	aptMainLoop
.LVL38:
	cmp	r0, #0
	beq	.L53
.LBB120:
	.loc 1 95 3 view .LVU106
	.loc 1 95 86 is_stmt 0 view .LVU107
	bl	C3D_GetProcessingTime
.LVL39:
	.loc 1 95 110 view .LVU108
	vmul.f32	s16, s0, s25
	.loc 1 96 9 view .LVU109
	bl	C3D_GetDrawingTime
.LVL40:
	.loc 1 96 30 view .LVU110
	vmul.f32	s20, s0, s25
	.loc 1 96 37 view .LVU111
	bl	C3D_GetCmdBufUsage
.LVL41:
	.loc 1 96 58 view .LVU112
	vmul.f32	s18, s0, s27
	.loc 1 95 3 view .LVU113
	bl	linearSpaceFree
.LVL42:
	vcvt.f64.f32	d8, s16
	mov	r3, r0
	vcvt.f64.f32	d10, s20
	vcvt.f64.f32	d9, s18
	mov	r1, r10
	ldr	r0, .L57+60
	str	r3, [sp, #16]
	vstr.64	d10, [sp]
	vmov	r2, r3, d8
	vstr.64	d9, [sp, #8]
	bl	DebugUI_Text
.LVL43:
	.loc 1 97 3 is_stmt 1 view .LVU114
	vldr.32	s8, [sp, #628]
	vldr.32	s10, [sp, #624]
	vldr.32	s12, [sp, #620]
	vldr.32	s14, [sp, #616]
	vldr.32	s7, [sp, #612]
	vcvt.f64.f32	d4, s8
	vcvt.f64.f32	d5, s10
	vcvt.f64.f32	d3, s7
	vcvt.f64.f32	d6, s12
	vcvt.f64.f32	d7, s14
	vmov	r2, r3, d3
	vstr.64	d4, [sp, #24]
	vstr.64	d5, [sp, #16]
	vstr.64	d6, [sp, #8]
	vstr.64	d7, [sp]
	ldr	r0, .L57+64
	bl	DebugUI_Text
.LVL44:
	.loc 1 99 3 view .LVU115
	bl	Renderer_Render
.LVL45:
	.loc 1 101 3 view .LVU116
	.loc 1 101 26 is_stmt 0 view .LVU117
	bl	svcGetSystemTick
.LVL46:
	mov	r7, r1
	mov	r8, r0
.LVL47:
	.loc 1 102 3 is_stmt 1 view .LVU118
	.loc 1 102 9 is_stmt 0 view .LVU119
	bl	__aeabi_ul2f
.LVL48:
	.loc 1 102 9 view .LVU120
	vmov	s15, r0
	.loc 1 102 52 view .LVU121
	mov	r1, r9
	mov	r0, fp
	.loc 1 102 9 view .LVU122
	vdiv.f32	s16, s15, s24
	.loc 1 102 52 view .LVU123
	bl	__aeabi_ul2f
.LVL49:
	vmov	s12, r0
	vdiv.f32	s15, s12, s24
	.loc 1 102 50 view .LVU124
	vsub.f32	s15, s16, s15
	.loc 1 102 6 view .LVU125
	vdiv.f32	s16, s15, s26
.LVL50:
	.loc 1 103 3 is_stmt 1 view .LVU126
	.loc 1 104 3 view .LVU127
	.loc 1 108 6 is_stmt 0 view .LVU128
	vldr.32	s13, .L57+28
	.loc 1 107 12 view .LVU129
	vadd.f32	s23, s23, s16
.LVL51:
	.loc 1 111 13 view .LVU130
	vcmpe.f32	s23, s13
	vldr.32	s14, .L57+8
	vmrs	APSR_nzcv, FPSCR
	.loc 1 106 15 view .LVU131
	add	r6, r6, #1
.LVL52:
	.loc 1 111 13 view .LVU132
	movge	r10, r6
.LVL53:
	.loc 1 111 13 view .LVU133
	vmovge.f32	s23, s14
	movge	r6, #0
.LVL54:
	.loc 1 114 3 view .LVU134
	bl	hidScanInput
.LVL55:
	.loc 1 115 18 view .LVU135
	bl	hidKeysHeld
.LVL56:
	mov	r9, r0
	.loc 1 115 44 view .LVU136
	bl	hidKeysDown
.LVL57:
	.loc 1 116 6 view .LVU137
	tst	r0, #8
	.loc 1 104 13 view .LVU138
	vadd.f32	s22, s22, s16
.LVL58:
	.loc 1 106 3 is_stmt 1 view .LVU139
	.loc 1 107 3 view .LVU140
	.loc 1 108 3 view .LVU141
	.loc 1 114 3 view .LVU142
	.loc 1 115 3 view .LVU143
	.loc 1 115 44 is_stmt 0 view .LVU144
	mov	r4, r0
.LVL59:
	.loc 1 116 3 is_stmt 1 view .LVU145
	.loc 1 116 6 is_stmt 0 view .LVU146
	beq	.L13
	.loc 1 117 4 is_stmt 1 view .LVU147
	.loc 1 117 18 is_stmt 0 view .LVU148
	ldrb	r3, [sp, #33]	@ zero_extendqisi2
	.loc 1 117 7 view .LVU149
	cmp	r3, #0
	beq	.L29
	.loc 1 119 9 is_stmt 1 view .LVU150
	.loc 1 119 12 is_stmt 0 view .LVU151
	cmp	r3, #1
	beq	.L54
.LVL60:
.L13:
	.loc 1 130 3 is_stmt 1 view .LVU152
	.loc 1 131 3 view .LVU153
	add	r0, sp, #48
	bl	hidCircleRead
.LVL61:
	.loc 1 133 3 view .LVU154
	.loc 1 134 3 view .LVU155
	add	r0, sp, #52
	bl	irrstCstickRead
.LVL62:
	.loc 1 136 3 view .LVU156
	.loc 1 137 3 view .LVU157
	add	r0, sp, #56
	bl	hidTouchRead
.LVL63:
	.loc 1 139 3 view .LVU158
	.loc 1 139 13 is_stmt 0 view .LVU159
	str	r9, [sp, #164]
	str	r4, [sp, #168]
	.loc 1 139 57 view .LVU160
	bl	hidKeysUp
.LVL64:
	.loc 1 139 13 view .LVU161
	ldr	r2, [sp, #48]
	.loc 1 142 17 view .LVU162
	ldrb	r3, [sp, #33]	@ zero_extendqisi2
	.loc 1 139 13 view .LVU163
	str	r2, [sp, #176]
	ldr	r2, [sp, #56]
	.loc 1 142 6 view .LVU164
	cmp	r3, #1
	.loc 1 139 13 view .LVU165
	str	r2, [sp, #180]
	ldr	r2, [sp, #52]
	str	r0, [sp, #172]
	str	r2, [sp, #184]
	.loc 1 142 3 is_stmt 1 view .LVU166
	.loc 1 142 6 is_stmt 0 view .LVU167
	beq	.L55
	.loc 1 153 10 is_stmt 1 view .LVU168
	.loc 1 153 13 is_stmt 0 view .LVU169
	cmp	r3, #0
	bne	.L52
.LBB37:
	.loc 1 154 4 is_stmt 1 view .LVU170
	.loc 1 155 4 view .LVU171
	.loc 1 155 9 is_stmt 0 view .LVU172
	str	r3, [sp, #132]
	str	r3, [sp, #136]
	str	r3, [sp, #140]
	.loc 1 156 4 is_stmt 1 view .LVU173
	.loc 1 157 3 view .LVU174
	.loc 1 157 8 is_stmt 0 view .LVU175
	strb	r3, [sp, #35]
	.loc 1 158 4 is_stmt 1 view .LVU176
	.loc 1 158 8 is_stmt 0 view .LVU177
	add	r1, sp, #132
	add	r0, sp, #356
	add	r3, sp, #35
	add	r2, sp, #34
	bl	WorldSelect_Update
.LVL65:
	.loc 1 158 7 view .LVU178
	cmp	r0, #0
	beq	.L52
	.loc 1 159 5 is_stmt 1 view .LVU179
	add	r1, sp, #132
	mov	r0, r5
	bl	strcpy
.LVL66:
	.loc 1 160 5 view .LVU180
	.loc 1 160 29 is_stmt 0 view .LVU181
	ldrb	r3, [sp, #34]	@ zero_extendqisi2
	.loc 1 162 5 view .LVU182
	add	r1, sp, #356
	.loc 1 160 29 view .LVU183
	strb	r3, [r5, #24]
	.loc 1 162 5 is_stmt 1 view .LVU184
	add	r0, sp, #144
	bl	SaveManager_Load
.LVL67:
	.loc 1 164 5 view .LVU185
	ldrb	r3, [r5, #24]	@ zero_extendqisi2
	mov	r1, #2
	sub	r3, r3, #1
	clz	r3, r3
	add	r2, sp, #36
	lsr	r3, r3, #5
	add	r0, sp, #264
	bl	ChunkWorker_SetHandlerActive
.LVL68:
	.loc 1 166 5 view .LVU186
	ldrb	r3, [r5, #24]	@ zero_extendqisi2
	mov	r1, #2
	clz	r3, r3
	add	r2, sp, #40
	lsr	r3, r3, #5
	add	r0, sp, #264
	bl	ChunkWorker_SetHandlerActive
.LVL69:
	.loc 1 169 5 view .LVU187
	.loc 1 169 32 is_stmt 0 view .LVU188
	vldr.32	s12, [sp, #612]
.LVL70:
.LBB38:
.LBI38:
	.file 3 "/Users/blackout/Desktop/Craftus-Rehabilitated/include/misc/NumberUtils.h"
	.loc 3 26 19 is_stmt 1 view .LVU189
.LBB39:
	.loc 3 26 40 view .LVU190
	.loc 3 26 47 is_stmt 0 view .LVU191
	vcvt.s32.f32	s14, s12
	.loc 3 26 58 view .LVU192
	vcvt.f32.s32	s10, s14
.LBE39:
.LBE38:
	.loc 1 170 32 view .LVU193
	vldr.32	s13, [sp, #620]
.LBB44:
.LBB40:
	.loc 3 26 58 view .LVU194
	vcmpe.f32	s12, s10
.LBE40:
.LBE44:
.LBB45:
.LBB46:
	.loc 3 26 47 view .LVU195
	vcvt.s32.f32	s15, s13
.LBE46:
.LBE45:
.LBB51:
.LBB41:
	.loc 3 26 58 view .LVU196
	vmrs	APSR_nzcv, FPSCR
.LBE41:
.LBE51:
.LBB52:
.LBB47:
	vcvt.f32.s32	s11, s15
.LBE47:
.LBE52:
.LBB53:
.LBB42:
	movmi	r3, #1
	movpl	r3, #0
	.loc 3 26 56 view .LVU197
	vmov	r2, s14	@ int
.LBE42:
.LBE53:
.LBB54:
.LBB48:
	.loc 3 26 58 view .LVU198
	vcmpe.f32	s13, s11
.LBE48:
.LBE54:
.LBB55:
.LBB43:
	.loc 3 26 56 view .LVU199
	sub	r2, r2, r3
.LVL71:
	.loc 3 26 56 view .LVU200
.LBE43:
.LBE55:
.LBB56:
.LBI56:
	.file 4 "/Users/blackout/Desktop/Craftus-Rehabilitated/include/world/World.h"
	.loc 4 52 19 is_stmt 1 view .LVU201
.LBB57:
	.loc 4 52 46 view .LVU202
	.loc 4 52 56 is_stmt 0 view .LVU203
	add	r1, r2, r2, lsr #31
	.loc 4 52 72 view .LVU204
	cmp	r1, #0
	add	r3, r1, #15
	movge	r3, r1
.LBE57:
.LBE56:
.LBB59:
.LBB49:
	.loc 3 26 58 view .LVU205
	vmrs	APSR_nzcv, FPSCR
.LBE49:
.LBE59:
.LBB60:
.LBB58:
	.loc 4 52 72 view .LVU206
	asr	r3, r3, #4
	.loc 4 52 79 view .LVU207
	sub	r3, r3, r2, lsr #31
.LBE58:
.LBE60:
	.loc 1 169 30 view .LVU208
	str	r3, [r5, #32]
	.loc 1 170 5 is_stmt 1 view .LVU209
.LVL72:
.LBB61:
.LBI45:
	.loc 3 26 19 view .LVU210
.LBB50:
	.loc 3 26 40 view .LVU211
	.loc 3 26 56 is_stmt 0 view .LVU212
	vmov	r2, s15	@ int
	.loc 3 26 58 view .LVU213
	movmi	r3, #1
	movpl	r3, #0
	.loc 3 26 56 view .LVU214
	sub	r2, r2, r3
.LVL73:
	.loc 3 26 56 view .LVU215
.LBE50:
.LBE61:
.LBB62:
.LBI62:
	.loc 4 52 19 is_stmt 1 view .LVU216
.LBB63:
	.loc 4 52 46 view .LVU217
	.loc 4 52 56 is_stmt 0 view .LVU218
	add	r1, r2, r2, lsr #31
	.loc 4 52 72 view .LVU219
	cmp	r1, #0
	add	r3, r1, #15
	movge	r3, r1
.LBE63:
.LBE62:
	.loc 1 170 30 view .LVU220
	mvn	r8, #3
.LVL74:
	.loc 1 170 30 view .LVU221
	ldr	r9, .L57+68
.LVL75:
	.loc 1 170 30 view .LVU222
	ldr	fp, .L57+72
.LBB65:
.LBB64:
	.loc 4 52 72 view .LVU223
	asr	r3, r3, #4
	.loc 4 52 79 view .LVU224
	sub	r3, r3, r2, lsr #31
	add	r9, r5, r9
	add	fp, r5, fp
.LBE64:
.LBE65:
	.loc 1 170 30 view .LVU225
	str	r3, [r5, #36]
	.loc 1 171 5 is_stmt 1 view .LVU226
.LBB66:
	.loc 1 171 10 view .LVU227
.LVL76:
	.loc 1 171 23 view .LVU228
.L21:
.LBB67:
	.loc 1 172 24 view .LVU229
	.loc 1 174 36 is_stmt 0 view .LVU230
	mov	r7, r9
	mvn	r4, #3
.LVL77:
.L22:
	.loc 1 173 7 is_stmt 1 discriminator 3 view .LVU231
	.loc 1 174 11 is_stmt 0 discriminator 3 view .LVU232
	ldr	r2, [r5, #36]
	ldr	r1, [r5, #32]
	add	r2, r4, r2
	mov	r0, r5
	add	r1, r8, r1
	bl	World_LoadChunk
.LVL78:
	.loc 1 172 24 discriminator 3 view .LVU233
	add	r4, r4, #1
.LVL79:
	.loc 1 172 24 discriminator 3 view .LVU234
	cmp	r4, #5
	.loc 1 173 31 discriminator 3 view .LVU235
	str	r0, [r7, #4]!
	.loc 1 172 32 is_stmt 1 discriminator 3 view .LVU236
.LVL80:
	.loc 1 172 24 discriminator 3 view .LVU237
	bne	.L22
.LBE67:
	.loc 1 171 31 discriminator 2 view .LVU238
.LVL81:
	.loc 1 171 23 discriminator 2 view .LVU239
	add	r9, r9, #36
	cmp	fp, r9
	add	r8, r8, #1
.LVL82:
	.loc 1 171 23 is_stmt 0 discriminator 2 view .LVU240
	bne	.L21
.LBE66:
.LBB68:
	.loc 1 181 7 view .LVU241
	adr	r9, .L57
	ldrd	r8, [r9]
.LVL83:
	.loc 1 181 7 view .LVU242
.LBE68:
.LBB69:
	mov	r4, #3
	b	.L26
.L24:
.LBE69:
.LBB70:
	mov	r0, r8
	mov	r1, r9
	bl	svcSleepThread
.LVL84:
.L26:
	.loc 1 181 7 is_stmt 1 view .LVU243
	.loc 1 180 33 view .LVU244
	.loc 1 180 24 is_stmt 0 view .LVU245
	ldrb	r3, [sp, #352]	@ zero_extendqisi2
	.loc 1 180 33 view .LVU246
	cmp	r3, #0
	bne	.L24
	.loc 1 180 33 discriminator 1 view .LVU247
	ldr	r3, [sp, #272]
	cmp	r3, #0
	bgt	.L24
	.loc 1 183 6 is_stmt 1 discriminator 2 view .LVU248
	mov	r0, r5
	bl	World_Tick
.LVL85:
	.loc 1 179 29 discriminator 2 view .LVU249
	.loc 1 179 23 discriminator 2 view .LVU250
	subs	r4, r4, #1
	bne	.L26
.LBE70:
	.loc 1 186 5 view .LVU251
	.loc 1 186 8 is_stmt 0 view .LVU252
	ldrb	r3, [sp, #35]	@ zero_extendqisi2
	cmp	r3, #0
	movne	r9, #2
.LBB71:
.LBB72:
	.loc 1 188 15 view .LVU253
	mvnne	r8, #0
.LBE72:
.LBE71:
	.loc 1 186 8 view .LVU254
	bne	.L28
.L27:
	.loc 1 197 5 is_stmt 1 view .LVU255
	.loc 1 197 15 is_stmt 0 view .LVU256
	mov	r3, #1
	strb	r3, [sp, #33]
	.loc 1 198 5 is_stmt 1 view .LVU257
	.loc 1 198 16 is_stmt 0 view .LVU258
	bl	svcGetSystemTick
.LVL86:
	add	r4, sp, #164
.LVL87:
	.loc 1 198 16 view .LVU259
	mov	r8, r0
	mov	r7, r1
.LVL88:
	.loc 1 198 16 view .LVU260
	b	.L19
.L58:
	.align	3
.L57:
	.word	50000000
	.word	0
	.word	0
	.word	1086324736
	.word	1120403456
	.word	1216539131
	.word	1148846080
	.word	1065353216
	.word	.LANCHOR0
	.word	SuperFlatGen_Generate
	.word	SmeaGen_Generate
	.word	TestGen_Generate
	.word	11919984
	.word	SaveManager_LoadChunk
	.word	SaveManager_SaveChunk
	.word	.LC2
	.word	.LC3
	.word	11919636
	.word	11919960
	.word	.LC1
	.word	1028443341
	.word	1045220557
.LVL89:
.L55:
	.loc 1 198 16 view .LVU261
.LBE37:
	.loc 1 143 21 is_stmt 1 view .LVU262
	vldr.32	s17, .L57+80
	vcmpe.f32	s22, s17
	vmrs	APSR_nzcv, FPSCR
	blt	.L16
.L18:
	.loc 1 144 5 view .LVU263
	mov	r0, r5
	bl	World_Tick
.LVL90:
	.loc 1 146 5 view .LVU264
	.loc 1 146 15 is_stmt 0 view .LVU265
	vsub.f32	s22, s22, s17
.LVL91:
	.loc 1 143 21 is_stmt 1 view .LVU266
	vcmpe.f32	s22, s17
	vmrs	APSR_nzcv, FPSCR
	bge	.L18
.L16:
	.loc 1 149 4 view .LVU267
	add	r3, sp, #176
	ldm	r3, {r0, r1, r2}
	stm	sp, {r0, r1, r2}
	add	r4, sp, #164
.LVL92:
	.loc 1 149 4 is_stmt 0 view .LVU268
	ldm	r4, {r1, r2, r3}
	add	r0, sp, #188
	vmov.f32	s0, s16
	bl	PlayerController_Update
.LVL93:
	.loc 1 151 4 is_stmt 1 view .LVU269
	vldr.32	s12, [sp, #612]
.LVL94:
.LBB80:
.LBI80:
	.loc 3 26 19 view .LVU270
.LBB81:
	.loc 3 26 40 view .LVU271
	.loc 3 26 47 is_stmt 0 view .LVU272
	vcvt.s32.f32	s14, s12
.LBE81:
.LBE80:
	.loc 1 151 4 view .LVU273
	vldr.32	s13, [sp, #620]
.LBB87:
.LBB82:
	.loc 3 26 58 view .LVU274
	vcvt.f32.s32	s10, s14
.LBE82:
.LBE87:
.LBB88:
.LBB89:
	.loc 3 26 47 view .LVU275
	vcvt.s32.f32	s15, s13
.LBE89:
.LBE88:
.LBB96:
.LBB83:
	.loc 3 26 58 view .LVU276
	vcmpe.f32	s12, s10
.LBE83:
.LBE96:
.LBB97:
.LBB90:
	vcvt.f32.s32	s11, s15
.LBE90:
.LBE97:
.LBB98:
.LBB84:
	vmrs	APSR_nzcv, FPSCR
.LBE84:
.LBE98:
.LBB99:
.LBB91:
	vcmpe.f32	s13, s11
.LBE91:
.LBE99:
.LBB100:
.LBB85:
	movmi	r3, #1
	movpl	r3, #0
	.loc 3 26 56 view .LVU277
	vmov	r2, s14	@ int
.LBE85:
.LBE100:
.LBB101:
.LBB92:
	.loc 3 26 58 view .LVU278
	vmrs	APSR_nzcv, FPSCR
.LBE92:
.LBE101:
.LBB102:
.LBB86:
	.loc 3 26 56 view .LVU279
	sub	r2, r2, r3
.LVL95:
	.loc 3 26 56 view .LVU280
.LBE86:
.LBE102:
.LBB103:
.LBI103:
	.loc 4 52 19 is_stmt 1 view .LVU281
.LBB104:
	.loc 4 52 46 view .LVU282
	.loc 4 52 46 is_stmt 0 view .LVU283
.LBE104:
.LBE103:
.LBB108:
.LBI88:
	.loc 3 26 19 is_stmt 1 view .LVU284
.LBB93:
	.loc 3 26 40 view .LVU285
.LBE93:
.LBE108:
.LBB109:
.LBB105:
	.loc 4 52 56 is_stmt 0 view .LVU286
	add	r3, r2, r2, lsr #31
.LBE105:
.LBE109:
.LBB110:
.LBB94:
	.loc 3 26 58 view .LVU287
	movmi	ip, #1
	movpl	ip, #0
.LBE94:
.LBE110:
.LBB111:
.LBB106:
	.loc 4 52 72 view .LVU288
	cmp	r3, #0
	add	r1, r3, #15
	movge	r1, r3
.LBE106:
.LBE111:
.LBB112:
.LBB95:
	.loc 3 26 56 view .LVU289
	vmov	r3, s15	@ int
	sub	r3, r3, ip
.LVL96:
	.loc 3 26 56 view .LVU290
.LBE95:
.LBE112:
.LBB113:
.LBI113:
	.loc 4 52 19 is_stmt 1 view .LVU291
.LBB114:
	.loc 4 52 46 view .LVU292
	.loc 4 52 56 is_stmt 0 view .LVU293
	add	ip, r3, r3, lsr #31
	.loc 4 52 72 view .LVU294
	cmp	ip, #0
.LBE114:
.LBE113:
.LBB116:
.LBB107:
	asr	r1, r1, #4
.LBE107:
.LBE116:
	.loc 1 151 4 view .LVU295
	sub	r1, r1, r2, lsr #31
.LBB117:
.LBB115:
	.loc 4 52 72 view .LVU296
	add	r2, ip, #15
	movge	r2, ip
	asr	r2, r2, #4
.LBE115:
.LBE117:
	.loc 1 151 4 view .LVU297
	mov	r0, r5
	sub	r2, r2, r3, lsr #31
	bl	World_UpdateChunkCache
.LVL97:
	b	.L19
.LVL98:
.L54:
	.loc 1 120 5 is_stmt 1 view .LVU298
	mov	r2, r5
	add	r1, sp, #144
	add	r0, sp, #264
.LVL99:
	.loc 1 120 5 is_stmt 0 view .LVU299
	bl	releaseWorld
.LVL100:
	.loc 1 122 5 is_stmt 1 view .LVU300
	.loc 1 122 15 is_stmt 0 view .LVU301
	mov	r3, #0
	strb	r3, [sp, #33]
	.loc 1 124 5 is_stmt 1 view .LVU302
	bl	WorldSelect_ScanWorlds
.LVL101:
	.loc 1 126 5 view .LVU303
	.loc 1 126 16 is_stmt 0 view .LVU304
	bl	svcGetSystemTick
.LVL102:
	mov	r8, r0
.LVL103:
	.loc 1 126 16 view .LVU305
	mov	r7, r1
.LVL104:
	.loc 1 126 16 view .LVU306
	b	.L13
.LVL105:
.L53:
	.loc 1 126 16 view .LVU307
.LBE120:
	.loc 1 204 2 is_stmt 1 view .LVU308
	.loc 1 204 5 is_stmt 0 view .LVU309
	ldrb	r3, [sp, #33]	@ zero_extendqisi2
	cmp	r3, #1
	beq	.L56
.LVL106:
.L29:
	.loc 1 207 2 is_stmt 1 view .LVU310
	add	r0, sp, #144
	bl	SaveManager_Deinit
.LVL107:
	.loc 1 209 2 view .LVU311
	bl	SuperChunk_DeinitPools
.LVL108:
	.loc 1 211 2 view .LVU312
	mov	r0, r5
	bl	free
.LVL109:
	.loc 1 213 2 view .LVU313
	bl	sino_exit
.LVL110:
	.loc 1 215 2 view .LVU314
	bl	WorldSelect_Deinit
.LVL111:
	.loc 1 217 2 view .LVU315
	bl	DebugUI_Deinit
.LVL112:
	.loc 1 219 2 view .LVU316
	add	r0, sp, #264
	bl	ChunkWorker_Deinit
.LVL113:
	.loc 1 221 2 view .LVU317
	bl	Renderer_Deinit
.LVL114:
	.loc 1 223 2 view .LVU318
.LBB121:
.LBI121:
	.loc 2 90 22 view .LVU319
.LBB122:
	.loc 2 92 2 view .LVU320
	.loc 2 92 9 is_stmt 0 view .LVU321
	ldr	r0, .L57+76
	bl	romfsUnmount
.LVL115:
.LBE122:
.LBE121:
	.loc 1 225 2 is_stmt 1 view .LVU322
	bl	gfxExit
.LVL116:
	.loc 1 226 2 view .LVU323
	.loc 1 227 1 is_stmt 0 view .LVU324
	mov	r0, #0
	add	sp, sp, #876
	.cfi_remember_state
	.cfi_def_cfa_offset 84
	@ sp needed
	vldm	sp!, {d8-d13}
	.cfi_restore 90
	.cfi_restore 91
	.cfi_restore 88
	.cfi_restore 89
	.cfi_restore 86
	.cfi_restore 87
	.cfi_restore 84
	.cfi_restore 85
	.cfi_restore 82
	.cfi_restore 83
	.cfi_restore 80
	.cfi_restore 81
	.cfi_def_cfa_offset 36
.LVL117:
	.loc 1 227 1 view .LVU325
	pop	{r4, r5, r6, r7, r8, r9, r10, fp, pc}
.LVL118:
.L56:
	.cfi_restore_state
	.loc 1 204 38 is_stmt 1 discriminator 1 view .LVU326
	mov	r2, r5
	add	r1, sp, #144
	add	r0, sp, #264
	bl	releaseWorld
.LVL119:
	b	.L29
.LVL120:
.L33:
.LBB123:
.LBB118:
.LBB79:
.LBB78:
	.loc 1 204 38 is_stmt 0 discriminator 1 view .LVU327
	mov	r9, #1
.LVL121:
.L28:
.LBB73:
	.loc 1 189 26 is_stmt 1 view .LVU328
.LBB74:
	.loc 1 190 8 view .LVU329
	.loc 1 190 21 is_stmt 0 view .LVU330
	mov	r1, r8
	mvn	r2, #0
	mov	r0, r5
	bl	World_GetHeight
.LVL122:
	mov	r2, #0
	mov	r7, r0
	mov	r1, r8
	mov	r0, r5
.LBE74:
.LBE73:
	.loc 1 188 31 view .LVU331
	mov	r8, r2
.LVL123:
.LBB77:
.LBB75:
	.loc 1 191 8 is_stmt 1 view .LVU332
	.loc 1 191 8 is_stmt 0 view .LVU333
.LBE75:
	.loc 1 189 32 is_stmt 1 view .LVU334
	.loc 1 189 26 view .LVU335
.LBB76:
	.loc 1 190 8 view .LVU336
	.loc 1 190 21 is_stmt 0 view .LVU337
	bl	World_GetHeight
.LVL124:
	.loc 1 191 8 is_stmt 1 view .LVU338
	cmp	r7, r0
	movlt	r7, r0
.LVL125:
	.loc 1 191 8 is_stmt 0 view .LVU339
	cmp	r4, r7
	movlt	r4, r7
.LVL126:
	.loc 1 191 8 view .LVU340
.LBE76:
	.loc 1 189 32 is_stmt 1 view .LVU341
	.loc 1 189 26 view .LVU342
.LBE77:
	.loc 1 188 31 view .LVU343
	.loc 1 188 25 view .LVU344
	.loc 1 188 25 is_stmt 0 view .LVU345
	cmp	r9, #1
	bne	.L33
.LBE78:
	.loc 1 194 6 is_stmt 1 view .LVU346
	.loc 1 194 26 is_stmt 0 view .LVU347
	vmov	s15, r4	@ int
	.loc 1 194 46 view .LVU348
	vldr.32	s14, .L57+84
	.loc 1 194 26 view .LVU349
	vcvt.f32.s32	s15, s15
	.loc 1 194 46 view .LVU350
	vadd.f32	s15, s15, s14
	.loc 1 194 24 view .LVU351
	vstr.32	s15, [sp, #616]
	b	.L27
.LBE79:
.LBE118:
.LBE123:
	.cfi_endproc
.LFE227:
	.size	main, .-main
	.global	showDebugInfo
	.section	.rodata
	.align	2
	.set	.LANCHOR0,. + 0
.LC0:
	.word	PolyGen_GeneratePolygons
	.word	0
	.byte	1
	.space	3
	.bss
	.type	showDebugInfo, %object
	.size	showDebugInfo, 1
showDebugInfo:
	.space	1
	.text
.Letext0:
	.file 5 "/opt/devkitpro/devkitARM/arm-none-eabi/include/machine/_default_types.h"
	.file 6 "/opt/devkitpro/devkitARM/lib/gcc/arm-none-eabi/12.2.0/include/stddef.h"
	.file 7 "/opt/devkitpro/devkitARM/arm-none-eabi/include/machine/_types.h"
	.file 8 "/opt/devkitpro/devkitARM/arm-none-eabi/include/sys/_types.h"
	.file 9 "/opt/devkitpro/devkitARM/arm-none-eabi/include/sys/reent.h"
	.file 10 "/opt/devkitpro/devkitARM/arm-none-eabi/include/sys/_stdint.h"
	.file 11 "/opt/devkitpro/devkitARM/arm-none-eabi/include/sys/lock.h"
	.file 12 "/opt/devkitpro/devkitARM/arm-none-eabi/include/stdio.h"
	.file 13 "/opt/devkitPro//libctru/include/3ds/types.h"
	.file 14 "/opt/devkitPro//libctru/include/3ds/synchronization.h"
	.file 15 "/opt/devkitPro//libctru/include/3ds/thread.h"
	.file 16 "/opt/devkitPro//libctru/include/3ds/services/csnd.h"
	.file 17 "/opt/devkitPro//libctru/include/3ds/services/hid.h"
	.file 18 "/opt/devkitPro//libctru/include/3ds/services/ndm.h"
	.file 19 "/opt/devkitPro//libctru/include/3ds/gpu/enums.h"
	.file 20 "/opt/devkitPro//libctru/include/3ds/ndsp/channel.h"
	.file 21 "/opt/devkitPro//libctru/include/3ds/applets/error.h"
	.file 22 "/Users/blackout/Desktop/Craftus-Rehabilitated/include/GameStates.h"
	.file 23 "/Users/blackout/Desktop/Craftus-Rehabilitated/include/world/Direction.h"
	.file 24 "/Users/blackout/Desktop/Craftus-Rehabilitated/include/blocks/Block.h"
	.file 25 "/Users/blackout/Desktop/Craftus-Rehabilitated/include/misc/Xorshift.h"
	.file 26 "/Users/blackout/Desktop/Craftus-Rehabilitated/include/rendering/VBOCache.h"
	.file 27 "/Users/blackout/Desktop/Craftus-Rehabilitated/include/world/Chunk.h"
	.file 28 "/Users/blackout/Desktop/Craftus-Rehabilitated/include/world/WorkQueue.h"
	.file 29 "/Users/blackout/Desktop/Craftus-Rehabilitated/include/inventory/ItemStack.h"
	.file 30 "/Users/blackout/Desktop/Craftus-Rehabilitated/include/misc/VecMath.h"
	.file 31 "/Users/blackout/Desktop/Craftus-Rehabilitated/include/misc/Raycast.h"
	.file 32 "/Users/blackout/Desktop/Craftus-Rehabilitated/include/entity/Player.h"
	.file 33 "/Users/blackout/Desktop/Craftus-Rehabilitated/include/misc/InputData.h"
	.file 34 "/Users/blackout/Desktop/Craftus-Rehabilitated/include/entity/PlayerController.h"
	.file 35 "/Users/blackout/Desktop/Craftus-Rehabilitated/include/world/ChunkWorker.h"
	.file 36 "/Users/blackout/Desktop/Craftus-Rehabilitated/include/world/savegame/SuperChunk.h"
	.file 37 "/Users/blackout/Desktop/Craftus-Rehabilitated/include/world/savegame/SaveManager.h"
	.file 38 "/Users/blackout/Desktop/Craftus-Rehabilitated/include/world/worldgen/SmeaGen.h"
	.file 39 "/Users/blackout/Desktop/Craftus-Rehabilitated/include/world/worldgen/SuperFlatGen.h"
	.file 40 "/Users/blackout/Desktop/Craftus-Rehabilitated/include/world/worldgen/TestGen.h"
	.file 41 "/Users/blackout/Desktop/Craftus-Rehabilitated/include/rendering/PolyGen.h"
	.file 42 "/Users/blackout/Desktop/Craftus-Rehabilitated/include/rendering/Renderer.h"
	.file 43 "/Users/blackout/Desktop/Craftus-Rehabilitated/include/gui/DebugUI.h"
	.file 44 "/Users/blackout/Desktop/Craftus-Rehabilitated/include/gui/WorldSelect.h"
	.file 45 "/opt/devkitPro//libctru/include/3ds/gfx.h"
	.file 46 "/Users/blackout/Desktop/Craftus-Rehabilitated/dependencies/sino/sino.h"
	.file 47 "/opt/devkitpro/devkitARM/arm-none-eabi/include/stdlib.h"
	.file 48 "/Users/blackout/Desktop/Craftus-Rehabilitated/include/gui/Gui.h"
	.file 49 "/opt/devkitPro//libctru/include/3ds/svc.h"
	.file 50 "/opt/devkitpro/devkitARM/arm-none-eabi/include/string.h"
	.file 51 "/opt/devkitPro//libctru/include/3ds/services/apt.h"
	.file 52 "/opt/devkitPro//libctru/include/3ds/services/irrst.h"
	.file 53 "/opt/devkitPro//libctru/include/3ds/allocator/linear.h"
	.file 54 "/opt/devkitPro//libctru/include/c3d/base.h"
	.file 55 "/opt/devkitPro//libctru/include/c3d/renderqueue.h"