	.arch armv6k
	.fpu vfp
	.eabi_attribute 28, 1
	.eabi_attribute 20, 1
	.eabi_attribute 21, 1
	.eabi_attribute 23, 3
	.eabi_attribute 24, 1
	.eabi_attribute 25, 1
	.eabi_attribute 26, 1
	.eabi_attribute 30, 2
	.eabi_attribute 34, 1
	.eabi_attribute 18, 4
	.file	"miniz.c"
	.text
.Ltext0:
	.cfi_sections	.debug_frame
	.file 1 "/Users/blackout/Desktop/Craftus-Rehabilitated/dependencies/miniz/miniz.c"
	.section	.text.mz_zip_writer_create_zip64_extra_data,"ax",%progbits
	.align	2
	.syntax unified
	.arm
	.type	mz_zip_writer_create_zip64_extra_data, %function
mz_zip_writer_create_zip64_extra_data:
.LVL0:
.LFB135:
	.loc 1 5845 1 view -0
	.cfi_startproc
	@ args = 0, pretend = 0, frame = 0
	@ frame_needed = 0, uses_anonymous_args = 0
	.loc 1 5846 5 view .LVU1
	.loc 1 5845 1 is_stmt 0 view .LVU2
	str	lr, [sp, #-4]!
	.cfi_def_cfa_offset 4
	.cfi_offset 14, -4
.LBB1368:
.LBB1369:
	.loc 1 5445 10 view .LVU3
	mov	lr, #1
.LBE1369:
.LBE1368:
	.loc 1 5845 1 view .LVU4
	mov	ip, r0
.LVL1:
	.loc 1 5847 5 is_stmt 1 view .LVU5
	.loc 1 5849 5 view .LVU6
.LBB1372:
.LBI1368:
	.loc 1 5443 59 view .LVU7
.LBB1370:
	.loc 1 5445 5 view .LVU8
	.loc 1 5446 5 view .LVU9
	.loc 1 5446 5 is_stmt 0 view .LVU10
.LBE1370:
.LBE1372:
	.loc 1 5850 5 is_stmt 1 view .LVU11
	.loc 1 5853 8 is_stmt 0 view .LVU12
	cmp	r1, #0
.LBB1373:
.LBB1371:
	.loc 1 5445 10 view .LVU13
	str	lr, [r0]	@ unaligned
.LVL2:
	.loc 1 5445 10 view .LVU14
.LBE1371:
.LBE1373:
	.loc 1 5851 5 is_stmt 1 view .LVU15
	.loc 1 5853 5 view .LVU16
	.loc 1 5855 9 view .LVU17
.LBB1374:
.LBI1374:
	.loc 1 5455 59 view .LVU18
.LBB1375:
	.loc 1 5457 5 view .LVU19
.LBB1376:
.LBI1376:
	.loc 1 5448 59 view .LVU20
.LBB1377:
	.loc 1 5450 5 view .LVU21
	.loc 1 5451 5 view .LVU22
	.loc 1 5452 5 view .LVU23
	.loc 1 5453 5 view .LVU24
	.loc 1 5453 5 is_stmt 0 view .LVU25
.LBE1377:
.LBE1376:
	.loc 1 5458 5 is_stmt 1 view .LVU26
	.loc 1 5458 56 is_stmt 0 view .LVU27
	ldrne	r0, [r1, #4]
.LVL3:
.LBB1381:
.LBB1378:
	.loc 1 5450 10 view .LVU28
	ldrne	r1, [r1]
.LVL4:
	.loc 1 5450 10 view .LVU29
.LBE1378:
.LBE1381:
.LBE1375:
.LBE1374:
	.loc 1 5851 10 view .LVU30
	addeq	r0, r0, #4
.LVL5:
.LBB1388:
.LBB1386:
.LBB1382:
.LBI1382:
	.loc 1 5448 59 is_stmt 1 view .LVU31
.LBB1383:
	.loc 1 5450 5 view .LVU32
	.loc 1 5451 5 view .LVU33
	.loc 1 5452 5 view .LVU34
	.loc 1 5453 5 view .LVU35
.LBE1383:
.LBE1382:
.LBB1384:
.LBB1379:
	.loc 1 5450 10 is_stmt 0 view .LVU36
	strne	r1, [ip, #4]	@ unaligned
.LVL6:
	.loc 1 5450 10 view .LVU37
.LBE1379:
.LBE1384:
.LBE1386:
.LBE1388:
	.loc 1 5857 20 view .LVU38
	movne	r1, #8
.LBB1389:
.LBB1387:
.LBB1385:
.LBB1380:
	.loc 1 5450 10 view .LVU39
	strne	r0, [ip, #8]	@ unaligned
.LVL7:
	.loc 1 5450 10 view .LVU40
.LBE1380:
.LBE1385:
.LBE1387:
.LBE1389:
	.loc 1 5856 9 is_stmt 1 view .LVU41
	.loc 1 5856 14 is_stmt 0 view .LVU42
	addne	r0, ip, #12
.LVL8:
	.loc 1 5857 9 is_stmt 1 view .LVU43
	.loc 1 5860 5 view .LVU44
	.loc 1 5862 9 view .LVU45
.LBB1390:
.LBI1390:
	.loc 1 5455 59 view .LVU46
.LBB1391:
	.loc 1 5457 5 view .LVU47
.LBB1392:
.LBI1392:
	.loc 1 5448 59 view .LVU48
.LBB1393:
	.loc 1 5450 5 view .LVU49
	.loc 1 5451 5 view .LVU50
	.loc 1 5452 5 view .LVU51
	.loc 1 5453 5 view .LVU52
	.loc 1 5453 5 is_stmt 0 view .LVU53
.LBE1393:
.LBE1392:
	.loc 1 5458 5 is_stmt 1 view .LVU54
.LBE1391:
.LBE1390:
	.loc 1 5860 8 is_stmt 0 view .LVU55
	cmp	r2, #0
.LBB1403:
.LBB1400:
.LBB1397:
.LBB1394:
	.loc 1 5450 10 view .LVU56
	ldmne	r2, {r2, lr}
.LVL9:
	.loc 1 5450 10 view .LVU57
.LBE1394:
.LBE1397:
.LBE1400:
.LBE1403:
	.loc 1 5864 20 view .LVU58
	addne	r1, r1, #8
.LVL10:
.LBB1404:
.LBB1401:
.LBB1398:
.LBB1395:
	.loc 1 5450 10 view .LVU59
	strne	lr, [r0, #4]	@ unaligned
.LVL11:
	.loc 1 5450 10 view .LVU60
.LBE1395:
.LBE1398:
.LBE1401:
.LBE1404:
	.loc 1 5863 9 is_stmt 1 view .LVU61
.LBB1405:
.LBB1402:
.LBB1399:
.LBB1396:
	.loc 1 5450 10 is_stmt 0 view .LVU62
	strne	r2, [r0]	@ unaligned
.LBE1396:
.LBE1399:
.LBE1402:
.LBE1405:
	.loc 1 5863 14 view .LVU63
	addne	r0, r0, #8
.LVL12:
	.loc 1 5864 9 is_stmt 1 view .LVU64
	.loc 1 5867 5 view .LVU65
	.loc 1 5867 8 is_stmt 0 view .LVU66
	cmp	r3, #0
	beq	.L5
	.loc 1 5869 9 is_stmt 1 view .LVU67
.LVL13:
.LBB1406:
.LBI1406:
	.loc 1 5455 59 view .LVU68
.LBB1407:
	.loc 1 5457 5 view .LVU69
.LBB1408:
.LBI1408:
	.loc 1 5448 59 view .LVU70
.LBB1409:
	.loc 1 5450 5 view .LVU71
	.loc 1 5451 5 view .LVU72
	.loc 1 5452 5 view .LVU73
	.loc 1 5453 5 view .LVU74
	.loc 1 5453 5 is_stmt 0 view .LVU75
.LBE1409:
.LBE1408:
	.loc 1 5458 5 is_stmt 1 view .LVU76
	.loc 1 5458 56 is_stmt 0 view .LVU77
	ldr	r2, [r3, #4]
.LVL14:
.LBB1413:
.LBI1413:
	.loc 1 5448 59 is_stmt 1 view .LVU78
.LBB1414:
	.loc 1 5450 5 view .LVU79
	.loc 1 5451 5 view .LVU80
	.loc 1 5452 5 view .LVU81
	.loc 1 5453 5 view .LVU82
.LBE1414:
.LBE1413:
.LBB1415:
.LBB1410:
	.loc 1 5450 10 is_stmt 0 view .LVU83
	ldr	r3, [r3]
.LVL15:
	.loc 1 5450 10 view .LVU84
.LBE1410:
.LBE1415:
.LBE1407:
.LBE1406:
	.loc 1 5871 20 view .LVU85
	add	r1, r1, #8
.LVL16:
.LBB1420:
.LBB1418:
.LBB1416:
.LBB1411:
	.loc 1 5450 10 view .LVU86
	str	r2, [r0, #4]	@ unaligned
.LVL17:
	.loc 1 5450 10 view .LVU87
.LBE1411:
.LBE1416:
.LBE1418:
.LBE1420:
	.loc 1 5870 9 is_stmt 1 view .LVU88
.LBB1421:
.LBB1419:
.LBB1417:
.LBB1412:
	.loc 1 5450 10 is_stmt 0 view .LVU89
	str	r3, [r0]	@ unaligned
.LBE1412:
.LBE1417:
.LBE1419:
.LBE1421:
	.loc 1 5870 14 view .LVU90
	add	r0, r0, #8
.LVL18:
	.loc 1 5871 9 is_stmt 1 view .LVU91
.L5:
	.loc 1 5874 5 view .LVU92
.LBB1422:
.LBI1422:
	.loc 1 5443 59 view .LVU93
.LBB1423:
	.loc 1 5445 5 view .LVU94
	.loc 1 5446 10 is_stmt 0 view .LVU95
	mov	r3, #0
	.loc 1 5445 12 view .LVU96
	strb	r1, [ip, #2]
	.loc 1 5446 5 is_stmt 1 view .LVU97
.LBE1423:
.LBE1422:
	.loc 1 5877 1 is_stmt 0 view .LVU98
	sub	r0, r0, ip
.LVL19:
.LBB1425:
.LBB1424:
	.loc 1 5446 10 view .LVU99
	strb	r3, [ip, #3]
.LVL20:
	.loc 1 5446 10 view .LVU100
.LBE1424:
.LBE1425:
	.loc 1 5876 5 is_stmt 1 view .LVU101
	.loc 1 5877 1 is_stmt 0 view .LVU102
	ldr	pc, [sp], #4
	.cfi_endproc
.LFE135:
	.size	mz_zip_writer_create_zip64_extra_data, .-mz_zip_writer_create_zip64_extra_data
	.section	.text.miniz_def_free_func,"ax",%progbits
	.align	2
	.global	miniz_def_free_func
	.syntax unified
	.arm
	.type	miniz_def_free_func, %function
miniz_def_free_func:
.LVL21:
.LFB7:
	.loc 1 166 1 is_stmt 1 view -0
	.cfi_startproc
	@ args = 0, pretend = 0, frame = 0
	@ frame_needed = 0, uses_anonymous_args = 0
	@ link register save eliminated.
	.loc 1 167 5 view .LVU104
	.loc 1 168 5 view .LVU105
	mov	r0, r1
.LVL22:
	.loc 1 168 5 is_stmt 0 view .LVU106
	b	free
.LVL23:
	.loc 1 168 5 view .LVU107
	.cfi_endproc
.LFE7:
	.size	miniz_def_free_func, .-miniz_def_free_func
	.section	.text.miniz_def_alloc_func,"ax",%progbits
	.align	2
	.global	miniz_def_alloc_func
	.syntax unified
	.arm
	.type	miniz_def_alloc_func, %function
miniz_def_alloc_func:
.LVL24:
.LFB6:
	.loc 1 161 1 is_stmt 1 view -0
	.cfi_startproc
	@ args = 0, pretend = 0, frame = 0
	@ frame_needed = 0, uses_anonymous_args = 0
	@ link register save eliminated.
	.loc 1 162 5 view .LVU109
	.loc 1 163 5 view .LVU110
	.loc 1 163 12 is_stmt 0 view .LVU111
	mul	r0, r2, r1
.LVL25:
	.loc 1 163 12 view .LVU112
	b	malloc
.LVL26:
	.loc 1 163 12 view .LVU113
	.cfi_endproc
.LFE6:
	.size	miniz_def_alloc_func, .-miniz_def_alloc_func
	.section	.text.miniz_def_realloc_func,"ax",%progbits
	.align	2
	.global	miniz_def_realloc_func
	.syntax unified
	.arm
	.type	miniz_def_realloc_func, %function
miniz_def_realloc_func:
.LVL27:
.LFB8:
	.loc 1 171 1 is_stmt 1 view -0
	.cfi_startproc
	@ args = 0, pretend = 0, frame = 0
	@ frame_needed = 0, uses_anonymous_args = 0
	@ link register save eliminated.
	.loc 1 172 5 view .LVU115
	.loc 1 173 5 view .LVU116
	.loc 1 173 12 is_stmt 0 view .LVU117
	mov	r0, r1
.LVL28:
	.loc 1 173 12 view .LVU118
	mul	r1, r3, r2
.LVL29:
	.loc 1 173 12 view .LVU119
	b	realloc
.LVL30:
	.loc 1 173 12 view .LVU120
	.cfi_endproc
.LFE8:
	.size	miniz_def_realloc_func, .-miniz_def_realloc_func
	.section	.text.tdefl_optimize_huffman_table,"ax",%progbits
	.align	2
	.syntax unified
	.arm
	.type	tdefl_optimize_huffman_table, %function
tdefl_optimize_huffman_table:
.LVL31:
.LFB28:
	.loc 1 825 1 is_stmt 1 view -0
	.cfi_startproc
	@ args = 4, pretend = 0, frame = 5544
	@ frame_needed = 0, uses_anonymous_args = 0
	.loc 1 825 1 is_stmt 0 view .LVU122
	push	{r4, r5, r6, r7, r8, r9, r10, fp, lr}
	.cfi_def_cfa_offset 36
	.cfi_offset 4, -36
	.cfi_offset 5, -32
	.cfi_offset 6, -28
	.cfi_offset 7, -24
	.cfi_offset 8, -20
	.cfi_offset 9, -16
	.cfi_offset 10, -12
	.cfi_offset 11, -8
	.cfi_offset 14, -4
	mov	ip, r2
	mov	lr, r1
	sub	sp, sp, #5504
	.cfi_def_cfa_offset 5540
	sub	sp, sp, #44
	.cfi_def_cfa_offset 5584
	.loc 1 825 1 view .LVU123
	add	r2, sp, #5568
.LVL32:
	.loc 1 825 1 view .LVU124
	ldr	r5, [r2, #16]
	.loc 1 828 5 view .LVU125
	add	r6, sp, #36
	.loc 1 825 1 view .LVU126
	add	r2, r2, #16
	mov	r8, r0
	.loc 1 828 5 view .LVU127
	mov	r2, #132
	mov	r1, #0
.LVL33:
	.loc 1 828 5 view .LVU128
	mov	r0, r6
.LVL34:
	.loc 1 825 1 view .LVU129
	mov	r4, lr
	mov	r9, ip
	mov	r7, r3
	.loc 1 826 5 is_stmt 1 view .LVU130
	.loc 1 827 5 view .LVU131
	.loc 1 828 5 view .LVU132
	.loc 1 825 1 is_stmt 0 view .LVU133
	str	lr, [sp, #4]
	str	ip, [sp, #12]
	.loc 1 828 5 view .LVU134
	bl	memset
.LVL35:
	.loc 1 829 5 is_stmt 1 view .LVU135
	.loc 1 829 8 is_stmt 0 view .LVU136
	cmp	r5, #0
	beq	.L18
	add	r3, r4, r4, lsl #3
	lsl	r3, r3, #5
	add	r1, r9, #36608
	add	ip, r3, #36608
	add	lr, r1, #17
	add	lr, lr, r3
	add	ip, ip, #17
	lsl	r3, r4, #3
	add	r2, sp, #1440
	add	ip, r8, ip
	add	lr, r8, lr
	str	r3, [sp, #8]
	add	r2, r2, #8
.L19:
.LVL36:
	.loc 1 832 13 is_stmt 1 discriminator 3 view .LVU137
	.loc 1 832 54 is_stmt 0 discriminator 3 view .LVU138
	ldrb	r3, [ip, #1]!	@ zero_extendqisi2
	.loc 1 832 58 discriminator 3 view .LVU139
	add	r3, r2, r3, lsl #2
	ldr	r0, [r3, #-1412]
	.loc 1 831 23 discriminator 3 view .LVU140
	cmp	lr, ip
	.loc 1 832 58 discriminator 3 view .LVU141
	add	r0, r0, #1
	str	r0, [r3, #-1412]
	.loc 1 831 37 is_stmt 1 discriminator 3 view .LVU142
	.loc 1 831 23 discriminator 3 view .LVU143
	bne	.L19
	add	r2, sp, #3488
	add	r2, r2, #8
	lsl	r3, r7, #2
	str	r2, [sp, #16]
.LVL37:
.L20:
	.loc 1 831 23 is_stmt 0 discriminator 3 view .LVU144
	ldr	r2, [sp, #16]
	add	r3, r2, r3
	add	r0, r2, #4
	.loc 1 861 18 view .LVU145
	mov	r2, #0
	str	r2, [sp, #3500]
.L65:
.LVL38:
	.loc 1 863 9 is_stmt 1 discriminator 3 view .LVU146
	.loc 1 863 32 is_stmt 0 discriminator 3 view .LVU147
	ldr	ip, [r6, #4]!
	add	r2, r2, ip
.LVL39:
	.loc 1 863 26 discriminator 3 view .LVU148
	lsl	r2, r2, #1
.LVL40:
	.loc 1 863 22 discriminator 3 view .LVU149
	str	r2, [r0, #4]!
	.loc 1 862 47 is_stmt 1 discriminator 3 view .LVU150
	.loc 1 862 26 discriminator 3 view .LVU151
	cmp	r0, r3
	bne	.L65
	ldrd	r2, [sp, #4]
.LVL41:
	.loc 1 862 26 is_stmt 0 discriminator 3 view .LVU152
	add	r3, r3, r2
	lsl	r0, r3, #5
.LVL42:
	.loc 1 862 26 discriminator 3 view .LVU153
	add	lr, r0, #36608
	add	r3, r8, r3, lsl #6
	add	r2, r1, #17
	add	r2, r2, r0
	add	lr, lr, #17
	add	ip, r3, #34816
	add	lr, r8, lr
	add	ip, ip, #82
	add	r8, r8, r2
.LVL43:
	.loc 1 862 26 discriminator 3 view .LVU154
	b	.L68
.LVL44:
.L66:
	.loc 1 865 33 is_stmt 1 discriminator 2 view .LVU155
	.loc 1 865 19 discriminator 2 view .LVU156
	cmp	lr, r8
	add	ip, ip, #2
	beq	.L113
.LVL45:
.L68:
.LBB1437:
	.loc 1 867 9 view .LVU157
	.loc 1 868 9 view .LVU158
	.loc 1 868 57 is_stmt 0 view .LVU159
	ldrb	r3, [lr, #1]!	@ zero_extendqisi2
.LVL46:
	.loc 1 868 12 view .LVU160
	cmp	r3, #0
	beq	.L66
	.loc 1 870 9 is_stmt 1 view .LVU161
	.loc 1 867 17 is_stmt 0 view .LVU162
	mov	r1, #0
	.loc 1 870 25 view .LVU163
	add	r0, sp, #5504
	add	r0, r0, #40
	add	r0, r0, r3, lsl #2
	.loc 1 871 16 view .LVU164
	mov	r2, r3
	.loc 1 870 25 view .LVU165
	ldr	r3, [r0, #-2048]
.LVL47:
	.loc 1 870 36 view .LVU166
	add	r4, r3, #1
	str	r4, [r0, #-2048]
.LVL48:
	.loc 1 871 9 is_stmt 1 view .LVU167
	.loc 1 871 31 view .LVU168
.L67:
	.loc 1 872 13 discriminator 3 view .LVU169
	.loc 1 872 48 is_stmt 0 discriminator 3 view .LVU170
	and	r0, r3, #1
	.loc 1 871 31 discriminator 3 view .LVU171
	subs	r2, r2, #1
.LVL49:
	.loc 1 872 22 discriminator 3 view .LVU172
	orr	r1, r0, r1, lsl #1
.LVL50:
	.loc 1 871 39 is_stmt 1 discriminator 3 view .LVU173
	.loc 1 871 46 is_stmt 0 discriminator 3 view .LVU174
	lsr	r3, r3, #1
.LVL51:
	.loc 1 871 31 is_stmt 1 discriminator 3 view .LVU175
	bne	.L67
	.loc 1 873 9 view .LVU176
.LBE1437:
	.loc 1 865 19 is_stmt 0 view .LVU177
	cmp	lr, r8
.LBB1438:
	.loc 1 873 41 view .LVU178
	strh	r1, [ip]	@ movhi
.LVL52:
	.loc 1 873 41 view .LVU179
.LBE1438:
	.loc 1 865 33 is_stmt 1 view .LVU180
	.loc 1 865 19 view .LVU181
	add	ip, ip, #2
	bne	.L68
.LVL53:
.L113:
	.loc 1 875 1 is_stmt 0 view .LVU182
	add	sp, sp, #5504
	add	sp, sp, #44
	.cfi_remember_state
	.cfi_def_cfa_offset 36
	@ sp needed
	pop	{r4, r5, r6, r7, r8, r9, r10, fp, pc}
.LVL54:
.L18:
	.cfi_restore_state
.LBB1439:
	.loc 1 836 9 is_stmt 1 view .LVU183
	.loc 1 837 9 view .LVU184
	.loc 1 838 9 view .LVU185
	ldr	r2, [sp, #4]
	ldr	r1, [sp, #12]
	add	r3, r2, r2, lsl #3
	lsl	r2, r2, #3
	str	r2, [sp, #8]
	.loc 1 839 16 is_stmt 0 view .LVU186
	mov	r2, r5
	lsl	r3, r3, #6
	str	r3, [sp, #20]
	.loc 1 838 26 view .LVU187
	add	r3, r3, #33024
	add	r3, r3, #146
	add	r3, r8, r3
.LVL55:
	.loc 1 839 9 is_stmt 1 view .LVU188
	.loc 1 839 23 view .LVU189
	add	ip, r3, r1, lsl #1
	add	r4, sp, #1184
.LVL56:
	.loc 1 839 23 is_stmt 0 view .LVU190
	sub	r3, r3, #2
.LVL57:
	.loc 1 839 23 view .LVU191
	sub	ip, ip, #2
	add	r4, r4, #8
.LVL58:
.L22:
	.loc 1 840 13 is_stmt 1 view .LVU192
	.loc 1 842 17 view .LVU193
	.loc 1 840 27 is_stmt 0 view .LVU194
	ldrh	r1, [r3, #2]!
	.loc 1 842 44 view .LVU195
	lsl	r0, r5, #2
	.loc 1 840 16 view .LVU196
	cmp	r1, #0
	.loc 1 842 44 view .LVU197
	addne	lr, r4, r5, lsl #2
	.loc 1 843 52 view .LVU198
	strhne	r2, [lr, #2]	@ movhi
	.loc 1 842 44 view .LVU199
	strhne	r1, [r4, r0]	@ movhi
	.loc 1 843 17 is_stmt 1 view .LVU200
.LVL59:
	.loc 1 843 36 is_stmt 0 view .LVU201
	addne	r5, r5, #1
.LVL60:
	.loc 1 839 37 is_stmt 1 view .LVU202
	.loc 1 839 23 is_stmt 0 view .LVU203
	cmp	r3, ip
	.loc 1 839 37 view .LVU204
	add	r2, r2, #1
.LVL61:
	.loc 1 839 23 is_stmt 1 view .LVU205
	bne	.L22
	.loc 1 846 9 view .LVU206
.LVL62:
.LBB1440:
.LBI1440:
	.loc 1 706 24 view .LVU207
.LBB1441:
	.loc 1 708 5 view .LVU208
	.loc 1 709 5 view .LVU209
	.loc 1 710 5 view .LVU210
	add	r3, sp, #3488
	add	r3, r3, #8
	mov	r1, #0
	mov	r2, #2048
.LVL63:
	.loc 1 710 5 is_stmt 0 view .LVU211
	mov	r0, r3
	str	r3, [sp, #16]
	bl	memset
.LVL64:
	.loc 1 711 5 is_stmt 1 view .LVU212
	.loc 1 711 19 view .LVU213
	.loc 1 711 19 is_stmt 0 view .LVU214
	cmp	r5, #0
	movne	r1, r4
	addne	r0, r4, r5, lsl #2
	beq	.L26
.LVL65:
.L25:
.LBB1442:
	.loc 1 713 9 is_stmt 1 view .LVU215
	.loc 1 713 33 is_stmt 0 view .LVU216
	ldrh	r3, [r1], #4
.LVL66:
	.loc 1 714 9 is_stmt 1 view .LVU217
	.loc 1 714 26 is_stmt 0 view .LVU218
	add	ip, sp, #5504
	add	ip, ip, #40
	.loc 1 714 19 view .LVU219
	uxtb	r2, r3
	.loc 1 715 27 view .LVU220
	lsr	r3, r3, #8
.LVL67:
	.loc 1 714 26 view .LVU221
	add	r2, ip, r2, lsl #2
	.loc 1 715 18 view .LVU222
	add	r3, r3, #256
	.loc 1 715 41 view .LVU223
	add	r3, ip, r3, lsl #2
	.loc 1 714 26 view .LVU224
	ldr	ip, [r2, #-2048]
.LBE1442:
	.loc 1 711 19 view .LVU225
	cmp	r0, r1
.LBB1443:
	.loc 1 714 26 view .LVU226
	add	ip, ip, #1
	str	ip, [r2, #-2048]
	.loc 1 715 9 is_stmt 1 view .LVU227
	.loc 1 715 41 is_stmt 0 view .LVU228
	ldr	r2, [r3, #-2048]
	add	r2, r2, #1
	str	r2, [r3, #-2048]
.LBE1443:
	.loc 1 711 32 is_stmt 1 view .LVU229
	.loc 1 711 19 view .LVU230
	bne	.L25
	.loc 1 717 31 view .LVU231
	add	r3, sp, #4480
	add	r3, r3, #40
	ldr	r3, [r3]
	cmp	r5, r3
	bne	.L114
.LVL68:
.L26:
	.loc 1 717 31 is_stmt 0 view .LVU232
.LBE1441:
.LBE1440:
	.loc 1 843 36 view .LVU233
	mov	r3, #1
.L24:
.LVL69:
	.loc 1 843 36 view .LVU234
	cmp	r3, #1
	moveq	fp, #8
	movne	fp, #16
.LBB1448:
.LBB1445:
	mov	r9, #0
.LVL70:
	.loc 1 843 36 view .LVU235
	mov	lr, r4
	add	r3, sp, #168
	add	r4, sp, #2336
.LVL71:
	.loc 1 843 36 view .LVU236
	ldr	r10, [sp, #16]
	add	r4, r4, #8
.LVL72:
	.loc 1 843 36 view .LVU237
	add	ip, r3, #1020
.LVL73:
.L29:
.LBB1444:
	.loc 1 721 9 is_stmt 1 view .LVU238
	.loc 1 722 9 view .LVU239
	.loc 1 723 9 view .LVU240
	.loc 1 723 23 view .LVU241
	.loc 1 722 31 is_stmt 0 view .LVU242
	mov	r2, #0
	add	r3, sp, #164
	sub	r1, r10, #4
.LVL74:
.L27:
	.loc 1 725 13 is_stmt 1 view .LVU243
	.loc 1 725 24 is_stmt 0 view .LVU244
	str	r2, [r3, #4]!
	.loc 1 726 13 is_stmt 1 view .LVU245
	.loc 1 726 21 is_stmt 0 view .LVU246
	ldr	r0, [r1, #4]!
	.loc 1 723 23 view .LVU247
	cmp	ip, r3
	.loc 1 726 21 view .LVU248
	add	r2, r2, r0
.LVL75:
	.loc 1 723 31 is_stmt 1 view .LVU249
	.loc 1 723 23 view .LVU250
	bne	.L27
.LVL76:
	.loc 1 728 23 view .LVU251
	cmp	r5, #0
	.loc 1 728 16 is_stmt 0 view .LVU252
	movne	r2, #0
.LVL77:
	.loc 1 728 23 view .LVU253
	beq	.L31
.LVL78:
.L28:
	.loc 1 729 13 is_stmt 1 view .LVU254
	.loc 1 729 44 is_stmt 0 view .LVU255
	lsl	r3, r2, #2
	ldrh	r3, [lr, r3]
	.loc 1 729 30 view .LVU256
	add	r1, sp, #1440
	.loc 1 729 51 view .LVU257
	asr	r3, r3, r9
	.loc 1 729 30 view .LVU258
	add	r1, r1, #8
	.loc 1 729 66 view .LVU259
	uxtb	r3, r3
	.loc 1 729 30 view .LVU260
	add	r3, r1, r3, lsl #2
	ldr	r1, [r3, #-1280]
	.loc 1 729 77 view .LVU261
	ldr	r0, [lr, r2, lsl #2]
	.loc 1 728 36 view .LVU262
	add	r2, r2, #1
.LVL79:
	.loc 1 729 77 view .LVU263
	str	r0, [r4, r1, lsl #2]
	.loc 1 728 36 is_stmt 1 view .LVU264
.LVL80:
	.loc 1 728 23 view .LVU265
	cmp	r5, r2
	.loc 1 729 73 is_stmt 0 view .LVU266
	add	r1, r1, #1
	str	r1, [r3, #-1280]
	.loc 1 728 23 view .LVU267
	bne	.L28
.LVL81:
.L31:
	.loc 1 728 23 view .LVU268
.LBE1444:
.LBE1445:
	.loc 1 731 13 is_stmt 1 view .LVU269
	.loc 1 732 13 view .LVU270
	.loc 1 733 13 view .LVU271
.LBB1446:
	.loc 1 719 63 view .LVU272
	.loc 1 719 76 is_stmt 0 view .LVU273
	add	r9, r9, #8
.LVL82:
	.loc 1 719 41 is_stmt 1 view .LVU274
	cmp	r9, fp
	add	r10, r10, #1024
.LVL83:
	.loc 1 719 41 is_stmt 0 view .LVU275
	movne	r3, lr
	movne	lr, r4
.LVL84:
	.loc 1 719 41 view .LVU276
	movne	r4, r3
.LVL85:
	.loc 1 719 41 view .LVU277
	bne	.L29
.LVL86:
.L115:
	.loc 1 736 5 is_stmt 1 view .LVU278
	.loc 1 736 5 is_stmt 0 view .LVU279
.LBE1446:
.LBE1448:
	.loc 1 847 9 is_stmt 1 view .LVU280
.LBB1449:
.LBI1449:
	.loc 1 740 13 view .LVU281
.LBB1450:
	.loc 1 742 5 view .LVU282
	.loc 1 743 5 view .LVU283
	.loc 1 743 8 is_stmt 0 view .LVU284
	cmp	r5, #0
	beq	.L112
	.loc 1 745 10 is_stmt 1 view .LVU285
	.loc 1 745 13 is_stmt 0 view .LVU286
	cmp	r5, #1
	beq	.L116
	.loc 1 750 5 is_stmt 1 view .LVU287
	.loc 1 750 16 is_stmt 0 view .LVU288
	ldrh	lr, [r4]
.LVL87:
	.loc 1 750 16 view .LVU289
	ldrh	r3, [r4, #4]
	.loc 1 753 25 view .LVU290
	cmp	r5, #2
	.loc 1 750 16 view .LVU291
	add	lr, lr, r3
	uxth	lr, lr
	.loc 1 770 6 view .LVU292
	sub	r3, r5, #-1073741822
	.loc 1 750 16 view .LVU293
	strh	lr, [r4]	@ movhi
	.loc 1 751 5 is_stmt 1 view .LVU294
.LVL88:
	.loc 1 752 5 view .LVU295
	.loc 1 753 5 view .LVU296
	.loc 1 753 25 view .LVU297
	.loc 1 753 29 is_stmt 0 view .LVU298
	sub	r10, r5, #1
	.loc 1 770 6 view .LVU299
	lsl	r9, r3, #2
	add	fp, r4, r3, lsl #2
	.loc 1 753 25 view .LVU300
	beq	.L35
	mov	r1, r4
	.loc 1 751 10 view .LVU301
	mov	r3, #0
	.loc 1 753 15 view .LVU302
	mov	r2, #1
	.loc 1 752 10 view .LVU303
	mov	r0, #2
	str	r9, [sp, #24]
	str	fp, [sp, #28]
	b	.L44
.LVL89:
.L117:
	.loc 1 764 58 view .LVU304
	lsl	lr, r3, #2
	.loc 1 762 49 view .LVU305
	ldrh	lr, [r4, lr]
	.loc 1 764 58 view .LVU306
	add	r9, r4, r3, lsl #2
.L40:
	.loc 1 764 13 is_stmt 1 view .LVU307
	.loc 1 764 29 is_stmt 0 view .LVU308
	add	lr, ip, lr
	.loc 1 764 27 view .LVU309
	strh	lr, [r1, #4]	@ movhi
	.loc 1 765 13 is_stmt 1 view .LVU310
	.loc 1 765 29 is_stmt 0 view .LVU311
	strh	r2, [r9]	@ movhi
	.loc 1 753 38 view .LVU312
	add	r2, r2, #1
.LVL90:
	.loc 1 753 25 view .LVU313
	cmp	r2, r10
	.loc 1 765 19 view .LVU314
	add	r3, r3, #1
.LVL91:
	.loc 1 753 38 is_stmt 1 view .LVU315
	.loc 1 753 25 view .LVU316
	add	r1, r1, #4
	beq	.L43
.L118:
	.loc 1 755 33 is_stmt 0 view .LVU317
	lsl	ip, r3, #2
	ldrh	lr, [r4, ip]
.LVL92:
.L44:
	.loc 1 755 9 is_stmt 1 view .LVU318
	.loc 1 755 12 is_stmt 0 view .LVU319
	cmp	r5, r0
	ble	.L36
	.loc 1 755 49 view .LVU320
	lsl	ip, r0, #2
	ldrh	ip, [r4, ip]
	.loc 1 755 23 view .LVU321
	cmp	ip, lr
	.loc 1 761 35 view .LVU322
	addls	r0, r0, #1
.LVL93:
	.loc 1 761 27 view .LVU323
	strhls	ip, [r1, #4]	@ movhi
	.loc 1 755 23 view .LVU324
	bls	.L38
.L36:
	.loc 1 757 13 is_stmt 1 view .LVU325
	.loc 1 758 29 is_stmt 0 view .LVU326
	lsl	ip, r3, #2
	.loc 1 757 27 view .LVU327
	strh	lr, [r1, #4]	@ movhi
	.loc 1 758 13 is_stmt 1 view .LVU328
	.loc 1 758 29 is_stmt 0 view .LVU329
	strh	r2, [r4, ip]	@ movhi
	.loc 1 768 48 view .LVU330
	ldrh	ip, [r1, #4]
	.loc 1 758 19 view .LVU331
	add	r3, r3, #1
.LVL94:
.L38:
	.loc 1 762 9 is_stmt 1 view .LVU332
	.loc 1 762 12 is_stmt 0 view .LVU333
	cmp	r5, r0
	ble	.L117
	.loc 1 762 65 view .LVU334
	lsl	lr, r0, #2
	.loc 1 762 23 view .LVU335
	cmp	r3, r2
	.loc 1 762 65 view .LVU336
	ldrh	fp, [r4, lr]
	.loc 1 762 23 view .LVU337
	bge	.L41
	.loc 1 762 43 view .LVU338
	lsl	lr, r3, #2
	.loc 1 762 49 view .LVU339
	ldrh	lr, [r4, lr]
	.loc 1 762 43 view .LVU340
	add	r9, r4, r3, lsl #2
	.loc 1 762 39 view .LVU341
	cmp	lr, fp
	bcc	.L40
.L41:
	.loc 1 768 13 is_stmt 1 view .LVU342
	.loc 1 753 38 is_stmt 0 view .LVU343
	add	r2, r2, #1
.LVL95:
	.loc 1 768 29 view .LVU344
	add	ip, ip, fp
	.loc 1 753 25 view .LVU345
	cmp	r2, r10
	.loc 1 768 27 view .LVU346
	strh	ip, [r1, #4]	@ movhi
	.loc 1 768 63 view .LVU347
	add	r0, r0, #1
.LVL96:
	.loc 1 753 38 is_stmt 1 view .LVU348
	.loc 1 753 25 view .LVU349
	add	r1, r1, #4
	bne	.L118
.L43:
	.loc 1 770 20 is_stmt 0 view .LVU350
	mov	r2, #0
.LVL97:
	.loc 1 770 20 view .LVU351
	ldr	r9, [sp, #24]
	ldr	fp, [sp, #28]
	.loc 1 770 5 is_stmt 1 view .LVU352
	add	r3, r9, #8
.LVL98:
	.loc 1 770 5 is_stmt 0 view .LVU353
	add	r3, r4, r3
	.loc 1 770 20 view .LVU354
	strh	r2, [fp]	@ movhi
	.loc 1 771 5 is_stmt 1 view .LVU355
.LVL99:
	.loc 1 771 29 view .LVU356
	add	r1, r4, #8
.LVL100:
.L46:
	.loc 1 772 9 view .LVU357
	.loc 1 772 34 is_stmt 0 view .LVU358
	ldrh	r2, [r3, #-12]
	.loc 1 771 29 view .LVU359
	sub	r3, r3, #4
	.loc 1 772 41 view .LVU360
	lsl	r2, r2, #2
	.loc 1 772 48 view .LVU361
	ldrh	r2, [r4, r2]
	add	r2, r2, #1
	.loc 1 772 23 view .LVU362
	strh	r2, [r3, #-8]	@ movhi
	.loc 1 771 39 is_stmt 1 view .LVU363
	.loc 1 771 29 view .LVU364
	cmp	r1, r3
	bne	.L46
.LVL101:
.L45:
	.loc 1 773 5 view .LVU365
	.loc 1 774 5 view .LVU366
	.loc 1 775 5 view .LVU367
	.loc 1 774 17 is_stmt 0 view .LVU368
	mov	lr, #0
	.loc 1 773 10 view .LVU369
	mov	r9, #1
	.loc 1 775 10 view .LVU370
	sub	r2, r5, #2
.LVL102:
	.loc 1 776 5 is_stmt 1 view .LVU371
	.loc 1 777 5 view .LVU372
	.loc 1 777 17 view .LVU373
	str	r5, [sp, #24]
.LVL103:
.L47:
	.loc 1 779 26 view .LVU374
	cmn	r2, #1
	movne	r1, #0
	bne	.L53
	.loc 1 779 26 is_stmt 0 view .LVU375
	b	.L119
.LVL104:
.L49:
	.loc 1 782 17 view .LVU376
	sub	r2, r2, #1
.LVL105:
	.loc 1 779 26 view .LVU377
	cmn	r2, #1
	.loc 1 781 17 view .LVU378
	add	r1, r1, #1
.LVL106:
	.loc 1 782 13 is_stmt 1 view .LVU379
	.loc 1 779 26 view .LVU380
	beq	.L120
.LVL107:
.L53:
	.loc 1 781 13 view .LVU381
	.loc 1 779 41 is_stmt 0 view .LVU382
	lsl	r3, r2, #2
	.loc 1 779 29 view .LVU383
	ldrh	r3, [r4, r3]
	.loc 1 779 26 view .LVU384
	cmp	r3, lr
	beq	.L49
	.loc 1 784 21 is_stmt 1 view .LVU385
	cmp	r1, r9
	.loc 1 789 14 is_stmt 0 view .LVU386
	lsl	fp, r1, #1
	.loc 1 784 21 view .LVU387
	bge	.L121
.LVL108:
.L54:
	.loc 1 790 13 view .LVU388
	mov	r3, r9
	sub	ip, r10, r9
	add	ip, r4, ip, lsl #2
	uxth	r5, lr
.L51:
.LVL109:
	.loc 1 786 13 is_stmt 1 view .LVU389
	.loc 1 786 29 is_stmt 0 view .LVU390
	lsl	r0, r3, #2
	.loc 1 787 17 view .LVU391
	sub	r3, r3, #1
.LVL110:
	.loc 1 784 21 view .LVU392
	cmp	r3, r1
	.loc 1 786 29 view .LVU393
	strh	r5, [ip, r0]	@ movhi
	.loc 1 787 13 is_stmt 1 view .LVU394
.LVL111:
	.loc 1 784 21 view .LVU395
	bgt	.L51
	.loc 1 786 19 is_stmt 0 view .LVU396
	cmp	r1, r9
	sub	r3, r9, #1
.LVL112:
	.loc 1 786 19 view .LVU397
	movge	r3, #0
	mov	r9, fp
	sub	r10, r10, #1
	sublt	r3, r1, r3
	add	r10, r3, r10
.LVL113:
.L50:
	.loc 1 789 9 is_stmt 1 view .LVU398
	.loc 1 790 9 view .LVU399
	.loc 1 777 17 is_stmt 0 view .LVU400
	cmp	r1, #0
	.loc 1 790 13 view .LVU401
	add	lr, lr, #1
.LVL114:
	.loc 1 791 9 is_stmt 1 view .LVU402
	.loc 1 777 17 view .LVU403
	bne	.L47
.LVL115:
.L109:
	.loc 1 777 17 is_stmt 0 view .LVU404
.LBE1450:
.LBE1449:
	.loc 1 849 23 is_stmt 1 view .LVU405
	.loc 1 850 13 view .LVU406
	.loc 1 850 38 is_stmt 0 view .LVU407
	mov	r1, #1
	mov	r0, r4
	ldr	r5, [sp, #24]
	.loc 1 850 31 view .LVU408
	ldrh	r3, [r4]
	.loc 1 850 38 view .LVU409
	add	r2, sp, #1440
	add	r2, r2, #8
	add	r3, r2, r3, lsl #2
	add	ip, r4, r5, lsl #2
	str	r1, [r3, #-1412]
	.loc 1 849 41 is_stmt 1 view .LVU410
.LVL116:
	.loc 1 849 23 view .LVU411
	.loc 1 849 23 is_stmt 0 view .LVU412
	sub	ip, ip, #4
.LVL117:
.L34:
	.loc 1 850 31 view .LVU413
	ldrh	r3, [r0, #4]!
	.loc 1 850 13 is_stmt 1 view .LVU414
	.loc 1 850 38 is_stmt 0 view .LVU415
	add	r3, r2, r3, lsl #2
	ldr	r1, [r3, #-1412]
	.loc 1 849 23 view .LVU416
	cmp	ip, r0
	.loc 1 850 38 view .LVU417
	add	r1, r1, #1
	str	r1, [r3, #-1412]
	.loc 1 849 41 is_stmt 1 view .LVU418
	.loc 1 849 23 view .LVU419
	bne	.L34
.LVL118:
	.loc 1 852 9 view .LVU420
.LBB1454:
.LBI1454:
	.loc 1 800 13 view .LVU421
.LBB1455:
	.loc 1 802 5 view .LVU422
	.loc 1 803 5 view .LVU423
	.loc 1 804 5 view .LVU424
	.loc 1 806 5 view .LVU425
	.loc 1 806 35 view .LVU426
	.loc 1 807 19 is_stmt 0 view .LVU427
	add	lr, r6, r7, lsl #2
	mov	r1, lr
	ldr	r2, [r6, r7, lsl #2]
	add	ip, sp, #164
	lsl	r3, r7, #2
.LVL119:
.L57:
	.loc 1 807 9 is_stmt 1 view .LVU428
	.loc 1 807 35 is_stmt 0 view .LVU429
	ldr	r0, [r1, #4]!
	add	r2, r2, r0
	.loc 1 806 35 view .LVU430
	cmp	ip, r1
	.loc 1 807 35 view .LVU431
	str	r2, [lr]
	.loc 1 806 74 is_stmt 1 view .LVU432
	.loc 1 806 35 view .LVU433
	bne	.L57
	mov	r1, #0
	mov	r0, lr
	.loc 1 803 15 is_stmt 0 view .LVU434
	mov	ip, r1
.LVL120:
.L58:
	.loc 1 809 9 is_stmt 1 view .LVU435
	.loc 1 809 41 is_stmt 0 view .LVU436
	ldr	r9, [r0], #-4
	.loc 1 809 15 view .LVU437
	add	ip, ip, r9, lsl r1
.LVL121:
	.loc 1 808 37 is_stmt 1 view .LVU438
	.loc 1 808 31 view .LVU439
	add	r1, r1, #1
.LVL122:
	.loc 1 808 31 is_stmt 0 view .LVU440
	cmp	r7, r1
	bne	.L58
	.loc 1 810 18 is_stmt 1 view .LVU441
	.loc 1 810 26 is_stmt 0 view .LVU442
	mov	r9, #1
	lsl	r9, r9, r7
	.loc 1 810 18 view .LVU443
	cmp	ip, r9
	beq	.L32
	sub	r10, r3, #4
	add	r10, r6, r10
	.loc 1 813 16 view .LVU444
	sub	fp, r7, #1
	str	r4, [sp, #24]
.LVL123:
.L62:
	.loc 1 812 9 is_stmt 1 view .LVU445
	.loc 1 812 34 is_stmt 0 view .LVU446
	sub	r2, r2, #1
	str	r2, [lr]
	.loc 1 813 9 is_stmt 1 view .LVU447
	.loc 1 813 39 view .LVU448
	.loc 1 812 34 is_stmt 0 view .LVU449
	mov	r1, r10
	.loc 1 813 16 view .LVU450
	mov	r2, fp
	b	.L61
.LVL124:
.L59:
	.loc 1 813 39 view .LVU451
	subs	r2, r2, #1
.LVL125:
	.loc 1 813 39 view .LVU452
	beq	.L60
.LVL126:
.L61:
	.loc 1 814 13 is_stmt 1 view .LVU453
	.loc 1 813 45 view .LVU454
	.loc 1 813 39 view .LVU455
	.loc 1 814 27 is_stmt 0 view .LVU456
	mov	r4, r1
	ldr	r0, [r1], #-4
	.loc 1 814 16 view .LVU457
	cmp	r0, #0
	beq	.L59
	.loc 1 816 17 is_stmt 1 view .LVU458
	.loc 1 816 30 is_stmt 0 view .LVU459
	sub	r0, r0, #1
	str	r0, [r4]
	.loc 1 817 17 is_stmt 1 view .LVU460
	.loc 1 817 27 is_stmt 0 view .LVU461
	add	r2, r2, #1
.LVL127:
	.loc 1 817 35 view .LVU462
	ldr	r1, [r6, r2, lsl #2]
	add	r1, r1, #2
	str	r1, [r6, r2, lsl #2]
	.loc 1 818 17 is_stmt 1 view .LVU463
.LVL128:
.L60:
	.loc 1 820 9 view .LVU464
	.loc 1 820 14 is_stmt 0 view .LVU465
	sub	ip, ip, #1
.LVL129:
	.loc 1 810 18 is_stmt 1 view .LVU466
	cmp	ip, r9
	beq	.L110
	.loc 1 812 19 is_stmt 0 view .LVU467
	ldr	r2, [lr]
	b	.L62
.LVL130:
.L120:
	.loc 1 812 19 view .LVU468
.LBE1455:
.LBE1454:
.LBB1457:
.LBB1451:
	.loc 1 784 21 is_stmt 1 view .LVU469
	cmp	r1, r9
	.loc 1 789 14 is_stmt 0 view .LVU470
	lsl	fp, r1, #1
	.loc 1 784 21 view .LVU471
	.loc 1 789 9 is_stmt 1 view .LVU472
.LVL131:
	.loc 1 790 9 view .LVU473
	.loc 1 790 13 is_stmt 0 view .LVU474
	movge	r1, #0
.LVL132:
	.loc 1 789 14 view .LVU475
	movge	r9, fp
	.loc 1 790 13 view .LVU476
	addge	lr, lr, #1
.LVL133:
	.loc 1 791 9 is_stmt 1 view .LVU477
	.loc 1 777 17 view .LVU478
	.loc 1 779 26 view .LVU479
	.loc 1 790 13 is_stmt 0 view .LVU480
	movge	fp, r1
	b	.L54
.LVL134:
.L110:
	.loc 1 790 13 view .LVU481
	ldr	r4, [sp, #24]
.LVL135:
.L32:
	.loc 1 790 13 view .LVU482
.LBE1451:
.LBE1457:
	.loc 1 854 9 is_stmt 1 view .LVU483
	str	r3, [sp, #24]
	.loc 1 854 16 is_stmt 0 view .LVU484
	ldrd	r2, [sp, #4]
	add	ip, r3, r2
	lsl	r9, ip, #5
	add	r0, r9, #36608
	add	r0, r0, #18
	.loc 1 854 9 view .LVU485
	mov	r2, #288
	mov	r1, #0
	add	r0, r8, r0
	bl	memset
.LVL136:
	.loc 1 855 9 is_stmt 1 view .LVU486
	.loc 1 855 16 is_stmt 0 view .LVU487
	ldr	r3, [sp, #20]
	.loc 1 855 9 view .LVU488
	mov	r2, #576
	.loc 1 855 16 view .LVU489
	add	r0, r3, #34816
	add	r0, r0, #82
	.loc 1 855 9 view .LVU490
	mov	r1, #0
	add	r0, r8, r0
	bl	memset
.LVL137:
	.loc 1 856 9 is_stmt 1 view .LVU491
	.loc 1 856 42 view .LVU492
	mov	r10, r6
	.loc 1 856 16 is_stmt 0 view .LVU493
	mov	lr, #1
	ldr	r3, [sp, #24]
	add	r7, r7, #1
.LVL138:
	.loc 1 858 73 view .LVU494
	add	ip, r8, r9
.LVL139:
.L56:
	.loc 1 857 13 is_stmt 1 view .LVU495
	.loc 1 857 20 is_stmt 0 view .LVU496
	ldr	fp, [r10, #4]!
.LVL140:
	.loc 1 857 38 is_stmt 1 view .LVU497
	cmp	fp, #0
	ble	.L63
	.loc 1 857 38 is_stmt 0 view .LVU498
	add	r1, r4, r5, lsl #2
	uxtb	r9, lr
	sub	r0, r1, fp, lsl #2
.LVL141:
.L64:
	.loc 1 858 17 is_stmt 1 discriminator 3 view .LVU499
	.loc 1 858 59 is_stmt 0 discriminator 3 view .LVU500
	ldrh	r2, [r1, #-2]
	.loc 1 857 38 discriminator 3 view .LVU501
	sub	r1, r1, #4
	.loc 1 858 73 discriminator 3 view .LVU502
	add	r2, ip, r2
	add	r2, r2, #36608
	.loc 1 857 38 discriminator 3 view .LVU503
	cmp	r0, r1
	.loc 1 858 73 discriminator 3 view .LVU504
	strb	r9, [r2, #18]
	.loc 1 857 44 is_stmt 1 discriminator 3 view .LVU505
	.loc 1 857 38 discriminator 3 view .LVU506
	bne	.L64
	.loc 1 858 73 is_stmt 0 view .LVU507
	sub	r5, r5, fp
.LVL142:
.L63:
	.loc 1 856 63 is_stmt 1 discriminator 2 view .LVU508
	add	lr, lr, #1
.LVL143:
	.loc 1 856 42 discriminator 2 view .LVU509
	cmp	lr, r7
	bne	.L56
	ldr	r2, [sp, #12]
	add	r1, r2, #36608
	b	.L20
.LVL144:
.L116:
.LBB1458:
.LBB1452:
	.loc 1 747 9 view .LVU510
	.loc 1 747 20 is_stmt 0 view .LVU511
	strh	r5, [r4]	@ movhi
	.loc 1 748 9 is_stmt 1 view .LVU512
.LVL145:
	.loc 1 748 9 is_stmt 0 view .LVU513
.LBE1452:
.LBE1458:
	.loc 1 849 23 is_stmt 1 view .LVU514
	.loc 1 850 13 view .LVU515
	.loc 1 850 38 is_stmt 0 view .LVU516
	str	r5, [sp, #40]
.LVL146:
.L112:
	.loc 1 849 41 is_stmt 1 view .LVU517
	.loc 1 849 23 view .LVU518
	.loc 1 852 9 view .LVU519
.LBB1459:
	.loc 1 800 13 view .LVU520
.LBB1456:
	.loc 1 802 5 view .LVU521
	.loc 1 803 5 view .LVU522
	.loc 1 804 5 view .LVU523
	lsl	r3, r7, #2
	b	.L32
.LVL147:
.L121:
	.loc 1 804 5 is_stmt 0 view .LVU524
.LBE1456:
.LBE1459:
.LBB1460:
.LBB1453:
	.loc 1 789 14 view .LVU525
	mov	r9, fp
.LVL148:
	.loc 1 789 14 view .LVU526
	b	.L50
.LVL149:
.L119:
	.loc 1 784 21 is_stmt 1 view .LVU527
	cmp	r9, #0
	beq	.L109
	mov	fp, #0
	mov	r1, fp
	b	.L54
.LVL150:
.L35:
	.loc 1 770 5 view .LVU528
	.loc 1 770 20 is_stmt 0 view .LVU529
	mov	r3, #0
	strh	r3, [r4, r9]	@ movhi
	.loc 1 771 5 is_stmt 1 view .LVU530
.LVL151:
	.loc 1 771 29 view .LVU531
	b	.L45
.LVL152:
.L114:
	.loc 1 771 29 is_stmt 0 view .LVU532
.LBE1453:
.LBE1460:
.LBB1461:
.LBB1447:
	.loc 1 717 31 view .LVU533
	mov	r3, #2
	b	.L24
.LBE1447:
.LBE1461:
.LBE1439:
	.cfi_endproc
.LFE28:
	.size	tdefl_optimize_huffman_table, .-tdefl_optimize_huffman_table
	.section	.text.mz_zip_reader_init_internal,"ax",%progbits
	.align	2
	.syntax unified
	.arm
	.type	mz_zip_reader_init_internal, %function
mz_zip_reader_init_internal:
.LVL153:
.LFB71:
	.loc 1 3328 1 is_stmt 1 view -0
	.cfi_startproc
	@ args = 0, pretend = 0, frame = 0
	@ frame_needed = 0, uses_anonymous_args = 0
	.loc 1 3329 5 view .LVU535
	.loc 1 3330 5 view .LVU536
	.loc 1 3328 1 is_stmt 0 view .LVU537
	push	{r4, r5, r6, lr}
	.cfi_def_cfa_offset 16
	.cfi_offset 4, -16
	.cfi_offset 5, -12
	.cfi_offset 6, -8
	.cfi_offset 14, -4
	.loc 1 3330 8 view .LVU538
	subs	r4, r0, #0
	beq	.L123
	.loc 1 3330 17 discriminator 1 view .LVU539
	ldr	r3, [r4, #64]
	cmp	r3, #0
	beq	.L135
.L124:
.LBB1462:
.LBB1463:
	.loc 1 3323 9 is_stmt 1 view .LVU540
	.loc 1 3323 28 is_stmt 0 view .LVU541
	mov	r3, #24
	strb	r3, [r4, #22]
.LVL154:
.L123:
	.loc 1 3323 28 view .LVU542
.LBE1463:
.LBE1462:
	.loc 1 3331 16 view .LVU543
	mov	r0, #0
	pop	{r4, r5, r6, pc}
.LVL155:
.L135:
	.loc 1 3330 37 discriminator 2 view .LVU544
	ldrb	r3, [r4, #20]	@ zero_extendqisi2
	cmp	r3, #0
	bne	.L124
	.loc 1 3340 26 view .LVU545
	vldr.64	d7, .L137	@ int
	.loc 1 3342 25 view .LVU546
	mov	r6, #0
	.loc 1 3333 14 view .LVU547
	ldr	r3, [r4, #32]
	mov	r5, r1
	.loc 1 3333 5 is_stmt 1 view .LVU548
	.loc 1 3333 8 is_stmt 0 view .LVU549
	cmp	r3, #0
	.loc 1 3334 9 is_stmt 1 view .LVU550
	.loc 1 3334 24 is_stmt 0 view .LVU551
	ldreq	r2, .L137+8
	.loc 1 3345 59 view .LVU552
	mov	r1, #1
.LVL156:
	.loc 1 3334 24 view .LVU553
	moveq	r3, r2
	streq	r2, [r4, #32]
	.loc 1 3335 5 is_stmt 1 view .LVU554
	.loc 1 3335 8 is_stmt 0 view .LVU555
	ldr	r2, [r4, #36]
	.loc 1 3340 26 view .LVU556
	vstr.64	d7, [r4]	@ int
	.loc 1 3335 8 view .LVU557
	cmp	r2, #0
	.loc 1 3336 9 is_stmt 1 view .LVU558
	.loc 1 3336 23 is_stmt 0 view .LVU559
	ldreq	r2, .L137+12
	.loc 1 3341 40 view .LVU560
	vstr.64	d7, [r4, #8]	@ int
	.loc 1 3336 23 view .LVU561
	streq	r2, [r4, #36]
	.loc 1 3337 5 is_stmt 1 view .LVU562
	.loc 1 3337 8 is_stmt 0 view .LVU563
	ldr	r2, [r4, #40]
	.loc 1 3345 59 view .LVU564
	ldr	r0, [r4, #44]
.LVL157:
	.loc 1 3337 8 view .LVU565
	cmp	r2, #0
	.loc 1 3338 9 is_stmt 1 view .LVU566
	.loc 1 3340 5 view .LVU567
	.loc 1 3341 5 view .LVU568
	.loc 1 3342 5 view .LVU569
	.loc 1 3338 26 is_stmt 0 view .LVU570
	ldreq	r2, .L137+16
	.loc 1 3342 25 view .LVU571
	str	r6, [r4, #16]
	.loc 1 3343 5 is_stmt 1 view .LVU572
	.loc 1 3338 26 is_stmt 0 view .LVU573
	streq	r2, [r4, #40]
	.loc 1 3343 24 view .LVU574
	strb	r6, [r4, #22]
	.loc 1 3345 5 is_stmt 1 view .LVU575
	.loc 1 3345 59 is_stmt 0 view .LVU576
	mov	r2, #88
	blx	r3
.LVL158:
	.loc 1 3345 8 view .LVU577
	cmp	r0, r6
	.loc 1 3345 32 view .LVU578
	str	r0, [r4, #64]
	.loc 1 3345 8 view .LVU579
	beq	.L136
	.loc 1 3348 5 is_stmt 1 view .LVU580
	mov	r1, r6
	mov	r2, #88
	bl	memset
.LVL159:
	.loc 1 3349 5 view .LVU581
	.loc 1 3349 54 is_stmt 0 view .LVU582
	mov	r2, #1
	.loc 1 3350 62 view .LVU583
	mov	r1, #4
	.loc 1 3349 11 view .LVU584
	ldr	r3, [r4, #64]
	.loc 1 3358 12 view .LVU585
	mov	r0, r2
	.loc 1 3352 34 view .LVU586
	str	r5, [r3, #48]
	.loc 1 3353 29 view .LVU587
	str	r6, [r3, #52]	@ unaligned
	str	r6, [r3, #56]	@ unaligned
	.loc 1 3349 54 view .LVU588
	str	r2, [r3, #12]
	.loc 1 3350 5 is_stmt 1 view .LVU589
	.loc 1 3350 62 is_stmt 0 view .LVU590
	str	r1, [r3, #28]
	.loc 1 3351 5 is_stmt 1 view .LVU591
	.loc 1 3351 69 is_stmt 0 view .LVU592
	str	r1, [r3, #44]
	.loc 1 3352 5 is_stmt 1 view .LVU593
	.loc 1 3353 5 view .LVU594
	.loc 1 3354 5 view .LVU595
	.loc 1 3356 5 view .LVU596
	.loc 1 3356 22 is_stmt 0 view .LVU597
	strb	r2, [r4, #20]
	.loc 1 3358 5 is_stmt 1 view .LVU598
	.loc 1 3359 1 is_stmt 0 view .LVU599
	pop	{r4, r5, r6, pc}
.L136:
	.loc 1 3346 9 is_stmt 1 view .LVU600
.LVL160:
.LBB1464:
.LBI1464:
	.loc 1 3320 62 view .LVU601
.LBB1465:
	.loc 1 3322 5 view .LVU602
	.loc 1 3323 9 view .LVU603
	.loc 1 3323 28 is_stmt 0 view .LVU604
	mov	r3, #16
	strb	r3, [r4, #22]
	.loc 1 3324 5 is_stmt 1 view .LVU605
.LVL161:
	.loc 1 3324 5 is_stmt 0 view .LVU606
.LBE1465:
.LBE1464:
	.loc 1 3346 16 view .LVU607
	b	.L123
.L138:
	.align	3
.L137:
	.word	0
	.word	0
	.word	miniz_def_alloc_func
	.word	miniz_def_free_func
	.word	miniz_def_realloc_func
	.cfi_endproc
.LFE71:
	.size	mz_zip_reader_init_internal, .-mz_zip_reader_init_internal
	.section	.text.mz_zip_writer_write_zeros,"ax",%progbits
	.align	2
	.syntax unified
	.arm
	.type	mz_zip_writer_write_zeros, %function
mz_zip_writer_write_zeros:
.LVL162:
.LFB141:
	.loc 1 5989 1 is_stmt 1 view -0
	.cfi_startproc
	@ args = 4, pretend = 0, frame = 4096
	@ frame_needed = 0, uses_anonymous_args = 0
	.loc 1 5990 5 view .LVU609
	.loc 1 5991 5 view .LVU610
	.loc 1 5989 1 is_stmt 0 view .LVU611
	push	{r4, r5, r6, r7, r8, r9, lr}
	.cfi_def_cfa_offset 28
	.cfi_offset 4, -28
	.cfi_offset 5, -24
	.cfi_offset 6, -20
	.cfi_offset 7, -16
	.cfi_offset 8, -12
	.cfi_offset 9, -8
	.cfi_offset 14, -4
	sub	sp, sp, #4096
	.cfi_def_cfa_offset 4124
	sub	sp, sp, #12
	.cfi_def_cfa_offset 4136
	.loc 1 5989 1 view .LVU612
	mov	r4, r2
	add	r2, sp, #4096
.LVL163:
	.loc 1 5989 1 view .LVU613
	ldr	r5, [r2, #40]
	.loc 1 5991 5 view .LVU614
	add	r9, sp, #8
	cmp	r5, #4096
	.loc 1 5989 1 view .LVU615
	add	r2, r2, #40
	mov	r8, r0
	.loc 1 5991 5 view .LVU616
	movcc	r2, r5
	movcs	r2, #4096
	mov	r1, #0
	mov	r0, r9
.LVL164:
	.loc 1 5989 1 view .LVU617
	mov	r6, r3
	.loc 1 5991 5 view .LVU618
	bl	memset
.LVL165:
	.loc 1 5992 5 is_stmt 1 view .LVU619
	.loc 1 5992 12 view .LVU620
	cmp	r5, #0
	bne	.L143
	b	.L140
.LVL166:
.L141:
.LBB1466:
	.loc 1 5998 22 is_stmt 0 view .LVU621
	adds	r4, r0, r4
.LVL167:
	.loc 1 5998 22 view .LVU622
	adc	r6, r6, #0
.LVL168:
	.loc 1 5999 9 is_stmt 1 view .LVU623
	.loc 1 5999 9 is_stmt 0 view .LVU624
.LBE1466:
	.loc 1 5992 12 is_stmt 1 view .LVU625
	subs	r5, r5, r0
.LVL169:
	.loc 1 5992 12 is_stmt 0 view .LVU626
	beq	.L140
.LVL170:
.L143:
.LBB1471:
	.loc 1 5994 9 is_stmt 1 view .LVU627
	.loc 1 5994 19 is_stmt 0 view .LVU628
	cmp	r5, #4096
	movcc	r7, r5
	movcs	r7, #4096
.LVL171:
	.loc 1 5995 9 is_stmt 1 view .LVU629
	.loc 1 5995 13 is_stmt 0 view .LVU630
	ldr	r1, [r8, #52]
	ldr	r0, [r8, #60]
	mov	r2, r4
	mov	r3, r6
	str	r9, [sp]
	str	r7, [sp, #4]
	blx	r1
.LVL172:
	.loc 1 5998 9 is_stmt 1 view .LVU631
	.loc 1 5995 12 is_stmt 0 view .LVU632
	cmp	r0, r7
	beq	.L141
	.loc 1 5996 13 is_stmt 1 view .LVU633
.LVL173:
.LBB1467:
.LBI1467:
	.loc 1 3320 62 view .LVU634
.LBB1468:
	.loc 1 3322 5 view .LVU635
	.loc 1 3323 9 view .LVU636
	.loc 1 3323 28 is_stmt 0 view .LVU637
	mov	r3, #19
.LBE1468:
.LBE1467:
	.loc 1 5996 20 view .LVU638
	mov	r0, #0
.LBB1470:
.LBB1469:
	.loc 1 3323 28 view .LVU639
	strb	r3, [r8, #22]
	.loc 1 3324 5 is_stmt 1 view .LVU640
.LVL174:
	.loc 1 3324 5 is_stmt 0 view .LVU641
.LBE1469:
.LBE1470:
.LBE1471:
	.loc 1 6002 1 view .LVU642
	add	sp, sp, #4096
	add	sp, sp, #12
	.cfi_remember_state
	.cfi_def_cfa_offset 28
	@ sp needed
	pop	{r4, r5, r6, r7, r8, r9, pc}
.LVL175:
.L140:
	.cfi_restore_state
	.loc 1 6001 12 view .LVU643
	mov	r0, #1
	.loc 1 6002 1 view .LVU644
	add	sp, sp, #4096
	add	sp, sp, #12
	.cfi_def_cfa_offset 28
	@ sp needed
	pop	{r4, r5, r6, r7, r8, r9, pc}
	.loc 1 6002 1 view .LVU645
	.cfi_endproc
.LFE141:
	.size	mz_zip_writer_write_zeros, .-mz_zip_writer_write_zeros
	.section	.text.tdefl_flush_output_buffer,"ax",%progbits
	.align	2
	.syntax unified
	.arm
	.type	tdefl_flush_output_buffer, %function
tdefl_flush_output_buffer:
.LVL176:
.LFB38:
	.loc 1 1817 1 is_stmt 1 view -0
	.cfi_startproc
	@ args = 0, pretend = 0, frame = 0
	@ frame_needed = 0, uses_anonymous_args = 0
	.loc 1 1818 5 view .LVU647
	.loc 1 1818 10 is_stmt 0 view .LVU648
	ldr	r2, [r0, #120]
	.loc 1 1817 1 view .LVU649
	push	{r4, r5, r6, lr}
	.cfi_def_cfa_offset 16
	.cfi_offset 4, -16
	.cfi_offset 5, -12
	.cfi_offset 6, -8
	.cfi_offset 14, -4
	.loc 1 1818 8 view .LVU650
	cmp	r2, #0
	.loc 1 1820 9 is_stmt 1 view .LVU651
	.loc 1 1820 40 is_stmt 0 view .LVU652
	ldrne	r3, [r0, #132]
	ldrne	r1, [r0, #112]
	.loc 1 1817 1 view .LVU653
	mov	r4, r0
	.loc 1 1820 40 view .LVU654
	subne	r3, r3, r1
	.loc 1 1820 28 view .LVU655
	strne	r3, [r2]
	.loc 1 1823 5 is_stmt 1 view .LVU656
	.loc 1 1823 10 is_stmt 0 view .LVU657
	ldr	r3, [r0, #124]
	.loc 1 1823 8 view .LVU658
	cmp	r3, #0
	beq	.L151
.LBB1472:
	.loc 1 1825 9 is_stmt 1 view .LVU659
	.loc 1 1825 46 is_stmt 0 view .LVU660
	ldr	r2, [r0, #140]
	.loc 1 1825 43 view .LVU661
	ldr	r5, [r3]
	.loc 1 1825 16 view .LVU662
	ldr	r3, [r0, #92]
	.loc 1 1825 43 view .LVU663
	sub	r5, r5, r2
	.loc 1 1825 16 view .LVU664
	cmp	r5, r3
	movcs	r5, r3
.LVL177:
	.loc 1 1826 9 is_stmt 1 view .LVU665
	.loc 1 1826 62 is_stmt 0 view .LVU666
	ldr	r3, .L161
	.loc 1 1826 9 view .LVU667
	ldr	r0, [r0, #116]
.LVL178:
	.loc 1 1826 9 view .LVU668
	ldr	r1, [r4, #88]
	.loc 1 1826 62 view .LVU669
	add	r3, r4, r3
	.loc 1 1826 9 view .LVU670
	add	r1, r3, r1
	add	r0, r0, r2
	mov	r2, r5
	bl	memcpy
.LVL179:
	.loc 1 1827 9 is_stmt 1 view .LVU671
	.loc 1 1828 37 is_stmt 0 view .LVU672
	ldr	r2, [r4, #92]
	.loc 1 1827 31 view .LVU673
	ldr	r1, [r4, #88]
	.loc 1 1829 26 view .LVU674
	ldr	r3, [r4, #140]
	.loc 1 1828 37 view .LVU675
	sub	r2, r2, r5
	str	r2, [r4, #92]
	.loc 1 1831 29 view .LVU676
	ldr	r2, [r4, #124]
	.loc 1 1829 26 view .LVU677
	add	r3, r5, r3
	.loc 1 1827 31 view .LVU678
	add	r1, r1, r5
	str	r1, [r4, #88]
	.loc 1 1828 9 is_stmt 1 view .LVU679
	.loc 1 1829 9 view .LVU680
	.loc 1 1829 26 is_stmt 0 view .LVU681
	str	r3, [r4, #140]
	.loc 1 1831 9 is_stmt 1 view .LVU682
	.loc 1 1831 29 is_stmt 0 view .LVU683
	str	r3, [r2]
.LVL180:
.L151:
	.loc 1 1831 29 view .LVU684
.LBE1472:
	.loc 1 1834 5 is_stmt 1 view .LVU685
	.loc 1 1834 80 is_stmt 0 view .LVU686
	ldr	r0, [r4, #96]
	cmp	r0, #0
	ldrne	r0, [r4, #92]
	clzne	r0, r0
	lsrne	r0, r0, #5
	.loc 1 1835 1 view .LVU687
	pop	{r4, r5, r6, pc}
.L162:
	.align	2
.L161:
	.word	234098
	.cfi_endproc
.LFE38:
	.size	tdefl_flush_output_buffer, .-tdefl_flush_output_buffer
	.section	.text.tdefl_output_buffer_putter,"ax",%progbits
	.align	2
	.syntax unified
	.arm
	.type	tdefl_output_buffer_putter, %function
tdefl_output_buffer_putter:
.LVL181:
.LFB45:
	.loc 1 1977 1 is_stmt 1 view -0
	.cfi_startproc
	@ args = 0, pretend = 0, frame = 0
	@ frame_needed = 0, uses_anonymous_args = 0
	.loc 1 1978 5 view .LVU689
	.loc 1 1977 1 is_stmt 0 view .LVU690
	push	{r4, r5, r6, r7, r8, lr}
	.cfi_def_cfa_offset 24
	.cfi_offset 4, -24
	.cfi_offset 5, -20
	.cfi_offset 6, -16
	.cfi_offset 7, -12
	.cfi_offset 8, -8
	.cfi_offset 14, -4
	.loc 1 1977 1 view .LVU691
	mov	r8, r0
	.loc 1 1979 24 view .LVU692
	ldr	r0, [r2]
.LVL182:
	.loc 1 1980 21 view .LVU693
	ldr	r4, [r2, #4]
	.loc 1 1979 12 view .LVU694
	add	r6, r0, r1
	.loc 1 1980 8 view .LVU695
	cmp	r4, r6
	.loc 1 1977 1 view .LVU696
	mov	r5, r2
.LVL183:
	.loc 1 1979 5 is_stmt 1 view .LVU697
	.loc 1 1980 5 view .LVU698
	.loc 1 1977 1 is_stmt 0 view .LVU699
	mov	r7, r1
.LBB1473:
	.loc 1 1990 41 view .LVU700
	ldrcs	r3, [r2, #8]
.LBE1473:
	.loc 1 1980 8 view .LVU701
	bcs	.L165
.LBB1474:
	.loc 1 1982 9 is_stmt 1 view .LVU702
.LVL184:
	.loc 1 1983 9 view .LVU703
	.loc 1 1984 9 view .LVU704
	.loc 1 1984 12 is_stmt 0 view .LVU705
	ldr	r3, [r2, #12]
	cmp	r3, #0
	beq	.L168
.L166:
	.loc 1 1986 9 is_stmt 1 discriminator 1 view .LVU706
	.loc 1 1988 13 discriminator 1 view .LVU707
	.loc 1 1988 53 is_stmt 0 discriminator 1 view .LVU708
	lsl	r4, r4, #1
.LVL185:
	.loc 1 1988 26 discriminator 1 view .LVU709
	cmp	r4, #128
	movcc	r4, #128
.LVL186:
	.loc 1 1989 27 is_stmt 1 discriminator 1 view .LVU710
	cmp	r6, r4
	bhi	.L166
	.loc 1 1990 9 view .LVU711
	.loc 1 1990 32 is_stmt 0 view .LVU712
	mov	r1, r4
.LVL187:
	.loc 1 1990 32 view .LVU713
	ldr	r0, [r5, #8]
	bl	realloc
.LVL188:
	.loc 1 1991 9 is_stmt 1 view .LVU714
	.loc 1 1991 12 is_stmt 0 view .LVU715
	subs	r3, r0, #0
	beq	.L168
	.loc 1 1993 9 is_stmt 1 view .LVU716
.LBE1474:
	.loc 1 1996 37 is_stmt 0 view .LVU717
	ldr	r0, [r5]
.LVL189:
.LBB1475:
	.loc 1 1994 23 view .LVU718
	str	r4, [r5, #4]
	.loc 1 1993 19 view .LVU719
	str	r3, [r5, #8]
	.loc 1 1994 9 is_stmt 1 view .LVU720
.LVL190:
.L165:
	.loc 1 1994 9 is_stmt 0 view .LVU721
.LBE1475:
	.loc 1 1996 5 is_stmt 1 view .LVU722
	mov	r2, r7
	mov	r1, r8
	add	r0, r3, r0
	bl	memcpy
.LVL191:
	.loc 1 1997 5 view .LVU723
	.loc 1 1998 12 is_stmt 0 view .LVU724
	mov	r0, #1
	.loc 1 1997 15 view .LVU725
	str	r6, [r5]
	.loc 1 1998 5 is_stmt 1 view .LVU726
	.loc 1 1999 1 is_stmt 0 view .LVU727
	pop	{r4, r5, r6, r7, r8, pc}
.LVL192:
.L168:
.LBB1476:
	.loc 1 1985 20 view .LVU728
	mov	r0, #0
	pop	{r4, r5, r6, r7, r8, pc}
.LBE1476:
	.cfi_endproc
.LFE45:
	.size	tdefl_output_buffer_putter, .-tdefl_output_buffer_putter
	.section	.text.mz_zip_mem_read_func,"ax",%progbits
	.align	2
	.syntax unified
	.arm
	.type	mz_zip_mem_read_func, %function
mz_zip_mem_read_func:
.LVL193:
.LFB80:
	.loc 1 3790 1 is_stmt 1 view -0
	.cfi_startproc
	@ args = 8, pretend = 0, frame = 0
	@ frame_needed = 0, uses_anonymous_args = 0
	.loc 1 3791 5 view .LVU730
	.loc 1 3792 5 view .LVU731
	.loc 1 3790 1 is_stmt 0 view .LVU732
	mov	r1, r2
	.loc 1 3792 33 view .LVU733
	ldm	r0, {r2, ip}
.LVL194:
	.loc 1 3792 55 view .LVU734
	cmp	r1, r2
	.loc 1 3790 1 view .LVU735
	push	{r4, lr}
	.cfi_def_cfa_offset 8
	.cfi_offset 4, -8
	.cfi_offset 14, -4
	.loc 1 3792 55 view .LVU736
	sbcs	lr, r3, ip
	movcs	r4, #0
	bcs	.L176
	.loc 1 3792 89 discriminator 1 view .LVU737
	subs	r2, r2, r1
	sbc	ip, ip, r3
	.loc 1 3792 57 discriminator 1 view .LVU738
	ldr	r3, [sp, #12]
	cmp	r2, r3
	sbcs	ip, ip, #0
	movcc	r4, r2
	ldrcs	r4, [sp, #12]
.L176:
.LVL195:
	.loc 1 3793 5 is_stmt 1 discriminator 8 view .LVU739
	.loc 1 3793 50 is_stmt 0 discriminator 8 view .LVU740
	ldr	r3, [r0, #64]
	.loc 1 3793 5 discriminator 8 view .LVU741
	mov	r2, r4
	ldr	r3, [r3, #72]
	ldr	r0, [sp, #8]
.LVL196:
	.loc 1 3793 5 discriminator 8 view .LVU742
	add	r1, r3, r1
	bl	memcpy
.LVL197:
	.loc 1 3794 5 is_stmt 1 discriminator 8 view .LVU743
	.loc 1 3795 1 is_stmt 0 discriminator 8 view .LVU744
	mov	r0, r4
	pop	{r4, pc}
	.cfi_endproc
.LFE80:
	.size	mz_zip_mem_read_func, .-mz_zip_mem_read_func
	.section	.text.mz_zip_heap_write_func,"ax",%progbits
	.align	2
	.syntax unified
	.arm
	.type	mz_zip_heap_write_func, %function
mz_zip_heap_write_func:
.LVL198:
.LFB121:
	.loc 1 5466 1 is_stmt 1 view -0
	.cfi_startproc
	@ args = 8, pretend = 0, frame = 0
	@ frame_needed = 0, uses_anonymous_args = 0
	.loc 1 5467 5 view .LVU746
	.loc 1 5466 1 is_stmt 0 view .LVU747
	push	{r4, r5, r6, r7, r8, r9, r10, lr}
	.cfi_def_cfa_offset 32
	.cfi_offset 4, -32
	.cfi_offset 5, -28
	.cfi_offset 6, -24
	.cfi_offset 7, -20
	.cfi_offset 8, -16
	.cfi_offset 9, -12
	.cfi_offset 10, -8
	.cfi_offset 14, -4
	.loc 1 5466 1 view .LVU748
	ldr	r5, [sp, #36]
	.loc 1 5471 8 view .LVU749
	cmp	r5, #0
.LVL199:
	.loc 1 5468 5 is_stmt 1 view .LVU750
	.loc 1 5469 5 view .LVU751
	.loc 1 5471 5 view .LVU752
	.loc 1 5471 8 is_stmt 0 view .LVU753
	beq	.L181
	.loc 1 5469 15 view .LVU754
	mov	ip, #0
	.loc 1 5468 28 view .LVU755
	ldr	r9, [r0, #64]
	mov	r7, r2
	.loc 1 5469 15 view .LVU756
	ldr	r6, [r9, #76]
	.loc 1 5469 38 view .LVU757
	adds	r2, r5, r2
.LVL200:
	.loc 1 5469 38 view .LVU758
	adc	r3, r3, #0
.LVL201:
	.loc 1 5469 15 view .LVU759
	cmp	r6, r2
	sbcs	r1, ip, r3
	movcc	r6, r2
	movcc	ip, r3
	.loc 1 5475 5 is_stmt 1 view .LVU760
	.loc 1 5475 8 is_stmt 0 view .LVU761
	cmp	r6, #-2147483648
	sbcs	r3, ip, #0
	mov	r8, r0
	bcs	.L194
	.loc 1 5481 5 is_stmt 1 view .LVU762
	.loc 1 5481 26 is_stmt 0 view .LVU763
	mov	r3, #0
	ldr	r4, [r9, #80]
.LBB1477:
	.loc 1 5489 34 view .LVU764
	ldr	r1, [r9, #72]
.LBE1477:
	.loc 1 5481 8 view .LVU765
	cmp	r4, r6
	sbcs	r2, r3, ip
	bcs	.L185
.LBB1480:
	.loc 1 5483 9 is_stmt 1 view .LVU766
	.loc 1 5484 9 view .LVU767
	.loc 1 5484 16 is_stmt 0 view .LVU768
	cmp	r4, #64
	movcc	r4, #64
.LVL202:
	.loc 1 5486 9 is_stmt 1 view .LVU769
	.loc 1 5486 29 view .LVU770
	cmp	r4, r6
	sbcs	r2, r3, ip
	bcs	.L186
.L187:
	.loc 1 5487 13 view .LVU771
	.loc 1 5487 26 is_stmt 0 view .LVU772
	lsl	r4, r4, #1
.LVL203:
	.loc 1 5486 29 is_stmt 1 view .LVU773
	cmp	r4, r6
	sbcs	r2, r3, ip
	bcc	.L187
.L186:
	.loc 1 5489 9 view .LVU774
	.loc 1 5489 34 is_stmt 0 view .LVU775
	mov	r3, r4
	mov	r2, #1
	ldr	r0, [r8, #44]
.LVL204:
	.loc 1 5489 34 view .LVU776
	ldr	ip, [r8, #40]
	blx	ip
.LVL205:
	.loc 1 5489 12 view .LVU777
	subs	r1, r0, #0
.LBB1478:
.LBB1479:
	.loc 1 3323 28 view .LVU778
	moveq	r3, #16
	strbeq	r3, [r8, #22]
.LBE1479:
.LBE1478:
	.loc 1 5489 12 view .LVU779
	beq	.L181
	.loc 1 5495 9 is_stmt 1 view .LVU780
	.loc 1 5496 32 is_stmt 0 view .LVU781
	str	r4, [r9, #80]
	.loc 1 5495 24 view .LVU782
	str	r1, [r9, #72]
	.loc 1 5496 9 is_stmt 1 view .LVU783
.LVL206:
.L185:
	.loc 1 5496 9 is_stmt 0 view .LVU784
.LBE1480:
	.loc 1 5498 5 is_stmt 1 view .LVU785
	add	r0, r1, r7
	mov	r2, r5
	ldr	r1, [sp, #32]
	bl	memcpy
.LVL207:
	.loc 1 5499 5 view .LVU786
	.loc 1 5500 12 is_stmt 0 view .LVU787
	mov	r0, r5
	.loc 1 5499 26 view .LVU788
	str	r6, [r9, #76]
	.loc 1 5500 5 is_stmt 1 view .LVU789
	.loc 1 5501 1 is_stmt 0 view .LVU790
	pop	{r4, r5, r6, r7, r8, r9, r10, pc}
.LVL208:
.L194:
	.loc 1 5477 9 is_stmt 1 view .LVU791
.LBB1481:
.LBI1481:
	.loc 1 3320 62 view .LVU792
.LBB1482:
	.loc 1 3322 5 view .LVU793
	.loc 1 3323 9 view .LVU794
	.loc 1 3323 28 is_stmt 0 view .LVU795
	mov	r3, #3
	strb	r3, [r0, #22]
.LVL209:
	.loc 1 3324 5 is_stmt 1 view .LVU796
	.loc 1 3324 5 is_stmt 0 view .LVU797
.LBE1482:
.LBE1481:
	.loc 1 5478 9 is_stmt 1 view .LVU798
.L181:
	.loc 1 5472 16 is_stmt 0 view .LVU799
	mov	r0, #0
	pop	{r4, r5, r6, r7, r8, r9, r10, pc}
	.cfi_endproc
.LFE121:
	.size	mz_zip_heap_write_func, .-mz_zip_heap_write_func
	.section	.rodata.str1.4,"aMS",%progbits,1
	.align	2
.LC0:
	.ascii	"bits <= ((1U << len) - 1U)\000"
	.align	2
.LC1:
	.ascii	"/Users/blackout/Desktop/Craftus-Rehabilitated/depen"
	.ascii	"dencies/miniz/miniz.c\000"
	.align	2
.LC2:
	.ascii	"code < TDEFL_MAX_HUFF_SYMBOLS_2\000"
	.align	2
.LC3:
	.ascii	"\002\003\007\000"
	.section	.text.tdefl_start_dynamic_block,"ax",%progbits
	.align	2
	.syntax unified
	.arm
	.type	tdefl_start_dynamic_block, %function
tdefl_start_dynamic_block:
.LVL210:
.LFB29:
	.loc 1 944 1 is_stmt 1 view -0
	.cfi_startproc
	@ args = 0, pretend = 0, frame = 656
	@ frame_needed = 0, uses_anonymous_args = 0
	.loc 1 945 5 view .LVU801
	.loc 1 946 5 view .LVU802
	.loc 1 947 5 view .LVU803
	.loc 1 949 5 view .LVU804
	.loc 1 944 1 is_stmt 0 view .LVU805
	push	{r4, r5, r6, r7, r8, r9, r10, fp, lr}
	.cfi_def_cfa_offset 36
	.cfi_offset 4, -36
	.cfi_offset 5, -32
	.cfi_offset 6, -28
	.cfi_offset 7, -24
	.cfi_offset 8, -20
	.cfi_offset 9, -16
	.cfi_offset 10, -12
	.cfi_offset 11, -8
	.cfi_offset 14, -4
	.loc 1 951 5 view .LVU806
	mov	r5, #0
	.loc 1 949 29 view .LVU807
	mov	r6, #1
	.loc 1 944 1 view .LVU808
	mov	r4, r0
	sub	sp, sp, #668
	.cfi_def_cfa_offset 704
	.loc 1 949 29 view .LVU809
	add	ip, r0, #32768
	str	ip, [sp, #8]
	add	ip, ip, #912
	.loc 1 951 5 view .LVU810
	mov	r1, r5
	str	r5, [sp]
	mov	r3, #15
	mov	r2, #288
	.loc 1 949 29 view .LVU811
	strh	r6, [ip, #2]	@ movhi
	.loc 1 951 5 is_stmt 1 view .LVU812
	bl	tdefl_optimize_huffman_table
.LVL211:
	.loc 1 952 5 view .LVU813
	add	r2, r4, #36864
	str	r5, [sp]
	mov	r5, r2
	str	r2, [sp, #12]
	mov	r3, #15
	mov	r2, #32
	mov	r1, r6
	mov	r0, r4
	bl	tdefl_optimize_huffman_table
.LVL212:
	.loc 1 954 5 view .LVU814
	.loc 1 954 45 view .LVU815
	.loc 1 955 9 view .LVU816
	.loc 1 955 12 is_stmt 0 view .LVU817
	ldrb	r2, [r5, #47]	@ zero_extendqisi2
	cmp	r2, #0
	bne	.L254
	add	r3, r5, #47
	.loc 1 954 45 view .LVU818
	ldr	r1, .L313
	.loc 1 955 51 view .LVU819
	ldr	r5, .L313+4
	b	.L197
.LVL213:
.L288:
	.loc 1 954 45 is_stmt 1 discriminator 1 view .LVU820
	cmp	r5, r1
	beq	.L255
.LVL214:
.L197:
	.loc 1 955 9 view .LVU821
	.loc 1 955 12 is_stmt 0 view .LVU822
	ldrb	r2, [r3, #-1]!	@ zero_extendqisi2
	mov	r9, r5
.LVL215:
	.loc 1 955 12 view .LVU823
	cmp	r2, #0
	.loc 1 955 51 view .LVU824
	sub	r5, r5, #1
.LVL216:
	.loc 1 955 12 view .LVU825
	beq	.L288
.LVL217:
.L196:
.LBB1483:
	.loc 1 1009 18 view .LVU826
	mov	r5, r9
	.loc 1 1009 39 view .LVU827
	sub	r3, r9, #256
	sub	r3, r3, #1
	str	r3, [sp, #16]
.L198:
.LBE1483:
	mov	r6, #30
	ldr	r3, [sp, #12]
	add	r3, r3, #80
.L200:
.LVL218:
	.loc 1 957 46 is_stmt 1 discriminator 1 view .LVU828
	mov	r10, r6
	subs	r6, r6, #1
.LVL219:
	.loc 1 957 46 is_stmt 0 discriminator 1 view .LVU829
	beq	.L297
	.loc 1 958 9 is_stmt 1 view .LVU830
	.loc 1 958 12 is_stmt 0 view .LVU831
	ldrb	r2, [r3, #-1]!	@ zero_extendqisi2
	cmp	r2, #0
	beq	.L200
.LVL220:
.L295:
	.loc 1 961 5 is_stmt 1 view .LVU832
	.loc 1 966 22 is_stmt 0 view .LVU833
	mov	r7, #0
	add	fp, sp, #24
	.loc 1 961 5 view .LVU834
	add	r1, r4, #36608
	mov	r2, r9
	add	r1, r1, #18
	mov	r0, fp
	str	r10, [sp, #20]
	bl	memcpy
.LVL221:
	.loc 1 962 5 is_stmt 1 view .LVU835
	ldr	r3, [sp, #12]
	mov	r2, r10
	add	r1, r3, #50
	add	r0, fp, r9
	bl	memcpy
.LVL222:
	.loc 1 963 5 view .LVU836
	.loc 1 964 5 view .LVU837
	.loc 1 965 5 view .LVU838
	.loc 1 966 5 view .LVU839
	.loc 1 968 5 view .LVU840
	add	r0, r4, #34304
	mov	r2, #38
	mov	r1, r7
	add	r0, r0, #18
	bl	memset
.LVL223:
	.loc 1 969 5 view .LVU841
	.loc 1 969 19 view .LVU842
	.loc 1 963 46 is_stmt 0 view .LVU843
	ldr	r3, [sp, #20]
.LBB1484:
	.loc 1 977 458 view .LVU844
	ldr	r2, [sp, #8]
.LBE1484:
	.loc 1 963 46 view .LVU845
	add	r5, r5, r3
.LVL224:
	.loc 1 963 46 view .LVU846
	add	r9, fp, r5
.LVL225:
.LBB1485:
	.loc 1 977 458 view .LVU847
	add	r2, r2, #1584
	.loc 1 977 544 view .LVU848
	str	r6, [sp, #12]
.LBE1485:
	.loc 1 947 159 view .LVU849
	mov	r8, #255
.LBB1486:
	.loc 1 977 544 view .LVU850
	mov	r6, r4
.LVL226:
	.loc 1 977 544 view .LVU851
.LBE1486:
	.loc 1 964 27 view .LVU852
	mov	r5, r7
.LBB1487:
	.loc 1 977 544 view .LVU853
	mov	r10, r7
	mov	r4, r9
.LVL227:
	.loc 1 977 544 view .LVU854
	mov	r3, r2
	b	.L214
.LVL228:
.L300:
	.loc 1 974 15 is_stmt 1 view .LVU855
	.loc 1 974 18 is_stmt 0 view .LVU856
	cmp	r7, #0
	beq	.L204
	.loc 1 974 39 is_stmt 1 view .LVU857
	.loc 1 974 42 is_stmt 0 view .LVU858
	cmp	r7, #2
	bls	.L298
	.loc 1 974 269 is_stmt 1 discriminator 4 view .LVU859
	.loc 1 974 378 is_stmt 0 discriminator 4 view .LVU860
	mov	r1, #16
	.loc 1 974 294 discriminator 4 view .LVU861
	ldrh	r2, [r3, #2]
	.loc 1 974 429 discriminator 4 view .LVU862
	sub	r7, r7, #3
.LVL229:
	.loc 1 974 294 discriminator 4 view .LVU863
	add	r2, r2, #1
	.loc 1 974 292 discriminator 4 view .LVU864
	strh	r2, [r3, #2]	@ movhi
	.loc 1 974 335 is_stmt 1 discriminator 4 view .LVU865
.LVL230:
	.loc 1 974 378 is_stmt 0 discriminator 4 view .LVU866
	add	r2, r5, #648
	add	r2, r2, r1
	add	r2, sp, r2
	.loc 1 974 427 discriminator 4 view .LVU867
	strb	r7, [r2, #-319]
	.loc 1 974 378 discriminator 4 view .LVU868
	strb	r1, [r2, #-320]
	.loc 1 974 384 is_stmt 1 discriminator 4 view .LVU869
.LVL231:
	.loc 1 974 423 is_stmt 0 discriminator 4 view .LVU870
	add	r5, r5, #2
.LVL232:
.L204:
	.loc 1 974 490 is_stmt 1 discriminator 9 view .LVU871
	.loc 1 975 13 discriminator 9 view .LVU872
	.loc 1 975 16 is_stmt 0 discriminator 9 view .LVU873
	add	r10, r10, #1
.LVL233:
	.loc 1 975 16 discriminator 9 view .LVU874
	cmp	r10, #138
	movne	r7, #0
	bne	.L206
	.loc 1 977 19 is_stmt 1 discriminator 9 view .LVU875
	.loc 1 977 38 discriminator 9 view .LVU876
	.loc 1 977 212 discriminator 9 view .LVU877
	.loc 1 977 435 discriminator 9 view .LVU878
	.loc 1 977 544 is_stmt 0 discriminator 9 view .LVU879
	mov	r10, #0
.LVL234:
	.loc 1 977 639 discriminator 9 view .LVU880
	mov	r7, r10
	.loc 1 977 544 discriminator 9 view .LVU881
	ldr	r1, .L313+8
	add	r2, sp, #344
	strh	r1, [r2, r5]	@ unaligned
	.loc 1 977 460 discriminator 9 view .LVU882
	ldrh	r2, [r3, #6]
	.loc 1 977 544 discriminator 9 view .LVU883
	add	r5, r5, #2
.LVL235:
	.loc 1 977 460 discriminator 9 view .LVU884
	add	r2, r2, #1
	.loc 1 977 458 discriminator 9 view .LVU885
	strh	r2, [r3, #6]	@ movhi
	.loc 1 977 501 is_stmt 1 discriminator 9 view .LVU886
.LVL236:
	.loc 1 977 550 discriminator 9 view .LVU887
	.loc 1 977 627 discriminator 9 view .LVU888
.L206:
	.loc 1 991 494 discriminator 9 view .LVU889
	.loc 1 994 9 discriminator 9 view .LVU890
	.loc 1 994 9 is_stmt 0 discriminator 9 view .LVU891
.LBE1487:
	.loc 1 969 48 is_stmt 1 discriminator 9 view .LVU892
	.loc 1 969 19 discriminator 9 view .LVU893
	cmp	r4, fp
	beq	.L299
.LVL237:
.L214:
.LBB1488:
	.loc 1 971 9 view .LVU894
	mov	r9, r8
	.loc 1 971 18 is_stmt 0 view .LVU895
	ldrb	r8, [fp], #1	@ zero_extendqisi2
.LVL238:
	.loc 1 972 9 is_stmt 1 view .LVU896
	.loc 1 972 12 is_stmt 0 view .LVU897
	cmp	r8, #0
	beq	.L300
	.loc 1 982 15 is_stmt 1 view .LVU898
	.loc 1 982 18 is_stmt 0 view .LVU899
	cmp	r10, #0
	beq	.L207
	.loc 1 982 34 is_stmt 1 view .LVU900
	.loc 1 982 37 is_stmt 0 view .LVU901
	cmp	r10, #2
	bls	.L301
	.loc 1 982 208 is_stmt 1 discriminator 4 view .LVU902
	.loc 1 982 211 is_stmt 0 discriminator 4 view .LVU903
	cmp	r10, #10
	.loc 1 982 393 discriminator 4 view .LVU904
	uxtb	r10, r10
.LVL239:
	.loc 1 982 211 discriminator 4 view .LVU905
	bhi	.L209
	.loc 1 982 233 is_stmt 1 discriminator 8 view .LVU906
	mov	r0, #17
	.loc 1 982 256 is_stmt 0 discriminator 8 view .LVU907
	ldr	r1, [sp, #8]
	.loc 1 982 393 discriminator 8 view .LVU908
	sub	r10, r10, #3
	.loc 1 982 256 discriminator 8 view .LVU909
	add	ip, r1, #1584
	.loc 1 982 258 discriminator 8 view .LVU910
	ldrh	r1, [ip, #4]
	.loc 1 982 393 discriminator 8 view .LVU911
	uxtb	r2, r10
	.loc 1 982 258 discriminator 8 view .LVU912
	add	r1, r1, #1
	.loc 1 982 256 discriminator 8 view .LVU913
	strh	r1, [ip, #4]	@ movhi
	.loc 1 982 299 is_stmt 1 discriminator 8 view .LVU914
.LVL240:
	.loc 1 982 348 discriminator 8 view .LVU915
.L210:
	.loc 1 982 342 is_stmt 0 view .LVU916
	add	r1, r5, #664
	add	r1, sp, r1
	strb	r0, [r1, #-320]
	.loc 1 982 391 view .LVU917
	strb	r2, [r1, #-319]
	.loc 1 982 387 view .LVU918
	add	r5, r5, #2
.LVL241:
.L207:
	.loc 1 982 643 is_stmt 1 discriminator 12 view .LVU919
	.loc 1 983 13 discriminator 12 view .LVU920
	.loc 1 983 16 is_stmt 0 discriminator 12 view .LVU921
	cmp	r8, r9
	beq	.L211
	.loc 1 985 19 is_stmt 1 view .LVU922
	.loc 1 985 22 is_stmt 0 view .LVU923
	cmp	r7, #0
	beq	.L212
	.loc 1 985 43 is_stmt 1 view .LVU924
	.loc 1 985 46 is_stmt 0 view .LVU925
	cmp	r7, #2
	bls	.L302
	.loc 1 985 273 is_stmt 1 discriminator 4 view .LVU926
	.loc 1 985 382 is_stmt 0 discriminator 4 view .LVU927
	mov	r0, #16
	.loc 1 985 296 discriminator 4 view .LVU928
	ldr	r2, [sp, #8]
	.loc 1 985 433 discriminator 4 view .LVU929
	sub	r7, r7, #3
.LVL242:
	.loc 1 985 296 discriminator 4 view .LVU930
	add	r1, r2, #1584
	.loc 1 985 298 discriminator 4 view .LVU931
	ldrh	r2, [r1, #2]
	add	r2, r2, #1
	.loc 1 985 296 discriminator 4 view .LVU932
	strh	r2, [r1, #2]	@ movhi
	.loc 1 985 339 is_stmt 1 discriminator 4 view .LVU933
.LVL243:
	.loc 1 985 382 is_stmt 0 discriminator 4 view .LVU934
	add	r2, r5, #648
	add	r2, r2, r0
	add	r2, sp, r2
	.loc 1 985 431 discriminator 4 view .LVU935
	strb	r7, [r2, #-319]
	.loc 1 985 382 discriminator 4 view .LVU936
	strb	r0, [r2, #-320]
	.loc 1 985 388 is_stmt 1 discriminator 4 view .LVU937
.LVL244:
	.loc 1 985 427 is_stmt 0 discriminator 4 view .LVU938
	add	r5, r5, #2
.LVL245:
.L212:
	.loc 1 985 494 is_stmt 1 discriminator 9 view .LVU939
	.loc 1 986 17 discriminator 9 view .LVU940
	mov	r7, #0
	add	r2, r6, r8, lsl #1
	.loc 1 986 47 is_stmt 0 discriminator 9 view .LVU941
	add	r2, r2, #34304
	.loc 1 986 49 discriminator 9 view .LVU942
	ldrh	r1, [r2, #18]
.LBE1488:
	.loc 1 969 19 discriminator 9 view .LVU943
	cmp	r4, fp
.LBB1489:
	.loc 1 986 49 discriminator 9 view .LVU944
	add	r1, r1, #1
	.loc 1 986 47 discriminator 9 view .LVU945
	strh	r1, [r2, #18]	@ movhi
	.loc 1 987 17 is_stmt 1 discriminator 9 view .LVU946
.LVL246:
	.loc 1 987 60 is_stmt 0 discriminator 9 view .LVU947
	add	r2, r5, #664
	add	r2, sp, r2
	mov	r10, r7
.LVL247:
	.loc 1 987 60 discriminator 9 view .LVU948
	strb	r8, [r2, #-320]
	.loc 1 987 56 discriminator 9 view .LVU949
	add	r5, r5, #1
.LVL248:
	.loc 1 991 494 is_stmt 1 discriminator 9 view .LVU950
	.loc 1 994 9 discriminator 9 view .LVU951
	.loc 1 994 9 is_stmt 0 discriminator 9 view .LVU952
.LBE1489:
	.loc 1 969 48 is_stmt 1 discriminator 9 view .LVU953
	.loc 1 969 19 discriminator 9 view .LVU954
	bne	.L214
.LVL249:
.L299:
	.loc 1 996 8 is_stmt 0 view .LVU955
	cmp	r7, #0
	mov	r4, r6
	ldr	r6, [sp, #12]
.LVL250:
	.loc 1 996 5 is_stmt 1 view .LVU956
	.loc 1 996 8 is_stmt 0 view .LVU957
	beq	.L215
	.loc 1 998 11 is_stmt 1 view .LVU958
	.loc 1 998 35 view .LVU959
	.loc 1 998 38 is_stmt 0 view .LVU960
	cmp	r7, #2
	bhi	.L216
	.loc 1 998 63 is_stmt 1 view .LVU961
	add	r3, r4, r8, lsl #1
	.loc 1 998 98 is_stmt 0 view .LVU962
	add	r3, r3, #34304
	.loc 1 998 100 view .LVU963
	ldrh	r2, [r3, #18]
	.loc 1 998 238 view .LVU964
	add	r0, sp, #344
	.loc 1 998 100 view .LVU965
	add	r2, r2, r7
	.loc 1 998 98 view .LVU966
	strh	r2, [r3, #18]	@ movhi
	.loc 1 998 168 is_stmt 1 view .LVU967
	.loc 1 998 175 view .LVU968
.LVL251:
	.loc 1 998 238 is_stmt 0 view .LVU969
	add	r0, r0, r5
	mov	r1, r8
	mov	r2, r7
	.loc 1 998 234 view .LVU970
	add	r5, r5, r7
.LVL252:
	.loc 1 998 238 view .LVU971
	bl	memset
.LVL253:
.L217:
	.loc 1 1002 639 is_stmt 1 discriminator 12 view .LVU972
	.loc 1 1005 5 discriminator 12 view .LVU973
	mov	ip, #0
	mov	r3, #7
	mov	r2, #19
	mov	r1, #2
	mov	r0, r4
	str	ip, [sp]
	bl	tdefl_optimize_huffman_table
.LVL254:
	.loc 1 1007 5 discriminator 12 view .LVU974
.LBB1490:
	.loc 1 1007 10 discriminator 12 view .LVU975
	.loc 1 1007 28 discriminator 12 view .LVU976
	.loc 1 1007 4 discriminator 12 view .LVU977
	.loc 1 1007 6 discriminator 12 view .LVU978
	.loc 1 1007 31 is_stmt 0 discriminator 12 view .LVU979
	mov	r2, #2
	.loc 1 1007 35 discriminator 12 view .LVU980
	ldr	r1, [r4, #68]
	.loc 1 1007 22 discriminator 12 view .LVU981
	ldr	r3, [r4, #72]
	ldr	r0, [r4, #52]
	orr	r3, r3, r2, lsl r1
	.loc 1 1007 62 discriminator 12 view .LVU982
	add	r1, r1, r2
	.loc 1 1007 90 discriminator 12 view .LVU983
	cmp	r1, #7
	.loc 1 1007 62 discriminator 12 view .LVU984
	mov	ip, r1
	ldr	r2, [r4, #48]
	.loc 1 1007 22 discriminator 12 view .LVU985
	str	r3, [r4, #72]
	.loc 1 1007 49 is_stmt 1 discriminator 12 view .LVU986
	.loc 1 1007 62 is_stmt 0 discriminator 12 view .LVU987
	str	r1, [r4, #68]
	.loc 1 1007 70 is_stmt 1 discriminator 12 view .LVU988
	.loc 1 1007 90 discriminator 12 view .LVU989
	bls	.L221
.L223:
	.loc 1 1007 98 discriminator 8 view .LVU990
	.loc 1 1007 101 is_stmt 0 discriminator 8 view .LVU991
	cmp	r2, r0
	bcs	.L222
	.loc 1 1007 143 is_stmt 1 discriminator 4 view .LVU992
	.loc 1 1007 160 is_stmt 0 discriminator 4 view .LVU993
	add	r1, r2, #1
	str	r1, [r4, #48]
	.loc 1 1007 165 discriminator 4 view .LVU994
	strb	r3, [r2]
	.loc 1 1007 195 discriminator 4 view .LVU995
	ldr	r3, [r4, #72]
	ldr	r1, [r4, #68]
	ldr	r2, [r4, #48]
	ldr	r0, [r4, #52]
.L222:
	.loc 1 1007 194 is_stmt 1 discriminator 6 view .LVU996
	.loc 1 1007 230 is_stmt 0 discriminator 6 view .LVU997
	sub	r1, r1, #8
	.loc 1 1007 210 discriminator 6 view .LVU998
	lsr	r3, r3, #8
	.loc 1 1007 90 discriminator 6 view .LVU999
	cmp	r1, #7
	.loc 1 1007 230 discriminator 6 view .LVU1000
	mov	ip, r1
	.loc 1 1007 210 discriminator 6 view .LVU1001
	str	r3, [r4, #72]
	.loc 1 1007 217 is_stmt 1 discriminator 6 view .LVU1002
	.loc 1 1007 230 is_stmt 0 discriminator 6 view .LVU1003
	str	r1, [r4, #68]
	.loc 1 1007 90 is_stmt 1 discriminator 6 view .LVU1004
	bhi	.L223
.L221:
	.loc 1 1007 90 is_stmt 0 discriminator 6 view .LVU1005
.LBE1490:
	.loc 1 1007 8 is_stmt 1 discriminator 9 view .LVU1006
	.loc 1 1009 5 discriminator 9 view .LVU1007
.LBB1491:
	.loc 1 1009 10 discriminator 9 view .LVU1008
.LVL255:
	.loc 1 1009 46 discriminator 9 view .LVU1009
	.loc 1 1009 4 discriminator 9 view .LVU1010
	.loc 1 1009 6 discriminator 9 view .LVU1011
	.loc 1 1009 22 is_stmt 0 discriminator 9 view .LVU1012
	ldr	r1, [sp, #16]
	orr	r3, r3, r1, lsl ip
	.loc 1 1009 62 discriminator 9 view .LVU1013
	add	r1, ip, #5
	.loc 1 1009 90 discriminator 9 view .LVU1014
	cmp	r1, #7
	.loc 1 1009 22 discriminator 9 view .LVU1015
	str	r3, [r4, #72]
	.loc 1 1009 49 is_stmt 1 discriminator 9 view .LVU1016
	.loc 1 1009 62 is_stmt 0 discriminator 9 view .LVU1017
	str	r1, [r4, #68]
	.loc 1 1009 70 is_stmt 1 discriminator 9 view .LVU1018
	.loc 1 1009 90 discriminator 9 view .LVU1019
	bhi	.L226
	b	.L224
.L303:
	.loc 1 1009 90 is_stmt 0 discriminator 9 view .LVU1020
	ldr	r2, [r4, #48]
	ldr	r0, [r4, #52]
.L226:
	.loc 1 1009 98 is_stmt 1 discriminator 8 view .LVU1021
	.loc 1 1009 101 is_stmt 0 discriminator 8 view .LVU1022
	cmp	r2, r0
	.loc 1 1009 143 is_stmt 1 discriminator 8 view .LVU1023
	.loc 1 1009 160 is_stmt 0 discriminator 8 view .LVU1024
	addcc	r1, r2, #1
	strcc	r1, [r4, #48]
	.loc 1 1009 165 discriminator 8 view .LVU1025
	strbcc	r3, [r2]
	.loc 1 1009 218 discriminator 8 view .LVU1026
	ldr	r2, [r4, #68]
	.loc 1 1009 195 discriminator 8 view .LVU1027
	ldrcc	r3, [r4, #72]
	.loc 1 1009 194 is_stmt 1 discriminator 8 view .LVU1028
	.loc 1 1009 230 is_stmt 0 discriminator 8 view .LVU1029
	sub	r1, r2, #8
	.loc 1 1009 210 discriminator 8 view .LVU1030
	lsr	r3, r3, #8
	.loc 1 1009 90 discriminator 8 view .LVU1031
	cmp	r1, #7
	.loc 1 1009 210 discriminator 8 view .LVU1032
	str	r3, [r4, #72]
	.loc 1 1009 217 is_stmt 1 discriminator 8 view .LVU1033
	.loc 1 1009 230 is_stmt 0 discriminator 8 view .LVU1034
	str	r1, [r4, #68]
	.loc 1 1009 90 is_stmt 1 discriminator 8 view .LVU1035
	bhi	.L303
.LBE1491:
	.loc 1 1009 8 discriminator 9 view .LVU1036
	.loc 1 1010 5 discriminator 9 view .LVU1037
.LBB1492:
	.loc 1 1010 10 discriminator 9 view .LVU1038
.LVL256:
	.loc 1 1010 45 discriminator 9 view .LVU1039
	.loc 1 1010 4 discriminator 9 view .LVU1040
	.loc 1 1010 6 discriminator 9 view .LVU1041
	.loc 1 1010 62 is_stmt 0 discriminator 9 view .LVU1042
	sub	r2, r2, #3
	.loc 1 1010 22 discriminator 9 view .LVU1043
	orr	r3, r3, r6, lsl r1
	.loc 1 1010 90 discriminator 9 view .LVU1044
	cmp	r2, #7
	.loc 1 1010 62 discriminator 9 view .LVU1045
	strd	r2, [r4, #68]
	.loc 1 1010 70 is_stmt 1 discriminator 9 view .LVU1046
	.loc 1 1010 90 discriminator 9 view .LVU1047
	bls	.L227
.LVL257:
.L296:
	.loc 1 1010 90 is_stmt 0 discriminator 9 view .LVU1048
	ldr	r2, [r4, #48]
	ldr	r0, [r4, #52]
.L229:
	.loc 1 1010 98 is_stmt 1 discriminator 8 view .LVU1049
	.loc 1 1010 101 is_stmt 0 discriminator 8 view .LVU1050
	cmp	r2, r0
	.loc 1 1010 143 is_stmt 1 discriminator 8 view .LVU1051
	.loc 1 1010 160 is_stmt 0 discriminator 8 view .LVU1052
	addcc	r1, r2, #1
	strcc	r1, [r4, #48]
	.loc 1 1010 165 discriminator 8 view .LVU1053
	strbcc	r3, [r2]
	.loc 1 1010 230 discriminator 8 view .LVU1054
	ldr	r2, [r4, #68]
	.loc 1 1010 195 discriminator 8 view .LVU1055
	ldrcc	r3, [r4, #72]
	.loc 1 1010 194 is_stmt 1 discriminator 8 view .LVU1056
	.loc 1 1010 230 is_stmt 0 discriminator 8 view .LVU1057
	sub	r2, r2, #8
	.loc 1 1010 210 discriminator 8 view .LVU1058
	lsr	r3, r3, #8
	.loc 1 1010 90 discriminator 8 view .LVU1059
	cmp	r2, #7
	.loc 1 1010 230 discriminator 8 view .LVU1060
	strd	r2, [r4, #68]
	.loc 1 1010 90 is_stmt 1 discriminator 8 view .LVU1061
	bhi	.L296
.L227:
.LVL258:
	.loc 1 1010 90 is_stmt 0 discriminator 8 view .LVU1062
.LBE1492:
	.loc 1 1012 48 is_stmt 1 view .LVU1063
	.loc 1 1012 26 is_stmt 0 view .LVU1064
	mov	r0, #18
	ldr	ip, .L313+12
	b	.L231
.LVL259:
.L305:
	.loc 1 1012 69 is_stmt 1 discriminator 2 view .LVU1065
	.loc 1 1012 48 is_stmt 0 discriminator 2 view .LVU1066
	subs	r0, r0, #1
.LVL260:
	.loc 1 1012 48 discriminator 2 view .LVU1067
	bcc	.L304
.LVL261:
.L231:
	.loc 1 1013 9 is_stmt 1 view .LVU1068
	.loc 1 1013 74 is_stmt 0 view .LVU1069
	ldrb	r1, [ip, #-1]!	@ zero_extendqisi2
	.loc 1 1013 36 view .LVU1070
	add	r1, r4, r1
	add	r1, r1, #37120
	.loc 1 1013 12 view .LVU1071
	ldrb	r1, [r1, #82]	@ zero_extendqisi2
	cmp	r1, #0
	beq	.L305
	.loc 1 1015 62 view .LVU1072
	cmp	r0, #3
	movlt	r0, #3
.LVL262:
.LBB1493:
	.loc 1 1016 41 view .LVU1073
	sub	r1, r0, #3
	.loc 1 1016 22 view .LVU1074
	orr	r3, r3, r1, lsl r2
.L232:
.LBE1493:
	.loc 1 1015 5 is_stmt 1 view .LVU1075
	.loc 1 1016 5 view .LVU1076
.LBB1494:
	.loc 1 1016 10 view .LVU1077
.LVL263:
	.loc 1 1016 46 view .LVU1078
	.loc 1 1016 4 view .LVU1079
	.loc 1 1016 6 view .LVU1080
	.loc 1 1016 62 is_stmt 0 view .LVU1081
	add	r2, r2, #4
	.loc 1 1016 90 view .LVU1082
	cmp	r2, #7
	.loc 1 1016 62 view .LVU1083
	strd	r2, [r4, #68]
	.loc 1 1016 70 is_stmt 1 view .LVU1084
	.loc 1 1016 90 view .LVU1085
	bls	.L236
.L233:
	.loc 1 1016 98 discriminator 8 view .LVU1086
	.loc 1 1016 103 is_stmt 0 discriminator 8 view .LVU1087
	ldr	r2, [r4, #48]
	.loc 1 1016 101 discriminator 8 view .LVU1088
	ldr	r1, [r4, #52]
	cmp	r2, r1
	.loc 1 1016 143 is_stmt 1 discriminator 8 view .LVU1089
	.loc 1 1016 160 is_stmt 0 discriminator 8 view .LVU1090
	addcc	r1, r2, #1
	strcc	r1, [r4, #48]
	.loc 1 1016 165 discriminator 8 view .LVU1091
	strbcc	r3, [r2]
	.loc 1 1016 230 discriminator 8 view .LVU1092
	ldr	r2, [r4, #68]
	.loc 1 1016 195 discriminator 8 view .LVU1093
	ldrcc	r3, [r4, #72]
	.loc 1 1016 194 is_stmt 1 discriminator 8 view .LVU1094
	.loc 1 1016 230 is_stmt 0 discriminator 8 view .LVU1095
	sub	r2, r2, #8
	.loc 1 1016 210 discriminator 8 view .LVU1096
	lsr	r3, r3, #8
	.loc 1 1016 90 discriminator 8 view .LVU1097
	cmp	r2, #7
	.loc 1 1016 230 discriminator 8 view .LVU1098
	strd	r2, [r4, #68]
	.loc 1 1016 90 is_stmt 1 discriminator 8 view .LVU1099
	bhi	.L233
.L236:
.LVL264:
	.loc 1 1016 90 is_stmt 0 discriminator 8 view .LVU1100
.LBE1494:
	.loc 1 1017 24 is_stmt 1 view .LVU1101
	ldr	lr, .L313+16
	sub	ip, lr, #1
	add	lr, lr, r0
.LVL265:
.L234:
	.loc 1 1018 9 view .LVU1102
.LBB1495:
	.loc 1 1018 14 view .LVU1103
	.loc 1 1018 90 is_stmt 0 view .LVU1104
	ldrb	r3, [ip, #1]!	@ zero_extendqisi2
.LVL266:
	.loc 1 1018 52 view .LVU1105
	add	r3, r4, r3
	add	r3, r3, #37120
	.loc 1 1018 22 view .LVU1106
	ldrb	r1, [r3, #82]	@ zero_extendqisi2
.LVL267:
	.loc 1 1018 96 is_stmt 1 view .LVU1107
	.loc 1 1018 8 view .LVU1108
	.loc 1 1018 20 is_stmt 0 view .LVU1109
	cmp	r1, #7
	bhi	.L306
	.loc 1 1018 10 is_stmt 1 discriminator 2 view .LVU1110
	.loc 1 1018 39 is_stmt 0 discriminator 2 view .LVU1111
	ldr	r3, [r4, #68]
	.loc 1 1018 26 discriminator 2 view .LVU1112
	ldr	r2, [r4, #72]
	orr	r2, r2, r1, lsl r3
	.loc 1 1018 66 discriminator 2 view .LVU1113
	add	r3, r3, #3
	.loc 1 1018 94 discriminator 2 view .LVU1114
	cmp	r3, #7
	.loc 1 1018 26 discriminator 2 view .LVU1115
	str	r2, [r4, #72]
	.loc 1 1018 53 is_stmt 1 discriminator 2 view .LVU1116
	.loc 1 1018 66 is_stmt 0 discriminator 2 view .LVU1117
	str	r3, [r4, #68]
	.loc 1 1018 74 is_stmt 1 discriminator 2 view .LVU1118
	.loc 1 1018 94 discriminator 2 view .LVU1119
	bls	.L241
.LVL268:
.L238:
	.loc 1 1018 102 discriminator 8 view .LVU1120
	.loc 1 1018 107 is_stmt 0 discriminator 8 view .LVU1121
	ldr	r1, [r4, #48]
	.loc 1 1018 105 discriminator 8 view .LVU1122
	ldr	r0, [r4, #52]
	cmp	r1, r0
	.loc 1 1018 147 is_stmt 1 discriminator 8 view .LVU1123
	.loc 1 1018 164 is_stmt 0 discriminator 8 view .LVU1124
	addcc	r3, r1, #1
	strcc	r3, [r4, #48]
	.loc 1 1018 169 discriminator 8 view .LVU1125
	strbcc	r2, [r1]
	ldrcc	r3, [r4, #68]
	.loc 1 1018 198 is_stmt 1 discriminator 8 view .LVU1126
	.loc 1 1018 199 is_stmt 0 discriminator 8 view .LVU1127
	ldrcc	r2, [r4, #72]
	.loc 1 1018 234 discriminator 8 view .LVU1128
	sub	r3, r3, #8
	.loc 1 1018 214 discriminator 8 view .LVU1129
	lsr	r2, r2, #8
	.loc 1 1018 94 discriminator 8 view .LVU1130
	cmp	r3, #7
	.loc 1 1018 214 discriminator 8 view .LVU1131
	str	r2, [r4, #72]
	.loc 1 1018 221 is_stmt 1 discriminator 8 view .LVU1132
	.loc 1 1018 234 is_stmt 0 discriminator 8 view .LVU1133
	str	r3, [r4, #68]
	.loc 1 1018 94 is_stmt 1 discriminator 8 view .LVU1134
	bhi	.L238
.L241:
	.loc 1 1018 94 is_stmt 0 discriminator 8 view .LVU1135
.LBE1495:
	.loc 1 1018 12 is_stmt 1 view .LVU1136
	.loc 1 1017 44 view .LVU1137
.LVL269:
	.loc 1 1017 24 view .LVU1138
	cmp	lr, ip
	bne	.L234
	.loc 1 1020 34 is_stmt 0 view .LVU1139
	mov	r6, #0
.LBB1496:
.LBB1497:
	.loc 1 1024 21 view .LVU1140
	mov	r9, #1
.LBE1497:
.LBB1498:
	.loc 1 1026 104 view .LVU1141
	ldr	r10, .L313+20
	add	r0, sp, #344
.LVL270:
.L239:
	.loc 1 1026 104 view .LVU1142
.LBE1498:
.LBE1496:
	.loc 1 1020 63 discriminator 9 view .LVU1143
	cmp	r5, r6
	add	r7, r0, r6
.LVL271:
.LBB1503:
	.loc 1 1026 16 is_stmt 1 discriminator 9 view .LVU1144
.LBE1503:
	.loc 1 1020 63 discriminator 9 view .LVU1145
	bls	.L307
.L252:
.LBB1504:
	.loc 1 1022 9 view .LVU1146
	.loc 1 1022 41 is_stmt 0 view .LVU1147
	ldrb	lr, [r7], #1	@ zero_extendqisi2
	.loc 1 1022 65 view .LVU1148
	add	r8, r6, #1
.LVL272:
	.loc 1 1023 8 is_stmt 1 view .LVU1149
	.loc 1 1023 20 is_stmt 0 view .LVU1150
	cmp	lr, #18
	bhi	.L308
	.loc 1 1024 9 is_stmt 1 view .LVU1151
.LBB1499:
	.loc 1 1024 14 view .LVU1152
	.loc 1 1024 92 is_stmt 0 view .LVU1153
	add	r2, r4, lr
	.loc 1 1024 47 view .LVU1154
	add	r3, lr, #17920
	.loc 1 1024 92 view .LVU1155
	add	r2, r2, #37120
	.loc 1 1024 63 view .LVU1156
	ldrb	r1, [r2, #82]	@ zero_extendqisi2
	.loc 1 1024 47 view .LVU1157
	add	r3, r3, #104
	add	r3, r4, r3, lsl #1
	.loc 1 1024 22 view .LVU1158
	ldrh	ip, [r3, #2]
.LVL273:
	.loc 1 1024 55 is_stmt 1 view .LVU1159
	.loc 1 1024 8 view .LVU1160
	.loc 1 1024 21 is_stmt 0 view .LVU1161
	lsl	r3, r9, r1
	.loc 1 1024 29 view .LVU1162
	sub	r3, r3, #1
	.loc 1 1024 20 view .LVU1163
	cmp	r3, ip
	bcc	.L309
	.loc 1 1024 10 is_stmt 1 discriminator 2 view .LVU1164
	.loc 1 1024 39 is_stmt 0 discriminator 2 view .LVU1165
	ldr	r3, [r4, #68]
	.loc 1 1024 26 discriminator 2 view .LVU1166
	ldr	r2, [r4, #72]
	.loc 1 1024 66 discriminator 2 view .LVU1167
	add	r1, r3, r1
.LVL274:
	.loc 1 1024 26 discriminator 2 view .LVU1168
	orr	r2, r2, ip, lsl r3
	.loc 1 1024 94 discriminator 2 view .LVU1169
	cmp	r1, #7
	.loc 1 1024 66 discriminator 2 view .LVU1170
	mov	r3, r1
	.loc 1 1024 26 discriminator 2 view .LVU1171
	str	r2, [r4, #72]
.LVL275:
	.loc 1 1024 53 is_stmt 1 discriminator 2 view .LVU1172
	.loc 1 1024 66 is_stmt 0 discriminator 2 view .LVU1173
	str	r1, [r4, #68]
	.loc 1 1024 74 is_stmt 1 discriminator 2 view .LVU1174
	.loc 1 1024 94 discriminator 2 view .LVU1175
	bls	.L244
.LVL276:
.L246:
	.loc 1 1024 102 discriminator 8 view .LVU1176
	.loc 1 1024 107 is_stmt 0 discriminator 8 view .LVU1177
	ldr	r1, [r4, #48]
	.loc 1 1024 105 discriminator 8 view .LVU1178
	ldr	ip, [r4, #52]
	cmp	r1, ip
	.loc 1 1024 147 is_stmt 1 discriminator 8 view .LVU1179
	.loc 1 1024 164 is_stmt 0 discriminator 8 view .LVU1180
	addcc	r3, r1, #1
	strcc	r3, [r4, #48]
	.loc 1 1024 169 discriminator 8 view .LVU1181
	strbcc	r2, [r1]
	ldrcc	r3, [r4, #68]
	.loc 1 1024 198 is_stmt 1 discriminator 8 view .LVU1182
	.loc 1 1024 199 is_stmt 0 discriminator 8 view .LVU1183
	ldrcc	r2, [r4, #72]
	.loc 1 1024 234 discriminator 8 view .LVU1184
	sub	r3, r3, #8
	.loc 1 1024 214 discriminator 8 view .LVU1185
	lsr	r2, r2, #8
	.loc 1 1024 94 discriminator 8 view .LVU1186
	cmp	r3, #7
	.loc 1 1024 234 discriminator 8 view .LVU1187
	mov	r1, r3
	.loc 1 1024 214 discriminator 8 view .LVU1188
	str	r2, [r4, #72]
	.loc 1 1024 221 is_stmt 1 discriminator 8 view .LVU1189
	.loc 1 1024 234 is_stmt 0 discriminator 8 view .LVU1190
	str	r3, [r4, #68]
	.loc 1 1024 94 is_stmt 1 discriminator 8 view .LVU1191
	bhi	.L246
.L244:
	.loc 1 1024 94 is_stmt 0 discriminator 8 view .LVU1192
.LBE1499:
	.loc 1 1024 12 is_stmt 1 discriminator 9 view .LVU1193
	.loc 1 1025 9 discriminator 9 view .LVU1194
	.loc 1 1025 12 is_stmt 0 discriminator 9 view .LVU1195
	cmp	lr, #15
	bhi	.L310
	.loc 1 1022 65 view .LVU1196
	mov	r6, r8
.LVL277:
	.loc 1 1026 16 is_stmt 1 view .LVU1197
.LBE1504:
	.loc 1 1020 63 view .LVU1198
	cmp	r5, r6
	bhi	.L252
.LVL278:
.L307:
	.loc 1 1028 1 is_stmt 0 view .LVU1199
	add	sp, sp, #668
	.cfi_remember_state
	.cfi_def_cfa_offset 36
	@ sp needed
	pop	{r4, r5, r6, r7, r8, r9, r10, fp, pc}
.LVL279:
.L211:
	.cfi_restore_state
.LBB1505:
	.loc 1 989 18 is_stmt 1 view .LVU1200
	.loc 1 989 21 is_stmt 0 view .LVU1201
	add	r7, r7, #1
.LVL280:
	.loc 1 989 21 view .LVU1202
	cmp	r7, #6
	movne	r10, #0
	bne	.L206
	.loc 1 991 19 is_stmt 1 discriminator 4 view .LVU1203
	.loc 1 991 43 discriminator 4 view .LVU1204
	.loc 1 991 273 discriminator 4 view .LVU1205
	.loc 1 991 382 is_stmt 0 discriminator 4 view .LVU1206
	mov	ip, #784
	.loc 1 991 486 discriminator 4 view .LVU1207
	mov	r7, #0
.LVL281:
	.loc 1 991 296 discriminator 4 view .LVU1208
	ldr	r2, [sp, #8]
	.loc 1 991 382 discriminator 4 view .LVU1209
	add	r0, sp, #344
	.loc 1 991 296 discriminator 4 view .LVU1210
	add	r1, r2, #1584
	.loc 1 991 298 discriminator 4 view .LVU1211
	ldrh	r2, [r1, #2]
	.loc 1 991 382 discriminator 4 view .LVU1212
	mov	r10, r7
	.loc 1 991 298 discriminator 4 view .LVU1213
	add	r2, r2, #1
	.loc 1 991 296 discriminator 4 view .LVU1214
	strh	r2, [r1, #2]	@ movhi
	.loc 1 991 339 is_stmt 1 discriminator 4 view .LVU1215
.LVL282:
	.loc 1 991 388 discriminator 4 view .LVU1216
	.loc 1 991 382 is_stmt 0 discriminator 4 view .LVU1217
	strh	ip, [r0, r5]	@ unaligned
	.loc 1 991 469 is_stmt 1 discriminator 4 view .LVU1218
.LVL283:
	.loc 1 991 382 is_stmt 0 discriminator 4 view .LVU1219
	add	r5, r5, #2
.LVL284:
	.loc 1 991 382 discriminator 4 view .LVU1220
	b	.L206
.LVL285:
.L209:
	.loc 1 982 431 is_stmt 1 discriminator 9 view .LVU1221
	.loc 1 982 454 is_stmt 0 discriminator 9 view .LVU1222
	ldr	r1, [sp, #8]
	.loc 1 982 591 discriminator 9 view .LVU1223
	sub	r10, r10, #11
	.loc 1 982 454 discriminator 9 view .LVU1224
	add	r0, r1, #1584
	.loc 1 982 456 discriminator 9 view .LVU1225
	ldrh	r1, [r0, #6]
	.loc 1 982 591 discriminator 9 view .LVU1226
	uxtb	r2, r10
	.loc 1 982 456 discriminator 9 view .LVU1227
	add	r1, r1, #1
	.loc 1 982 454 discriminator 9 view .LVU1228
	strh	r1, [r0, #6]	@ movhi
	.loc 1 982 497 is_stmt 1 discriminator 9 view .LVU1229
.LVL286:
	.loc 1 982 546 discriminator 9 view .LVU1230
	.loc 1 982 591 is_stmt 0 discriminator 9 view .LVU1231
	mov	r0, #18
	b	.L210
.LVL287:
.L298:
	.loc 1 974 67 is_stmt 1 view .LVU1232
	add	r2, r6, r9, lsl #1
	.loc 1 974 102 is_stmt 0 view .LVU1233
	add	r2, r2, #34304
	.loc 1 974 104 view .LVU1234
	ldrh	r0, [r2, #18]
	.loc 1 974 242 view .LVU1235
	mov	r1, r9
	.loc 1 974 104 view .LVU1236
	add	r0, r0, r7
	.loc 1 974 102 view .LVU1237
	strh	r0, [r2, #18]	@ movhi
	.loc 1 974 172 is_stmt 1 view .LVU1238
	.loc 1 974 179 view .LVU1239
.LVL288:
	.loc 1 974 242 is_stmt 0 view .LVU1240
	add	r0, sp, #344
	add	r0, r0, r5
	mov	r2, r7
	str	r3, [sp, #20]
	.loc 1 974 238 view .LVU1241
	add	r5, r5, r7
.LVL289:
	.loc 1 974 242 view .LVU1242
	bl	memset
.LVL290:
	.loc 1 974 242 view .LVU1243
	ldr	r3, [sp, #20]
	b	.L204
.LVL291:
.L301:
	.loc 1 982 57 is_stmt 1 view .LVU1244
	str	r3, [sp, #20]
	.loc 1 982 79 is_stmt 0 view .LVU1245
	ldr	r3, [sp, #8]
	.loc 1 982 196 view .LVU1246
	add	r0, sp, #344
	.loc 1 982 79 view .LVU1247
	add	r1, r3, #1552
	.loc 1 982 81 view .LVU1248
	ldrh	r2, [r1, #2]
	.loc 1 982 196 view .LVU1249
	add	r0, r0, r5
	.loc 1 982 81 view .LVU1250
	add	r2, r2, r10
	.loc 1 982 79 view .LVU1251
	strh	r2, [r1, #2]	@ movhi
	.loc 1 982 131 is_stmt 1 view .LVU1252
	.loc 1 982 138 view .LVU1253
.LVL292:
	.loc 1 982 196 is_stmt 0 view .LVU1254
	mov	r2, r10
	mov	r1, #0
	bl	memset
.LVL293:
	.loc 1 982 192 view .LVU1255
	add	r5, r5, r10
	ldr	r3, [sp, #20]
	b	.L207
.LVL294:
.L215:
	.loc 1 982 192 view .LVU1256
.LBE1505:
	.loc 1 1002 11 is_stmt 1 view .LVU1257
	.loc 1 1002 14 is_stmt 0 view .LVU1258
	cmp	r10, #0
	beq	.L217
	.loc 1 1002 30 is_stmt 1 view .LVU1259
	.loc 1 1002 33 is_stmt 0 view .LVU1260
	cmp	r10, #2
	bls	.L311
	.loc 1 1002 204 is_stmt 1 discriminator 4 view .LVU1261
	.loc 1 1002 207 is_stmt 0 discriminator 4 view .LVU1262
	cmp	r10, #10
	.loc 1 1002 252 discriminator 4 view .LVU1263
	ldr	r3, [sp, #8]
	.loc 1 1002 389 discriminator 4 view .LVU1264
	uxtb	r2, r10
	.loc 1 1002 207 discriminator 4 view .LVU1265
	bhi	.L219
	.loc 1 1002 229 is_stmt 1 discriminator 8 view .LVU1266
	mov	r1, #17
	.loc 1 1002 252 is_stmt 0 discriminator 8 view .LVU1267
	add	r0, r3, #1584
	.loc 1 1002 389 discriminator 8 view .LVU1268
	sub	r2, r2, #3
	uxtb	r3, r2
	.loc 1 1002 254 discriminator 8 view .LVU1269
	ldrh	r2, [r0, #4]
	add	r2, r2, #1
	.loc 1 1002 252 discriminator 8 view .LVU1270
	strh	r2, [r0, #4]	@ movhi
	.loc 1 1002 295 is_stmt 1 discriminator 8 view .LVU1271
.LVL295:
	.loc 1 1002 344 discriminator 8 view .LVU1272
.L220:
	.loc 1 1002 338 is_stmt 0 view .LVU1273
	add	r2, r5, #664
	add	r2, sp, r2
	strb	r1, [r2, #-320]
	.loc 1 1002 387 view .LVU1274
	strb	r3, [r2, #-319]
	.loc 1 1002 383 view .LVU1275
	add	r5, r5, #2
	b	.L217
.LVL296:
.L310:
.LBB1506:
	.loc 1 1026 13 is_stmt 1 view .LVU1276
.LBB1500:
	.loc 1 1026 18 view .LVU1277
	.loc 1 1026 104 is_stmt 0 view .LVU1278
	add	lr, r10, lr
.LVL297:
	.loc 1 1026 50 view .LVU1279
	add	r2, r8, #664
	.loc 1 1026 87 view .LVU1280
	ldrb	r3, [lr, #-16]	@ zero_extendqisi2
	.loc 1 1026 50 view .LVU1281
	add	r8, sp, r2
.LVL298:
	.loc 1 1026 26 view .LVU1282
	ldrb	ip, [r8, #-320]	@ zero_extendqisi2
	.loc 1 1026 25 view .LVU1283
	lsl	r2, r9, r3
.LVL299:
	.loc 1 1026 33 view .LVU1284
	sub	r2, r2, #1
	.loc 1 1026 24 view .LVU1285
	cmp	r2, ip
	.loc 1 1026 74 view .LVU1286
	add	r6, r6, #2
.LVL300:
	.loc 1 1026 79 is_stmt 1 view .LVU1287
	.loc 1 1026 12 view .LVU1288
	.loc 1 1026 24 is_stmt 0 view .LVU1289
	bcc	.L312
	.loc 1 1026 14 is_stmt 1 discriminator 2 view .LVU1290
	.loc 1 1026 30 is_stmt 0 discriminator 2 view .LVU1291
	ldr	r2, [r4, #72]
	.loc 1 1026 70 discriminator 2 view .LVU1292
	add	r3, r3, r1
.LVL301:
	.loc 1 1026 30 discriminator 2 view .LVU1293
	orr	r2, r2, ip, lsl r1
	.loc 1 1026 98 discriminator 2 view .LVU1294
	cmp	r3, #7
	.loc 1 1026 70 discriminator 2 view .LVU1295
	str	r3, [r4, #68]
	.loc 1 1026 30 discriminator 2 view .LVU1296
	str	r2, [r4, #72]
	.loc 1 1026 57 is_stmt 1 discriminator 2 view .LVU1297
	.loc 1 1026 78 discriminator 2 view .LVU1298
	.loc 1 1026 98 discriminator 2 view .LVU1299
	bls	.L239
.L249:
	.loc 1 1026 106 discriminator 8 view .LVU1300
	.loc 1 1026 111 is_stmt 0 discriminator 8 view .LVU1301
	ldr	r3, [r4, #48]
	.loc 1 1026 109 discriminator 8 view .LVU1302
	ldr	r1, [r4, #52]
	cmp	r3, r1
	.loc 1 1026 151 is_stmt 1 discriminator 8 view .LVU1303
	.loc 1 1026 168 is_stmt 0 discriminator 8 view .LVU1304
	addcc	r1, r3, #1
	strcc	r1, [r4, #48]
	.loc 1 1026 173 discriminator 8 view .LVU1305
	strbcc	r2, [r3]
	.loc 1 1026 238 discriminator 8 view .LVU1306
	ldr	r3, [r4, #68]
	.loc 1 1026 203 discriminator 8 view .LVU1307
	ldrcc	r2, [r4, #72]
	.loc 1 1026 202 is_stmt 1 discriminator 8 view .LVU1308
	.loc 1 1026 238 is_stmt 0 discriminator 8 view .LVU1309
	sub	r3, r3, #8
	.loc 1 1026 218 discriminator 8 view .LVU1310
	lsr	r2, r2, #8
	.loc 1 1026 98 discriminator 8 view .LVU1311
	cmp	r3, #7
	.loc 1 1026 218 discriminator 8 view .LVU1312
	str	r2, [r4, #72]
	.loc 1 1026 225 is_stmt 1 discriminator 8 view .LVU1313
	.loc 1 1026 238 is_stmt 0 discriminator 8 view .LVU1314
	str	r3, [r4, #68]
	.loc 1 1026 98 is_stmt 1 discriminator 8 view .LVU1315
	bhi	.L249
	b	.L239
.LVL302:
.L304:
	.loc 1 1026 98 is_stmt 0 discriminator 8 view .LVU1316
.LBE1500:
.LBE1506:
	mov	r0, #3
.LVL303:
	.loc 1 1026 98 discriminator 8 view .LVU1317
	b	.L232
.LVL304:
.L255:
	.loc 1 1026 98 discriminator 8 view .LVU1318
	mov	r9, r5
	str	r2, [sp, #16]
	b	.L198
.LVL305:
.L302:
.LBB1507:
	.loc 1 985 71 is_stmt 1 view .LVU1319
	add	r2, r6, r9, lsl #1
	.loc 1 985 106 is_stmt 0 view .LVU1320
	add	r2, r2, #34304
	.loc 1 985 108 view .LVU1321
	ldrh	r0, [r2, #18]
	.loc 1 985 246 view .LVU1322
	mov	r1, r9
	.loc 1 985 108 view .LVU1323
	add	r0, r0, r7
	.loc 1 985 106 view .LVU1324
	strh	r0, [r2, #18]	@ movhi
	.loc 1 985 176 is_stmt 1 view .LVU1325
	.loc 1 985 183 view .LVU1326
.LVL306:
	.loc 1 985 246 is_stmt 0 view .LVU1327
	add	r0, sp, #344
	add	r0, r0, r5
	mov	r2, r7
	str	r3, [sp, #20]
	.loc 1 985 242 view .LVU1328
	add	r5, r5, r7
.LVL307:
	.loc 1 985 246 view .LVU1329
	bl	memset
.LVL308:
	.loc 1 985 246 view .LVU1330
	ldr	r3, [sp, #20]
	b	.L212
.LVL309:
.L297:
	.loc 1 985 246 view .LVU1331
.LBE1507:
	mov	r10, #1
.LVL310:
	.loc 1 985 246 view .LVU1332
	b	.L295
.LVL311:
.L216:
	.loc 1 998 265 is_stmt 1 discriminator 4 view .LVU1333
	.loc 1 998 374 is_stmt 0 discriminator 4 view .LVU1334
	mov	r1, #16
	.loc 1 998 288 discriminator 4 view .LVU1335
	ldr	r3, [sp, #8]
	.loc 1 998 425 discriminator 4 view .LVU1336
	sub	r7, r7, #3
.LVL312:
	.loc 1 998 288 discriminator 4 view .LVU1337
	add	r2, r3, #1584
	.loc 1 998 290 discriminator 4 view .LVU1338
	ldrh	r3, [r2, #2]
	add	r3, r3, #1
	.loc 1 998 288 discriminator 4 view .LVU1339
	strh	r3, [r2, #2]	@ movhi
	.loc 1 998 331 is_stmt 1 discriminator 4 view .LVU1340
.LVL313:
	.loc 1 998 374 is_stmt 0 discriminator 4 view .LVU1341
	add	r3, r5, #648
	add	r3, r3, r1
	add	r3, sp, r3
	.loc 1 998 423 discriminator 4 view .LVU1342
	strb	r7, [r3, #-319]
	.loc 1 998 374 discriminator 4 view .LVU1343
	strb	r1, [r3, #-320]
	.loc 1 998 380 is_stmt 1 discriminator 4 view .LVU1344
.LVL314:
	.loc 1 998 419 is_stmt 0 discriminator 4 view .LVU1345
	add	r5, r5, #2
.LVL315:
	.loc 1 998 419 discriminator 4 view .LVU1346
	b	.L217
.LVL316:
.L311:
	.loc 1 1002 53 is_stmt 1 view .LVU1347
	.loc 1 1002 75 is_stmt 0 view .LVU1348
	ldr	r2, [sp, #8]
	.loc 1 1002 192 view .LVU1349
	mov	r1, r7
	.loc 1 1002 75 view .LVU1350
	add	r0, r2, #1552
	.loc 1 1002 77 view .LVU1351
	ldrh	r2, [r0, #2]
	add	r2, r2, r10
	.loc 1 1002 75 view .LVU1352
	strh	r2, [r0, #2]	@ movhi
	.loc 1 1002 127 is_stmt 1 view .LVU1353
	.loc 1 1002 134 view .LVU1354
.LVL317:
	.loc 1 1002 192 is_stmt 0 view .LVU1355
	add	r0, sp, #344
	mov	r2, r10
	add	r0, r0, r5
	.loc 1 1002 188 view .LVU1356
	add	r5, r5, r10
.LVL318:
	.loc 1 1002 192 view .LVU1357
	bl	memset
.LVL319:
	.loc 1 1002 192 view .LVU1358
	b	.L217
.LVL320:
.L224:
	.loc 1 1009 8 is_stmt 1 view .LVU1359
	.loc 1 1010 5 view .LVU1360
.LBB1508:
	.loc 1 1010 10 view .LVU1361
	.loc 1 1010 45 view .LVU1362
	.loc 1 1010 4 view .LVU1363
	.loc 1 1010 6 view .LVU1364
	.loc 1 1010 22 is_stmt 0 view .LVU1365
	orr	r3, r3, r6, lsl r1
	.loc 1 1010 62 view .LVU1366
	add	ip, ip, #10
	str	ip, [r4, #68]
	.loc 1 1010 22 view .LVU1367
	str	r3, [r4, #72]
	.loc 1 1010 49 is_stmt 1 view .LVU1368
	.loc 1 1010 70 view .LVU1369
	.loc 1 1010 90 view .LVU1370
	b	.L229
.LVL321:
.L254:
	.loc 1 1010 90 is_stmt 0 view .LVU1371
.LBE1508:
	.loc 1 954 24 view .LVU1372
	ldr	r9, .L313+24
	b	.L196
.LVL322:
.L219:
	.loc 1 1002 427 is_stmt 1 discriminator 9 view .LVU1373
	.loc 1 1002 450 is_stmt 0 discriminator 9 view .LVU1374
	add	r1, r3, #1584
	.loc 1 1002 587 discriminator 9 view .LVU1375
	sub	r2, r2, #11
	uxtb	r3, r2
	.loc 1 1002 452 discriminator 9 view .LVU1376
	ldrh	r2, [r1, #6]
	add	r2, r2, #1
	.loc 1 1002 450 discriminator 9 view .LVU1377
	strh	r2, [r1, #6]	@ movhi
	.loc 1 1002 493 is_stmt 1 discriminator 9 view .LVU1378
.LVL323:
	.loc 1 1002 542 discriminator 9 view .LVU1379
	.loc 1 1002 587 is_stmt 0 discriminator 9 view .LVU1380
	mov	r1, #18
	b	.L220
.LVL324:
.L312:
.LBB1509:
.LBB1501:
	.loc 1 1026 26 discriminator 1 view .LVU1381
	ldr	r3, .L313+28
.LVL325:
	.loc 1 1026 26 discriminator 1 view .LVU1382
	ldr	r2, .L313+32
	ldr	r1, .L313+36
	ldr	r0, .L313+40
	bl	__assert_func
.LVL326:
.L308:
	.loc 1 1026 26 discriminator 1 view .LVU1383
.LBE1501:
	.loc 1 1023 22 discriminator 1 view .LVU1384
	ldr	r3, .L313+44
	ldr	r2, .L313+32
	ldr	r1, .L313+48
	ldr	r0, .L313+40
	bl	__assert_func
.LVL327:
.L309:
.LBB1502:
	.loc 1 1024 22 discriminator 1 view .LVU1385
	mov	r1, #1024
.LVL328:
	.loc 1 1024 22 discriminator 1 view .LVU1386
	ldr	r3, .L313+28
	ldr	r2, .L313+32
.LVL329:
	.loc 1 1024 22 discriminator 1 view .LVU1387
	ldr	r0, .L313+40
	bl	__assert_func
.LVL330:
.L306:
	.loc 1 1024 22 discriminator 1 view .LVU1388
.LBE1502:
.LBE1509:
.LBB1510:
	.loc 1 1018 22 discriminator 1 view .LVU1389
	ldr	r3, .L313+28
	ldr	r2, .L313+32
	ldr	r1, .L313+52
.LVL331:
	.loc 1 1018 22 discriminator 1 view .LVU1390
	ldr	r0, .L313+40
	bl	__assert_func
.LVL332:
.L314:
	.loc 1 1018 22 discriminator 1 view .LVU1391
	.align	2
.L313:
	.word	257
	.word	285
	.word	32530
	.word	.LANCHOR0+19
	.word	.LANCHOR0
	.word	.LC3
	.word	286
	.word	.LC0
	.word	.LANCHOR0+20
	.word	1026
	.word	.LC1
	.word	.LC2
	.word	1023
	.word	1018
.LBE1510:
	.cfi_endproc
.LFE29:
	.size	tdefl_start_dynamic_block, .-tdefl_start_dynamic_block
	.section	.rodata.str1.4
	.align	2
.LC4:
	.ascii	"d->m_huff_code_sizes[0][s_tdefl_len_sym[match_len]]"
	.ascii	"\000"
	.align	2
.LC5:
	.ascii	"d->m_huff_code_sizes[1][sym]\000"
	.align	2
.LC6:
	.ascii	"d->m_huff_code_sizes[0][lit]\000"
	.section	.text.tdefl_compress_block,"ax",%progbits
	.align	2
	.syntax unified
	.arm
	.type	tdefl_compress_block, %function
tdefl_compress_block:
.LVL333:
.LFB32:
	.loc 1 1198 1 is_stmt 1 view -0
	.cfi_startproc
	@ args = 0, pretend = 0, frame = 0
	@ frame_needed = 0, uses_anonymous_args = 0
	.loc 1 1199 5 view .LVU1393
	.loc 1 1198 1 is_stmt 0 view .LVU1394
	push	{r4, r5, r6, r7, r8, r9, lr}
	.cfi_def_cfa_offset 28
	.cfi_offset 4, -28
	.cfi_offset 5, -24
	.cfi_offset 6, -20
	.cfi_offset 7, -16
	.cfi_offset 8, -12
	.cfi_offset 9, -8
	.cfi_offset 14, -4
	.loc 1 1199 8 view .LVU1395
	cmp	r1, #0
	.loc 1 1198 1 view .LVU1396
	mov	r4, r0
	sub	sp, sp, #12
	.cfi_def_cfa_offset 40
	.loc 1 1199 8 view .LVU1397
	beq	.L316
	.loc 1 1200 9 is_stmt 1 view .LVU1398
.LVL334:
.LBB1524:
.LBI1524:
	.loc 1 1030 13 view .LVU1399
.LBB1525:
	.loc 1 1032 5 view .LVU1400
	.loc 1 1033 5 view .LVU1401
	.loc 1 1035 5 view .LVU1402
	.loc 1 1035 19 view .LVU1403
	.loc 1 1036 14 is_stmt 0 view .LVU1404
	add	r6, r0, #36608
	mov	r2, #144
	mov	r1, #8
.LVL335:
	.loc 1 1036 14 view .LVU1405
	add	r0, r6, #18
.LVL336:
	.loc 1 1036 14 view .LVU1406
	bl	memset
.LVL337:
	.loc 1 1038 11 view .LVU1407
	add	r5, r4, #36864
	.loc 1 1038 14 view .LVU1408
	mov	r2, #112
	mov	r1, #9
	add	r0, r6, #162
	bl	memset
.LVL338:
	.loc 1 1040 14 view .LVU1409
	mov	r2, #24
	mov	r1, #7
	add	r0, r5, #18
	bl	memset
.LVL339:
	.loc 1 1042 14 view .LVU1410
	ldr	r3, .L379
	.loc 1 1044 5 view .LVU1411
	add	r0, r5, #50
	.loc 1 1042 14 view .LVU1412
	str	r3, [r5, #42]	@ unaligned
	str	r3, [r5, #46]	@ unaligned
	.loc 1 1044 5 is_stmt 1 view .LVU1413
	.loc 1 1046 5 is_stmt 0 view .LVU1414
	mov	r5, #1
	.loc 1 1044 5 view .LVU1415
	mov	r2, #32
	mov	r1, #5
	bl	memset
.LVL340:
	.loc 1 1046 5 is_stmt 1 view .LVU1416
	mov	r3, #15
	mov	r2, #288
	mov	r1, #0
	mov	r0, r4
	str	r5, [sp]
	bl	tdefl_optimize_huffman_table
.LVL341:
	.loc 1 1047 5 view .LVU1417
	mov	r3, #15
	mov	r2, #32
	mov	r1, r5
	mov	r0, r4
	str	r5, [sp]
	bl	tdefl_optimize_huffman_table
.LVL342:
	.loc 1 1049 5 view .LVU1418
.LBB1526:
	.loc 1 1049 10 view .LVU1419
	.loc 1 1049 28 view .LVU1420
	.loc 1 1049 4 view .LVU1421
	.loc 1 1049 6 view .LVU1422
	.loc 1 1049 35 is_stmt 0 view .LVU1423
	ldr	r3, [r4, #68]
	.loc 1 1049 22 view .LVU1424
	ldr	r2, [r4, #72]
	orr	r2, r2, r5, lsl r3
	.loc 1 1049 62 view .LVU1425
	add	r3, r3, #2
	.loc 1 1049 90 view .LVU1426
	cmp	r3, #7
	.loc 1 1049 22 view .LVU1427
	str	r2, [r4, #72]
	.loc 1 1049 49 is_stmt 1 view .LVU1428
	.loc 1 1049 62 is_stmt 0 view .LVU1429
	str	r3, [r4, #68]
	.loc 1 1049 70 is_stmt 1 view .LVU1430
	.loc 1 1049 90 view .LVU1431
	bls	.L318
.L317:
	.loc 1 1049 98 view .LVU1432
	.loc 1 1049 103 is_stmt 0 view .LVU1433
	ldr	r1, [r4, #48]
	.loc 1 1049 101 view .LVU1434
	ldr	r0, [r4, #52]
	cmp	r1, r0
	.loc 1 1049 143 is_stmt 1 view .LVU1435
	.loc 1 1049 160 is_stmt 0 view .LVU1436
	addcc	r3, r1, #1
	strcc	r3, [r4, #48]
	.loc 1 1049 165 view .LVU1437
	strbcc	r2, [r1]
	ldrcc	r3, [r4, #68]
	.loc 1 1049 194 is_stmt 1 view .LVU1438
	.loc 1 1049 195 is_stmt 0 view .LVU1439
	ldrcc	r2, [r4, #72]
	.loc 1 1049 230 view .LVU1440
	sub	r3, r3, #8
	.loc 1 1049 210 view .LVU1441
	lsr	r2, r2, #8
	.loc 1 1049 90 view .LVU1442
	cmp	r3, #7
	.loc 1 1049 210 view .LVU1443
	str	r2, [r4, #72]
	.loc 1 1049 217 is_stmt 1 view .LVU1444
	.loc 1 1049 230 is_stmt 0 view .LVU1445
	str	r3, [r4, #68]
	.loc 1 1049 90 is_stmt 1 view .LVU1446
	bhi	.L317
.LVL343:
.L318:
	.loc 1 1049 90 is_stmt 0 view .LVU1447
.LBE1526:
.LBE1525:
.LBE1524:
	.loc 1 1203 5 is_stmt 1 view .LVU1448
.LBB1527:
.LBI1527:
	.loc 1 1149 16 view .LVU1449
.LBB1528:
	.loc 1 1151 5 view .LVU1450
	.loc 1 1152 5 view .LVU1451
	.loc 1 1154 5 view .LVU1452
	.loc 1 1155 5 view .LVU1453
	.loc 1 1155 50 is_stmt 0 view .LVU1454
	ldr	r8, [r4, #40]
	.loc 1 1155 20 view .LVU1455
	add	r1, r4, #37376
	add	r1, r1, #114
.LVL344:
	.loc 1 1155 50 is_stmt 1 view .LVU1456
	cmp	r8, r1
	bls	.L352
	.loc 1 1154 11 is_stmt 0 view .LVU1457
	mov	r0, #1
.LBB1529:
.LBB1530:
	.loc 1 1187 25 view .LVU1458
	mov	lr, r0
.LBE1530:
.LBE1529:
.LBB1533:
	.loc 1 1165 51 view .LVU1459
	ldr	ip, .L379+4
	.loc 1 1169 16 view .LVU1460
	ldr	r5, .L379+8
.LVL345:
.L321:
	.loc 1 1169 16 view .LVU1461
.LBE1533:
	.loc 1 1157 9 is_stmt 1 view .LVU1462
	.loc 1 1158 21 is_stmt 0 view .LVU1463
	ldrb	r3, [r1]	@ zero_extendqisi2
.LVL346:
	.loc 1 1158 13 is_stmt 1 view .LVU1464
	.loc 1 1157 12 is_stmt 0 view .LVU1465
	cmp	r0, #1
	.loc 1 1158 34 view .LVU1466
	orreq	r0, r3, #256
	.loc 1 1158 31 view .LVU1467
	addeq	r1, r1, #1
.LVL347:
	.loc 1 1159 9 is_stmt 1 view .LVU1468
	.loc 1 1159 12 is_stmt 0 view .LVU1469
	tst	r0, #1
.LBB1542:
	.loc 1 1162 21 view .LVU1470
	ldrb	r7, [r1]	@ zero_extendqisi2
.LBE1542:
	.loc 1 1159 12 view .LVU1471
	beq	.L325
.LBB1543:
	.loc 1 1161 13 is_stmt 1 view .LVU1472
	.loc 1 1162 13 view .LVU1473
.LVL348:
	.loc 1 1165 51 is_stmt 0 view .LVU1474
	add	r3, ip, r7, lsl #1
	ldrh	r3, [r3, #48]
	ldrh	r6, [r1, #1]	@ unaligned
.LVL349:
	.loc 1 1163 13 is_stmt 1 view .LVU1475
	.loc 1 1165 35 is_stmt 0 view .LVU1476
	add	r2, r4, r3
	add	r2, r2, #36608
	ldrb	r8, [r2, #18]	@ zero_extendqisi2
	.loc 1 1163 23 view .LVU1477
	add	r1, r1, #3
.LVL350:
	.loc 1 1165 12 is_stmt 1 view .LVU1478
	.loc 1 1165 24 is_stmt 0 view .LVU1479
	cmp	r8, #0
	beq	.L370
	.loc 1 1166 13 is_stmt 1 view .LVU1480
.LBB1534:
	.loc 1 1166 18 view .LVU1481
	.loc 1 1166 51 is_stmt 0 view .LVU1482
	add	r3, r3, #17408
	add	r3, r3, #40
	add	r3, r4, r3, lsl #1
	.loc 1 1166 26 view .LVU1483
	ldrh	r9, [r3, #2]
.LVL351:
	.loc 1 1166 81 is_stmt 1 view .LVU1484
	.loc 1 1166 12 view .LVU1485
	.loc 1 1166 25 is_stmt 0 view .LVU1486
	lsl	r3, lr, r8
	.loc 1 1166 33 view .LVU1487
	sub	r3, r3, #1
	.loc 1 1166 24 view .LVU1488
	cmp	r9, r3
	bhi	.L371
	.loc 1 1166 14 is_stmt 1 view .LVU1489
	.loc 1 1166 43 is_stmt 0 view .LVU1490
	ldr	r3, [r4, #68]
	.loc 1 1166 30 view .LVU1491
	ldr	r2, [r4, #72]
	.loc 1 1166 70 view .LVU1492
	add	r8, r8, r3
.LVL352:
	.loc 1 1166 30 view .LVU1493
	orr	r2, r2, r9, lsl r3
	.loc 1 1166 98 view .LVU1494
	cmp	r8, #7
	.loc 1 1166 70 view .LVU1495
	mov	r3, r8
	.loc 1 1166 30 view .LVU1496
	str	r2, [r4, #72]
.LVL353:
	.loc 1 1166 57 is_stmt 1 view .LVU1497
	.loc 1 1166 70 is_stmt 0 view .LVU1498
	str	r8, [r4, #68]
	.loc 1 1166 78 is_stmt 1 view .LVU1499
	.loc 1 1166 98 view .LVU1500
	bls	.L328
.LVL354:
.L330:
	.loc 1 1166 106 view .LVU1501
	.loc 1 1166 109 is_stmt 0 view .LVU1502
	ldrd	r8, [r4, #48]
	cmp	r8, r9
	.loc 1 1166 151 is_stmt 1 view .LVU1503
	.loc 1 1166 168 is_stmt 0 view .LVU1504
	addcc	r3, r8, #1
	strcc	r3, [r4, #48]
	.loc 1 1166 173 view .LVU1505
	strbcc	r2, [r8]
	ldrcc	r3, [r4, #68]
	.loc 1 1166 202 is_stmt 1 view .LVU1506
	.loc 1 1166 203 is_stmt 0 view .LVU1507
	ldrcc	r2, [r4, #72]
	.loc 1 1166 238 view .LVU1508
	sub	r3, r3, #8
	.loc 1 1166 218 view .LVU1509
	lsr	r2, r2, #8
	.loc 1 1166 98 view .LVU1510
	cmp	r3, #7
	.loc 1 1166 238 view .LVU1511
	mov	r8, r3
	.loc 1 1166 218 view .LVU1512
	str	r2, [r4, #72]
	.loc 1 1166 225 is_stmt 1 view .LVU1513
	.loc 1 1166 238 is_stmt 0 view .LVU1514
	str	r3, [r4, #68]
	.loc 1 1166 98 is_stmt 1 view .LVU1515
	bhi	.L330
.L328:
	.loc 1 1166 98 is_stmt 0 view .LVU1516
.LBE1534:
	.loc 1 1166 16 is_stmt 1 view .LVU1517
	.loc 1 1167 13 view .LVU1518
.LBB1535:
	.loc 1 1167 18 view .LVU1519
	.loc 1 1167 74 is_stmt 0 view .LVU1520
	add	r3, ip, r7
	ldrb	r3, [r3, #584]	@ zero_extendqisi2
	.loc 1 1167 56 view .LVU1521
	add	r2, ip, r3, lsl #2
	.loc 1 1167 26 view .LVU1522
	ldr	r2, [r2, #840]
	.loc 1 1167 25 view .LVU1523
	lsl	r9, lr, r3
	.loc 1 1167 26 view .LVU1524
	and	r7, r7, r2
.LVL355:
	.loc 1 1167 88 is_stmt 1 view .LVU1525
	.loc 1 1167 12 view .LVU1526
	.loc 1 1167 33 is_stmt 0 view .LVU1527
	sub	r2, r9, #1
	.loc 1 1167 24 view .LVU1528
	cmp	r7, r2
	bhi	.L372
	.loc 1 1167 14 is_stmt 1 view .LVU1529
	.loc 1 1167 30 is_stmt 0 view .LVU1530
	ldr	r2, [r4, #72]
	.loc 1 1167 70 view .LVU1531
	add	r3, r3, r8
.LVL356:
	.loc 1 1167 30 view .LVU1532
	orr	r2, r2, r7, lsl r8
	.loc 1 1167 98 view .LVU1533
	cmp	r3, #7
	.loc 1 1167 30 view .LVU1534
	str	r2, [r4, #72]
	.loc 1 1167 57 is_stmt 1 view .LVU1535
	.loc 1 1167 70 is_stmt 0 view .LVU1536
	str	r3, [r4, #68]
	.loc 1 1167 78 is_stmt 1 view .LVU1537
	.loc 1 1167 98 view .LVU1538
	bls	.L332
.LVL357:
.L334:
	.loc 1 1167 106 view .LVU1539
	.loc 1 1167 111 is_stmt 0 view .LVU1540
	ldr	r3, [r4, #48]
	.loc 1 1167 109 view .LVU1541
	ldr	r7, [r4, #52]
	cmp	r3, r7
	.loc 1 1167 151 is_stmt 1 view .LVU1542
	.loc 1 1167 168 is_stmt 0 view .LVU1543
	addcc	r7, r3, #1
	strcc	r7, [r4, #48]
	.loc 1 1167 173 view .LVU1544
	strbcc	r2, [r3]
	.loc 1 1167 238 view .LVU1545
	ldr	r3, [r4, #68]
	.loc 1 1167 203 view .LVU1546
	ldrcc	r2, [r4, #72]
	.loc 1 1167 202 is_stmt 1 view .LVU1547
	.loc 1 1167 238 is_stmt 0 view .LVU1548
	sub	r3, r3, #8
	.loc 1 1167 218 view .LVU1549
	lsr	r2, r2, #8
	.loc 1 1167 98 view .LVU1550
	cmp	r3, #7
	.loc 1 1167 218 view .LVU1551
	str	r2, [r4, #72]
	.loc 1 1167 225 is_stmt 1 view .LVU1552
	.loc 1 1167 238 is_stmt 0 view .LVU1553
	str	r3, [r4, #68]
	.loc 1 1167 98 is_stmt 1 view .LVU1554
	bhi	.L334
.L332:
	.loc 1 1167 98 is_stmt 0 view .LVU1555
.LBE1535:
	.loc 1 1167 16 is_stmt 1 view .LVU1556
	.loc 1 1169 13 view .LVU1557
	.loc 1 1169 16 is_stmt 0 view .LVU1558
	cmp	r6, r5
	.loc 1 1171 17 is_stmt 1 view .LVU1559
	.loc 1 1171 45 is_stmt 0 view .LVU1560
	addls	r2, ip, r6
	.loc 1 1176 45 view .LVU1561
	addhi	r2, ip, r6, lsr #8
	.loc 1 1171 21 view .LVU1562
	ldrbls	r8, [r2, #908]	@ zero_extendqisi2
.LVL358:
	.loc 1 1172 17 is_stmt 1 view .LVU1563
	.loc 1 1176 21 is_stmt 0 view .LVU1564
	ldrbhi	r8, [r2, #1932]	@ zero_extendqisi2
.LVL359:
	.loc 1 1172 32 view .LVU1565
	ldrbls	r7, [r2, #1420]	@ zero_extendqisi2
.LVL360:
	.loc 1 1176 17 is_stmt 1 view .LVU1566
	.loc 1 1177 17 view .LVU1567
	.loc 1 1177 32 is_stmt 0 view .LVU1568
	ldrbhi	r7, [r2, #2060]	@ zero_extendqisi2
.LVL361:
	.loc 1 1179 12 is_stmt 1 view .LVU1569
	.loc 1 1179 35 is_stmt 0 view .LVU1570
	add	r2, r4, r8
	add	r2, r2, #36864
	ldrb	r2, [r2, #50]	@ zero_extendqisi2
	.loc 1 1179 24 view .LVU1571
	cmp	r2, #0
	beq	.L373
	.loc 1 1180 13 is_stmt 1 view .LVU1572
.LBB1536:
	.loc 1 1180 18 view .LVU1573
	.loc 1 1180 51 is_stmt 0 view .LVU1574
	add	r8, r8, #17664
.LVL362:
	.loc 1 1180 51 view .LVU1575
	add	r8, r8, #72
.LVL363:
	.loc 1 1180 51 view .LVU1576
	add	r8, r4, r8, lsl #1
.LVL364:
	.loc 1 1180 26 view .LVU1577
	ldrh	r9, [r8, #2]
.LVL365:
	.loc 1 1180 58 is_stmt 1 view .LVU1578
	.loc 1 1180 12 view .LVU1579
	.loc 1 1180 25 is_stmt 0 view .LVU1580
	lsl	r8, lr, r2
	.loc 1 1180 33 view .LVU1581
	sub	r8, r8, #1
	.loc 1 1180 24 view .LVU1582
	cmp	r9, r8
	bhi	.L374
	.loc 1 1180 14 is_stmt 1 view .LVU1583
	.loc 1 1180 30 is_stmt 0 view .LVU1584
	ldr	r8, [r4, #72]
	.loc 1 1180 70 view .LVU1585
	add	r2, r2, r3
.LVL366:
	.loc 1 1180 98 view .LVU1586
	cmp	r2, #7
	.loc 1 1180 30 view .LVU1587
	orr	r3, r8, r9, lsl r3
	.loc 1 1180 70 view .LVU1588
	strd	r2, [r4, #68]
	.loc 1 1180 78 is_stmt 1 view .LVU1589
	.loc 1 1180 98 view .LVU1590
	bls	.L339
.L341:
	.loc 1 1180 106 view .LVU1591
	.loc 1 1180 111 is_stmt 0 view .LVU1592
	ldr	r2, [r4, #48]
	.loc 1 1180 109 view .LVU1593
	ldr	r8, [r4, #52]
	cmp	r2, r8
	.loc 1 1180 151 is_stmt 1 view .LVU1594
	.loc 1 1180 168 is_stmt 0 view .LVU1595
	addcc	r8, r2, #1
	strcc	r8, [r4, #48]
	.loc 1 1180 173 view .LVU1596
	strbcc	r3, [r2]
	.loc 1 1180 238 view .LVU1597
	ldr	r2, [r4, #68]
	.loc 1 1180 203 view .LVU1598
	ldrcc	r3, [r4, #72]
	.loc 1 1180 202 is_stmt 1 view .LVU1599
	.loc 1 1180 238 is_stmt 0 view .LVU1600
	sub	r2, r2, #8
	.loc 1 1180 218 view .LVU1601
	lsr	r3, r3, #8
	.loc 1 1180 98 view .LVU1602
	cmp	r2, #7
	.loc 1 1180 238 view .LVU1603
	strd	r2, [r4, #68]
	.loc 1 1180 98 is_stmt 1 view .LVU1604
	bhi	.L341
.L339:
	.loc 1 1180 98 is_stmt 0 view .LVU1605
.LBE1536:
	.loc 1 1180 16 is_stmt 1 view .LVU1606
	.loc 1 1181 13 view .LVU1607
.LBB1537:
	.loc 1 1181 18 view .LVU1608
	.loc 1 1181 57 is_stmt 0 view .LVU1609
	add	r3, ip, r7, lsl #2
	.loc 1 1181 26 view .LVU1610
	ldr	r8, [r3, #840]
	.loc 1 1181 25 view .LVU1611
	lsl	r3, lr, r7
	.loc 1 1181 26 view .LVU1612
	and	r6, r6, r8
.LVL367:
	.loc 1 1181 75 is_stmt 1 view .LVU1613
	.loc 1 1181 12 view .LVU1614
	.loc 1 1181 33 is_stmt 0 view .LVU1615
	sub	r3, r3, #1
	.loc 1 1181 24 view .LVU1616
	cmp	r6, r3
	bhi	.L375
	.loc 1 1181 14 is_stmt 1 view .LVU1617
	.loc 1 1181 30 is_stmt 0 view .LVU1618
	ldr	r3, [r4, #72]
	.loc 1 1181 70 view .LVU1619
	add	r7, r7, r2
.LVL368:
	.loc 1 1181 30 view .LVU1620
	orr	r3, r3, r6, lsl r2
	.loc 1 1181 98 view .LVU1621
	cmp	r7, #7
	.loc 1 1181 30 view .LVU1622
	str	r3, [r4, #72]
	.loc 1 1181 57 is_stmt 1 view .LVU1623
	.loc 1 1181 70 is_stmt 0 view .LVU1624
	str	r7, [r4, #68]
	.loc 1 1181 78 is_stmt 1 view .LVU1625
	.loc 1 1181 98 view .LVU1626
	bls	.L369
.LVL369:
.L345:
	.loc 1 1181 106 view .LVU1627
	.loc 1 1181 111 is_stmt 0 view .LVU1628
	ldr	r2, [r4, #48]
	.loc 1 1181 109 view .LVU1629
	ldr	r6, [r4, #52]
	cmp	r2, r6
	.loc 1 1181 151 is_stmt 1 view .LVU1630
	.loc 1 1181 168 is_stmt 0 view .LVU1631
	addcc	r6, r2, #1
	strcc	r6, [r4, #48]
	.loc 1 1181 173 view .LVU1632
	strbcc	r3, [r2]
	.loc 1 1181 238 view .LVU1633
	ldr	r2, [r4, #68]
	.loc 1 1181 203 view .LVU1634
	ldrcc	r3, [r4, #72]
	.loc 1 1181 202 is_stmt 1 view .LVU1635
	.loc 1 1181 238 is_stmt 0 view .LVU1636
	sub	r2, r2, #8
	.loc 1 1181 218 view .LVU1637
	lsr	r3, r3, #8
	.loc 1 1181 98 view .LVU1638
	cmp	r2, #7
	.loc 1 1181 238 view .LVU1639
	strd	r2, [r4, #68]
	.loc 1 1181 98 is_stmt 1 view .LVU1640
	bhi	.L345
.LVL370:
.L369:
	.loc 1 1181 98 is_stmt 0 view .LVU1641
	ldr	r8, [r4, #40]
.L351:
	.loc 1 1181 98 view .LVU1642
.LBE1537:
.LBE1543:
.LBB1544:
	.loc 1 1187 16 is_stmt 1 view .LVU1643
.LBE1544:
	.loc 1 1155 77 view .LVU1644
	.loc 1 1155 50 is_stmt 0 view .LVU1645
	cmp	r8, r1
	.loc 1 1155 77 view .LVU1646
	lsr	r0, r0, #1
.LVL371:
	.loc 1 1155 50 is_stmt 1 view .LVU1647
	bhi	.L321
.LVL372:
.L352:
	.loc 1 1191 5 view .LVU1648
.LBB1545:
	.loc 1 1191 10 view .LVU1649
	.loc 1 1191 17 is_stmt 0 view .LVU1650
	mvn	r3, #0
	.loc 1 1191 87 view .LVU1651
	add	r2, r4, #36864
	.loc 1 1191 58 view .LVU1652
	ldrb	r1, [r2, #18]	@ zero_extendqisi2
.LVL373:
	.loc 1 1191 43 view .LVU1653
	add	r2, r4, #35328
	.loc 1 1191 25 view .LVU1654
	mvn	r3, r3, lsl r1
	.loc 1 1191 18 view .LVU1655
	ldrh	r0, [r2, #82]
.LVL374:
	.loc 1 1191 50 is_stmt 1 view .LVU1656
	.loc 1 1191 4 view .LVU1657
	.loc 1 1191 16 is_stmt 0 view .LVU1658
	cmp	r0, r3
	bhi	.L376
	.loc 1 1191 6 is_stmt 1 view .LVU1659
	.loc 1 1191 35 is_stmt 0 view .LVU1660
	ldr	r3, [r4, #68]
	.loc 1 1191 22 view .LVU1661
	ldr	r2, [r4, #72]
	orr	r2, r2, r0, lsl r3
	.loc 1 1191 62 view .LVU1662
	add	r3, r1, r3
	.loc 1 1191 90 view .LVU1663
	cmp	r3, #7
.LBE1545:
	.loc 1 1193 14 view .LVU1664
	ldr	r1, [r4, #48]
.LVL375:
	.loc 1 1193 33 view .LVU1665
	ldr	r0, [r4, #52]
.LVL376:
.LBB1546:
	.loc 1 1191 22 view .LVU1666
	str	r2, [r4, #72]
	.loc 1 1191 49 is_stmt 1 view .LVU1667
	.loc 1 1191 62 is_stmt 0 view .LVU1668
	str	r3, [r4, #68]
	.loc 1 1191 70 is_stmt 1 view .LVU1669
	.loc 1 1191 90 view .LVU1670
	bls	.L353
.LVL377:
.L355:
	.loc 1 1191 98 view .LVU1671
	.loc 1 1191 101 is_stmt 0 view .LVU1672
	cmp	r1, r0
	bcs	.L354
	.loc 1 1191 143 is_stmt 1 view .LVU1673
	.loc 1 1191 160 is_stmt 0 view .LVU1674
	add	r3, r1, #1
	str	r3, [r4, #48]
	.loc 1 1191 165 view .LVU1675
	strb	r2, [r1]
	.loc 1 1191 195 view .LVU1676
	ldr	r2, [r4, #72]
.LBE1546:
	.loc 1 1193 14 view .LVU1677
	ldr	r1, [r4, #48]
	.loc 1 1193 33 view .LVU1678
	ldr	r0, [r4, #52]
	ldr	r3, [r4, #68]
.L354:
.LBB1547:
	.loc 1 1191 194 is_stmt 1 view .LVU1679
	.loc 1 1191 230 is_stmt 0 view .LVU1680
	sub	r3, r3, #8
	.loc 1 1191 210 view .LVU1681
	lsr	r2, r2, #8
	.loc 1 1191 90 view .LVU1682
	cmp	r3, #7
	.loc 1 1191 210 view .LVU1683
	str	r2, [r4, #72]
	.loc 1 1191 217 is_stmt 1 view .LVU1684
	.loc 1 1191 230 is_stmt 0 view .LVU1685
	str	r3, [r4, #68]
	.loc 1 1191 90 is_stmt 1 view .LVU1686
	bhi	.L355
.L353:
	.loc 1 1191 90 is_stmt 0 view .LVU1687
.LBE1547:
	.loc 1 1191 8 is_stmt 1 view .LVU1688
	.loc 1 1193 5 view .LVU1689
.LVL378:
	.loc 1 1193 5 is_stmt 0 view .LVU1690
.LBE1528:
.LBE1527:
	.loc 1 1204 1 view .LVU1691
	cmp	r1, r0
	movcs	r0, #0
	movcc	r0, #1
	add	sp, sp, #12
	.cfi_remember_state
	.cfi_def_cfa_offset 28
	@ sp needed
	pop	{r4, r5, r6, r7, r8, r9, pc}
.LVL379:
.L325:
	.cfi_restore_state
.LBB1555:
.LBB1553:
.LBB1548:
	.loc 1 1185 13 is_stmt 1 view .LVU1692
	.loc 1 1186 35 is_stmt 0 view .LVU1693
	add	r3, r4, r7
	add	r3, r3, #36608
	ldrb	r6, [r3, #18]	@ zero_extendqisi2
	.loc 1 1185 37 view .LVU1694
	add	r1, r1, #1
.LVL380:
	.loc 1 1186 12 is_stmt 1 view .LVU1695
	.loc 1 1186 24 is_stmt 0 view .LVU1696
	cmp	r6, #0
	beq	.L377
	.loc 1 1187 13 is_stmt 1 view .LVU1697
.LBB1531:
	.loc 1 1187 18 view .LVU1698
	.loc 1 1187 51 is_stmt 0 view .LVU1699
	add	r7, r7, #17408
	add	r7, r7, #40
	add	r7, r4, r7, lsl #1
	.loc 1 1187 26 view .LVU1700
	ldrh	r7, [r7, #2]
.LVL381:
	.loc 1 1187 58 is_stmt 1 view .LVU1701
	.loc 1 1187 12 view .LVU1702
	.loc 1 1187 25 is_stmt 0 view .LVU1703
	lsl	r3, lr, r6
	.loc 1 1187 33 view .LVU1704
	sub	r3, r3, #1
	.loc 1 1187 24 view .LVU1705
	cmp	r7, r3
	bhi	.L378
	.loc 1 1187 14 is_stmt 1 view .LVU1706
	.loc 1 1187 43 is_stmt 0 view .LVU1707
	ldr	r3, [r4, #68]
	.loc 1 1187 30 view .LVU1708
	ldr	r2, [r4, #72]
	orr	r2, r2, r7, lsl r3
	.loc 1 1187 70 view .LVU1709
	add	r3, r6, r3
	.loc 1 1187 98 view .LVU1710
	cmp	r3, #7
	.loc 1 1187 30 view .LVU1711
	str	r2, [r4, #72]
.LVL382:
	.loc 1 1187 57 is_stmt 1 view .LVU1712
	.loc 1 1187 70 is_stmt 0 view .LVU1713
	str	r3, [r4, #68]
	.loc 1 1187 78 is_stmt 1 view .LVU1714
	.loc 1 1187 98 view .LVU1715
	bls	.L351
.LVL383:
.L350:
	.loc 1 1187 106 view .LVU1716
	.loc 1 1187 109 is_stmt 0 view .LVU1717
	ldrd	r6, [r4, #48]
	cmp	r6, r7
	.loc 1 1187 151 is_stmt 1 view .LVU1718
	.loc 1 1187 168 is_stmt 0 view .LVU1719
	addcc	r3, r6, #1
	strcc	r3, [r4, #48]
	.loc 1 1187 173 view .LVU1720
	strbcc	r2, [r6]
	ldrcc	r3, [r4, #68]
	.loc 1 1187 202 is_stmt 1 view .LVU1721
	.loc 1 1187 203 is_stmt 0 view .LVU1722
	ldrcc	r2, [r4, #72]
	.loc 1 1187 238 view .LVU1723
	sub	r3, r3, #8
	.loc 1 1187 218 view .LVU1724
	lsr	r2, r2, #8
	.loc 1 1187 98 view .LVU1725
	cmp	r3, #7
	.loc 1 1187 218 view .LVU1726
	str	r2, [r4, #72]
	.loc 1 1187 225 is_stmt 1 view .LVU1727
	.loc 1 1187 238 is_stmt 0 view .LVU1728
	str	r3, [r4, #68]
	.loc 1 1187 98 is_stmt 1 view .LVU1729
	bhi	.L350
	b	.L369
.LVL384:
.L316:
	.loc 1 1187 98 is_stmt 0 view .LVU1730
.LBE1531:
.LBE1548:
.LBE1553:
.LBE1555:
	.loc 1 1202 9 is_stmt 1 view .LVU1731
	bl	tdefl_start_dynamic_block
.LVL385:
	.loc 1 1202 9 is_stmt 0 view .LVU1732
	b	.L318
.LVL386:
.L370:
.LBB1556:
.LBB1554:
.LBB1549:
	.loc 1 1165 26 view .LVU1733
	ldr	r3, .L379+12
	ldr	r2, .L379+16
	ldr	r1, .L379+20
.LVL387:
	.loc 1 1165 26 view .LVU1734
	ldr	r0, .L379+24
.LVL388:
	.loc 1 1165 26 view .LVU1735
	bl	__assert_func
.LVL389:
.L378:
	.loc 1 1165 26 view .LVU1736
.LBE1549:
.LBB1550:
.LBB1532:
	.loc 1 1187 26 view .LVU1737
	ldr	r3, .L379+28
	ldr	r2, .L379+16
	ldr	r1, .L379+32
.LVL390:
	.loc 1 1187 26 view .LVU1738
	ldr	r0, .L379+24
.LVL391:
	.loc 1 1187 26 view .LVU1739
	bl	__assert_func
.LVL392:
.L377:
	.loc 1 1187 26 view .LVU1740
.LBE1532:
	.loc 1 1186 26 view .LVU1741
	ldr	r3, .L379+36
	ldr	r2, .L379+16
	ldr	r1, .L379+40
.LVL393:
	.loc 1 1186 26 view .LVU1742
	ldr	r0, .L379+24
.LVL394:
	.loc 1 1186 26 view .LVU1743
	bl	__assert_func
.LVL395:
.L376:
	.loc 1 1186 26 view .LVU1744
.LBE1550:
.LBB1551:
	.loc 1 1191 18 view .LVU1745
	ldr	r3, .L379+28
	ldr	r2, .L379+16
	ldr	r1, .L379+44
.LVL396:
	.loc 1 1191 18 view .LVU1746
	ldr	r0, .L379+24
.LVL397:
	.loc 1 1191 18 view .LVU1747
	bl	__assert_func
.LVL398:
.L375:
	.loc 1 1191 18 view .LVU1748
.LBE1551:
.LBB1552:
.LBB1538:
	.loc 1 1181 26 view .LVU1749
	ldr	r3, .L379+28
	ldr	r2, .L379+16
	ldr	r1, .L379+48
.LVL399:
	.loc 1 1181 26 view .LVU1750
	ldr	r0, .L379+24
.LVL400:
	.loc 1 1181 26 view .LVU1751
	bl	__assert_func
.LVL401:
.L374:
	.loc 1 1181 26 view .LVU1752
.LBE1538:
.LBB1539:
	.loc 1 1180 26 view .LVU1753
	ldr	r3, .L379+28
	ldr	r2, .L379+16
.LVL402:
	.loc 1 1180 26 view .LVU1754
	ldr	r1, .L379+52
.LVL403:
	.loc 1 1180 26 view .LVU1755
	ldr	r0, .L379+24
.LVL404:
	.loc 1 1180 26 view .LVU1756
	bl	__assert_func
.LVL405:
.L373:
	.loc 1 1180 26 view .LVU1757
.LBE1539:
	.loc 1 1179 26 view .LVU1758
	ldr	r3, .L379+56
	ldr	r2, .L379+16
	ldr	r1, .L379+60
.LVL406:
	.loc 1 1179 26 view .LVU1759
	ldr	r0, .L379+24
.LVL407:
	.loc 1 1179 26 view .LVU1760
	bl	__assert_func
.LVL408:
.L372:
.LBB1540:
	.loc 1 1167 26 view .LVU1761
	ldr	r3, .L379+28
.LVL409:
	.loc 1 1167 26 view .LVU1762
	ldr	r2, .L379+16
	ldr	r1, .L379+64
.LVL410:
	.loc 1 1167 26 view .LVU1763
	ldr	r0, .L379+24
.LVL411:
	.loc 1 1167 26 view .LVU1764
	bl	__assert_func
.LVL412:
.L371:
	.loc 1 1167 26 view .LVU1765
.LBE1540:
.LBB1541:
	.loc 1 1166 26 view .LVU1766
	ldr	r3, .L379+28
	ldr	r2, .L379+16
	ldr	r1, .L379+68
.LVL413:
	.loc 1 1166 26 view .LVU1767
	ldr	r0, .L379+24
.LVL414:
	.loc 1 1166 26 view .LVU1768
	bl	__assert_func
.LVL415:
.L380:
	.loc 1 1166 26 view .LVU1769
	.align	2
.L379:
	.word	134744072
	.word	.LANCHOR0
	.word	511
	.word	.LC4
	.word	.LANCHOR0+560
	.word	1165
	.word	.LC1
	.word	.LC0
	.word	1187
	.word	.LC6
	.word	1186
	.word	1191
	.word	1181
	.word	1180
	.word	.LC5
	.word	1179
	.word	1167
	.word	1166
.LBE1541:
.LBE1552:
.LBE1554:
.LBE1556:
	.cfi_endproc
.LFE32:
	.size	tdefl_compress_block, .-tdefl_compress_block
	.section	.rodata.str1.4
	.align	2
.LC7:
	.ascii	"!d->m_output_flush_remaining\000"
	.align	2
.LC8:
	.ascii	"d->m_pOutput_buf < d->m_pOutput_buf_end\000"
	.section	.text.tdefl_flush_block,"ax",%progbits
	.align	2
	.syntax unified
	.arm
	.type	tdefl_flush_block, %function
tdefl_flush_block:
.LVL416:
.LFB33:
	.loc 1 1207 1 is_stmt 1 view -0
	.cfi_startproc
	@ args = 0, pretend = 0, frame = 0
	@ frame_needed = 0, uses_anonymous_args = 0
	.loc 1 1208 5 view .LVU1771
	.loc 1 1209 5 view .LVU1772
	.loc 1 1210 5 view .LVU1773
	.loc 1 1211 5 view .LVU1774
	.loc 1 1211 41 is_stmt 0 view .LVU1775
	ldr	r3, [r0, #8]
	.loc 1 1207 1 view .LVU1776
	push	{r4, r5, r6, r7, r8, r9, r10, lr}
	.cfi_def_cfa_offset 32
	.cfi_offset 4, -32
	.cfi_offset 5, -28
	.cfi_offset 6, -24
	.cfi_offset 7, -20
	.cfi_offset 8, -16
	.cfi_offset 9, -12
	.cfi_offset 10, -8
	.cfi_offset 14, -4
	.loc 1 1211 77 view .LVU1777
	ands	r3, r3, #524288
	.loc 1 1207 1 view .LVU1778
	mov	r4, r0
	mov	r8, r1
	.loc 1 1211 77 view .LVU1779
	beq	.L382
	.loc 1 1211 100 discriminator 1 view .LVU1780
	ldr	r3, [r0, #28]
	ldr	r1, [r0, #64]
.LVL417:
	.loc 1 1211 77 discriminator 1 view .LVU1781
	ldr	r2, [r0, #36]
	.loc 1 1211 100 discriminator 1 view .LVU1782
	sub	r3, r3, r1
	.loc 1 1211 77 discriminator 1 view .LVU1783
	cmp	r3, r2
	movhi	r3, #0
	movls	r3, #1
.L382:
.LVL418:
	.loc 1 1212 5 is_stmt 1 discriminator 6 view .LVU1784
	.loc 1 1212 182 is_stmt 0 discriminator 6 view .LVU1785
	ldr	r2, [r4]
	cmp	r2, #0
	beq	.L487
.LVL419:
.L383:
	.loc 1 1212 182 discriminator 4 view .LVU1786
	ldr	r6, .L498
	add	r6, r4, r6
.L384:
.LVL420:
	.loc 1 1214 5 is_stmt 1 discriminator 6 view .LVU1787
	.loc 1 1217 6 is_stmt 0 discriminator 6 view .LVU1788
	ldr	r7, [r4, #92]
	.loc 1 1215 66 discriminator 6 view .LVU1789
	add	r2, r6, #84992
	add	r2, r2, #188
	.loc 1 1217 16 discriminator 6 view .LVU1790
	cmp	r7, #0
	.loc 1 1214 22 discriminator 6 view .LVU1791
	str	r6, [r4, #48]
	.loc 1 1215 5 is_stmt 1 discriminator 6 view .LVU1792
	.loc 1 1215 26 is_stmt 0 discriminator 6 view .LVU1793
	str	r2, [r4, #52]
	.loc 1 1217 4 is_stmt 1 discriminator 6 view .LVU1794
	.loc 1 1217 16 is_stmt 0 discriminator 6 view .LVU1795
	bne	.L488
	.loc 1 1218 5 is_stmt 1 view .LVU1796
	.loc 1 1219 5 view .LVU1797
	.loc 1 1221 36 is_stmt 0 view .LVU1798
	ldr	r1, [r4, #44]
	.loc 1 1218 27 view .LVU1799
	str	r7, [r4, #88]	@ unaligned
	str	r7, [r4, #92]	@ unaligned
	.loc 1 1221 5 is_stmt 1 view .LVU1800
	.loc 1 1221 34 is_stmt 0 view .LVU1801
	ldrb	r2, [r1]	@ zero_extendqisi2
	.loc 1 1221 50 view .LVU1802
	ldr	r0, [r4, #56]
	asr	r2, r2, r0
	.loc 1 1221 23 view .LVU1803
	strb	r2, [r1]
	.loc 1 1222 5 is_stmt 1 view .LVU1804
	.loc 1 1222 23 is_stmt 0 view .LVU1805
	ldr	r2, [r4, #40]
	.loc 1 1222 47 view .LVU1806
	ldr	r1, [r4, #56]
	.loc 1 1222 23 view .LVU1807
	cmp	r1, #8
	subeq	r2, r2, #1
	str	r2, [r4, #40]
	.loc 1 1224 5 is_stmt 1 view .LVU1808
	.loc 1 1224 21 is_stmt 0 view .LVU1809
	ldr	r2, [r4, #8]
	.loc 1 1224 8 view .LVU1810
	tst	r2, #4096
	beq	.L386
	.loc 1 1224 48 discriminator 1 view .LVU1811
	ldr	r2, [r4, #100]
.LBB1557:
	.loc 1 1226 11 discriminator 1 view .LVU1812
	ldr	r5, [r4, #72]
.LBE1557:
	.loc 1 1224 48 discriminator 1 view .LVU1813
	cmp	r2, #0
.LBB1558:
	.loc 1 1226 39 discriminator 1 view .LVU1814
	ldr	r9, [r4, #68]
.LBE1558:
	.loc 1 1224 48 discriminator 1 view .LVU1815
	bne	.L484
	.loc 1 1226 9 is_stmt 1 discriminator 2 view .LVU1816
.LBB1559:
	.loc 1 1226 14 discriminator 2 view .LVU1817
.LVL421:
	.loc 1 1226 35 discriminator 2 view .LVU1818
	.loc 1 1226 8 discriminator 2 view .LVU1819
	.loc 1 1226 10 discriminator 2 view .LVU1820
	.loc 1 1226 35 is_stmt 0 discriminator 2 view .LVU1821
	mov	r2, #120
	.loc 1 1226 26 discriminator 2 view .LVU1822
	orr	r5, r5, r2, lsl r9
	.loc 1 1226 66 discriminator 2 view .LVU1823
	add	r2, r9, #8
	.loc 1 1226 94 discriminator 2 view .LVU1824
	cmp	r2, #7
.LBE1559:
.LBB1560:
	.loc 1 1227 107 discriminator 2 view .LVU1825
	ldr	r10, [r4, #48]
	.loc 1 1227 126 discriminator 2 view .LVU1826
	ldr	r0, [r4, #52]
.LBE1560:
.LBB1561:
	.loc 1 1226 26 discriminator 2 view .LVU1827
	str	r5, [r4, #72]
	.loc 1 1226 53 is_stmt 1 discriminator 2 view .LVU1828
	.loc 1 1226 66 is_stmt 0 discriminator 2 view .LVU1829
	str	r2, [r4, #68]
	.loc 1 1226 74 is_stmt 1 discriminator 2 view .LVU1830
	.loc 1 1226 94 discriminator 2 view .LVU1831
	bls	.L389
.L391:
	.loc 1 1226 102 discriminator 8 view .LVU1832
	.loc 1 1226 105 is_stmt 0 discriminator 8 view .LVU1833
	cmp	r10, r0
	bcs	.L390
	.loc 1 1226 147 is_stmt 1 discriminator 4 view .LVU1834
	.loc 1 1226 164 is_stmt 0 discriminator 4 view .LVU1835
	add	r2, r10, #1
	str	r2, [r4, #48]
	.loc 1 1226 169 discriminator 4 view .LVU1836
	strb	r5, [r10]
	.loc 1 1226 199 discriminator 4 view .LVU1837
	ldr	r5, [r4, #72]
.LBE1561:
.LBB1562:
	.loc 1 1227 107 discriminator 4 view .LVU1838
	ldr	r10, [r4, #48]
	.loc 1 1227 126 discriminator 4 view .LVU1839
	ldr	r0, [r4, #52]
.L390:
	.loc 1 1227 126 discriminator 4 view .LVU1840
.LBE1562:
.LBB1563:
	.loc 1 1226 198 is_stmt 1 discriminator 6 view .LVU1841
	.loc 1 1226 222 is_stmt 0 discriminator 6 view .LVU1842
	ldr	r9, [r4, #68]
	.loc 1 1226 214 discriminator 6 view .LVU1843
	lsr	r5, r5, #8
	.loc 1 1226 234 discriminator 6 view .LVU1844
	sub	r2, r9, #8
	.loc 1 1226 94 discriminator 6 view .LVU1845
	cmp	r2, #7
	.loc 1 1226 214 discriminator 6 view .LVU1846
	str	r5, [r4, #72]
	.loc 1 1226 221 is_stmt 1 discriminator 6 view .LVU1847
	.loc 1 1226 234 is_stmt 0 discriminator 6 view .LVU1848
	str	r2, [r4, #68]
	.loc 1 1226 94 is_stmt 1 discriminator 6 view .LVU1849
	bhi	.L391
.L392:
	.loc 1 1226 94 is_stmt 0 discriminator 6 view .LVU1850
.LBE1563:
	.loc 1 1226 12 is_stmt 1 discriminator 2 view .LVU1851
	.loc 1 1227 9 discriminator 2 view .LVU1852
.LBB1564:
	.loc 1 1227 14 discriminator 2 view .LVU1853
.LVL422:
	.loc 1 1227 35 discriminator 2 view .LVU1854
	.loc 1 1227 8 discriminator 2 view .LVU1855
	.loc 1 1227 10 discriminator 2 view .LVU1856
	.loc 1 1227 35 is_stmt 0 discriminator 2 view .LVU1857
	mov	r1, #1
	.loc 1 1227 26 discriminator 2 view .LVU1858
	orr	r5, r5, r1, lsl r2
	.loc 1 1227 66 discriminator 2 view .LVU1859
	str	r9, [r4, #68]
	.loc 1 1227 26 discriminator 2 view .LVU1860
	str	r5, [r4, #72]
	.loc 1 1227 53 is_stmt 1 discriminator 2 view .LVU1861
	.loc 1 1227 74 discriminator 2 view .LVU1862
	.loc 1 1227 94 discriminator 2 view .LVU1863
	b	.L394
.L489:
	.loc 1 1227 126 is_stmt 0 view .LVU1864
	ldr	r0, [r4, #52]
.L394:
	.loc 1 1227 102 is_stmt 1 discriminator 8 view .LVU1865
	.loc 1 1227 105 is_stmt 0 discriminator 8 view .LVU1866
	cmp	r10, r0
	.loc 1 1227 147 is_stmt 1 discriminator 8 view .LVU1867
	.loc 1 1227 164 is_stmt 0 discriminator 8 view .LVU1868
	addcc	r2, r10, #1
	strcc	r2, [r4, #48]
	.loc 1 1227 169 discriminator 8 view .LVU1869
	strbcc	r5, [r10]
	.loc 1 1227 234 discriminator 8 view .LVU1870
	ldr	r9, [r4, #68]
	.loc 1 1227 199 discriminator 8 view .LVU1871
	ldrcc	r5, [r4, #72]
	.loc 1 1227 234 discriminator 8 view .LVU1872
	sub	r9, r9, #8
.LBE1564:
	.loc 1 1232 23 discriminator 8 view .LVU1873
	ldrcc	r10, [r4, #48]
.LBB1565:
	.loc 1 1227 198 is_stmt 1 discriminator 8 view .LVU1874
	.loc 1 1227 214 is_stmt 0 discriminator 8 view .LVU1875
	lsr	r5, r5, #8
	.loc 1 1227 94 discriminator 8 view .LVU1876
	cmp	r9, #7
	.loc 1 1227 214 discriminator 8 view .LVU1877
	str	r5, [r4, #72]
	.loc 1 1227 221 is_stmt 1 discriminator 8 view .LVU1878
	.loc 1 1227 234 is_stmt 0 discriminator 8 view .LVU1879
	str	r9, [r4, #68]
	.loc 1 1227 94 is_stmt 1 discriminator 8 view .LVU1880
	bhi	.L489
	b	.L388
.LVL423:
.L386:
	.loc 1 1227 94 is_stmt 0 discriminator 8 view .LVU1881
.LBE1565:
.LBB1566:
	.loc 1 1226 11 view .LVU1882
	ldr	r5, [r4, #72]
	.loc 1 1226 39 view .LVU1883
	ldr	r9, [r4, #68]
.L484:
	.loc 1 1226 39 view .LVU1884
.LBE1566:
	.loc 1 1232 23 view .LVU1885
	ldr	r10, [r4, #48]
.L388:
	.loc 1 1227 12 is_stmt 1 discriminator 9 view .LVU1886
	.loc 1 1230 5 discriminator 9 view .LVU1887
.LBB1567:
	.loc 1 1230 10 discriminator 9 view .LVU1888
.LVL424:
	.loc 1 1230 48 discriminator 9 view .LVU1889
	.loc 1 1230 4 discriminator 9 view .LVU1890
	.loc 1 1230 6 discriminator 9 view .LVU1891
	.loc 1 1230 31 is_stmt 0 discriminator 9 view .LVU1892
	sub	r2, r8, #4
	clz	r2, r2
	lsr	r2, r2, #5
	.loc 1 1230 22 discriminator 9 view .LVU1893
	orr	r5, r5, r2, lsl r9
	.loc 1 1230 62 discriminator 9 view .LVU1894
	add	r9, r9, #1
	.loc 1 1230 90 discriminator 9 view .LVU1895
	cmp	r9, #7
	.loc 1 1230 22 discriminator 9 view .LVU1896
	str	r5, [r4, #72]
	.loc 1 1230 49 is_stmt 1 discriminator 9 view .LVU1897
	.loc 1 1230 62 is_stmt 0 discriminator 9 view .LVU1898
	str	r9, [r4, #68]
	.loc 1 1230 70 is_stmt 1 discriminator 9 view .LVU1899
	.loc 1 1230 90 discriminator 9 view .LVU1900
	bls	.L395
.L397:
	.loc 1 1230 98 discriminator 8 view .LVU1901
	.loc 1 1230 101 is_stmt 0 discriminator 8 view .LVU1902
	ldr	r0, [r4, #52]
	cmp	r0, r10
	.loc 1 1230 143 is_stmt 1 discriminator 8 view .LVU1903
	.loc 1 1230 160 is_stmt 0 discriminator 8 view .LVU1904
	addhi	r2, r10, #1
	strhi	r2, [r4, #48]
	.loc 1 1230 165 discriminator 8 view .LVU1905
	strbhi	r5, [r10]
	.loc 1 1230 230 discriminator 8 view .LVU1906
	ldr	r9, [r4, #68]
	.loc 1 1230 195 discriminator 8 view .LVU1907
	ldrhi	r5, [r4, #72]
	.loc 1 1230 230 discriminator 8 view .LVU1908
	sub	r9, r9, #8
.LBE1567:
	.loc 1 1232 23 discriminator 8 view .LVU1909
	ldrhi	r10, [r4, #48]
.LBB1568:
	.loc 1 1230 194 is_stmt 1 discriminator 8 view .LVU1910
	.loc 1 1230 210 is_stmt 0 discriminator 8 view .LVU1911
	lsr	r5, r5, #8
	.loc 1 1230 90 discriminator 8 view .LVU1912
	cmp	r9, #7
	.loc 1 1230 210 discriminator 8 view .LVU1913
	str	r5, [r4, #72]
	.loc 1 1230 217 is_stmt 1 discriminator 8 view .LVU1914
	.loc 1 1230 230 is_stmt 0 discriminator 8 view .LVU1915
	str	r9, [r4, #68]
	.loc 1 1230 90 is_stmt 1 discriminator 8 view .LVU1916
	bhi	.L397
.L395:
	.loc 1 1230 90 is_stmt 0 discriminator 8 view .LVU1917
.LBE1568:
	.loc 1 1230 8 is_stmt 1 discriminator 9 view .LVU1918
	.loc 1 1232 5 discriminator 9 view .LVU1919
.LVL425:
	.loc 1 1233 5 discriminator 9 view .LVU1920
	.loc 1 1234 5 discriminator 9 view .LVU1921
	.loc 1 1236 5 discriminator 9 view .LVU1922
	.loc 1 1236 8 is_stmt 0 discriminator 9 view .LVU1923
	cmp	r3, #0
	beq	.L398
.LVL426:
	.loc 1 1241 30 view .LVU1924
	ldr	r2, [r4, #64]
	ldr	r3, [r4, #28]
.LVL427:
	.loc 1 1241 30 view .LVU1925
	sub	r3, r3, r2
	.loc 1 1240 126 view .LVU1926
	ldr	r2, [r4, #36]
	cmp	r3, r2
	bls	.L399
.LVL428:
.L420:
	.loc 1 1263 9 is_stmt 1 view .LVU1927
	.loc 1 1265 9 is_stmt 0 view .LVU1928
	mov	r1, #1
	mov	r0, r4
	.loc 1 1263 26 view .LVU1929
	str	r10, [r4, #48]
	.loc 1 1264 9 is_stmt 1 view .LVU1930
	.loc 1 1264 25 is_stmt 0 view .LVU1931
	str	r5, [r4, #72]
	.loc 1 1264 55 view .LVU1932
	str	r9, [r4, #68]
	.loc 1 1265 9 is_stmt 1 view .LVU1933
	bl	tdefl_compress_block
.LVL429:
	ldr	ip, [r4, #48]
	ldr	r0, [r4, #52]
.LVL430:
.L400:
	.loc 1 1268 5 view .LVU1934
	.loc 1 1268 8 is_stmt 0 view .LVU1935
	cmp	r8, #0
	.loc 1 1301 5 view .LVU1936
	moveq	r5, ip
	.loc 1 1268 8 view .LVU1937
	beq	.L427
	.loc 1 1270 9 is_stmt 1 view .LVU1938
	.loc 1 1270 12 is_stmt 0 view .LVU1939
	cmp	r8, #4
	.loc 1 1272 18 view .LVU1940
	ldr	r3, [r4, #68]
	.loc 1 1270 12 view .LVU1941
	beq	.L490
.LBB1569:
	.loc 1 1288 13 is_stmt 1 discriminator 2 view .LVU1942
.LVL431:
	.loc 1 1289 13 discriminator 2 view .LVU1943
.LBB1570:
	.loc 1 1289 18 discriminator 2 view .LVU1944
	.loc 1 1289 36 discriminator 2 view .LVU1945
	.loc 1 1289 12 discriminator 2 view .LVU1946
	.loc 1 1289 14 discriminator 2 view .LVU1947
	.loc 1 1289 57 discriminator 2 view .LVU1948
	.loc 1 1289 70 is_stmt 0 discriminator 2 view .LVU1949
	add	r3, r3, #3
	.loc 1 1289 98 discriminator 2 view .LVU1950
	cmp	r3, #7
.LBE1570:
.LBE1569:
	.loc 1 1301 5 discriminator 2 view .LVU1951
	mov	r5, ip
.LBB1580:
.LBB1571:
	.loc 1 1296 19 discriminator 2 view .LVU1952
	ldr	r2, [r4, #72]
.LBE1571:
.LBB1572:
	.loc 1 1289 70 discriminator 2 view .LVU1953
	str	r3, [r4, #68]
	.loc 1 1289 78 is_stmt 1 discriminator 2 view .LVU1954
	.loc 1 1289 98 discriminator 2 view .LVU1955
	bls	.L432
.L434:
	.loc 1 1289 106 discriminator 8 view .LVU1956
	.loc 1 1289 109 is_stmt 0 discriminator 8 view .LVU1957
	cmp	r5, r0
	bcs	.L433
	.loc 1 1289 151 is_stmt 1 discriminator 4 view .LVU1958
	.loc 1 1289 168 is_stmt 0 discriminator 4 view .LVU1959
	add	r3, r5, #1
	str	r3, [r4, #48]
	.loc 1 1289 173 discriminator 4 view .LVU1960
	strb	r2, [r5]
	.loc 1 1289 203 discriminator 4 view .LVU1961
	ldr	r2, [r4, #72]
.LBE1572:
.LBE1580:
	.loc 1 1301 5 discriminator 4 view .LVU1962
	ldr	r5, [r4, #48]
	.loc 1 1301 24 discriminator 4 view .LVU1963
	ldr	r0, [r4, #52]
.L433:
.LBB1581:
.LBB1573:
	.loc 1 1289 202 is_stmt 1 discriminator 6 view .LVU1964
	.loc 1 1289 238 is_stmt 0 discriminator 6 view .LVU1965
	ldr	r3, [r4, #68]
	.loc 1 1289 218 discriminator 6 view .LVU1966
	lsr	r2, r2, #8
	.loc 1 1289 238 discriminator 6 view .LVU1967
	sub	r3, r3, #8
	.loc 1 1289 98 discriminator 6 view .LVU1968
	cmp	r3, #7
	.loc 1 1289 218 discriminator 6 view .LVU1969
	str	r2, [r4, #72]
	.loc 1 1289 225 is_stmt 1 discriminator 6 view .LVU1970
	.loc 1 1289 238 is_stmt 0 discriminator 6 view .LVU1971
	str	r3, [r4, #68]
	.loc 1 1289 98 is_stmt 1 discriminator 6 view .LVU1972
	bhi	.L434
.L432:
	.loc 1 1289 98 is_stmt 0 discriminator 6 view .LVU1973
.LBE1573:
	.loc 1 1289 16 is_stmt 1 discriminator 9 view .LVU1974
	.loc 1 1290 13 discriminator 9 view .LVU1975
	.loc 1 1290 16 is_stmt 0 discriminator 9 view .LVU1976
	cmp	r3, #0
	bne	.L491
.LBB1574:
	.loc 1 1296 47 view .LVU1977
	ldr	r3, [r4, #68]
.L438:
.LVL432:
	.loc 1 1296 47 view .LVU1978
	mov	r1, #2
.LBE1574:
	.loc 1 1294 35 view .LVU1979
	ldr	ip, .L498+4
.L442:
.LVL433:
	.loc 1 1296 17 is_stmt 1 view .LVU1980
.LBB1575:
	.loc 1 1296 22 view .LVU1981
	.loc 1 1296 49 view .LVU1982
	.loc 1 1296 16 view .LVU1983
	.loc 1 1296 18 view .LVU1984
	.loc 1 1296 34 is_stmt 0 view .LVU1985
	orr	r2, r2, r7, lsl r3
	.loc 1 1296 74 view .LVU1986
	add	r3, r3, #16
	.loc 1 1296 102 view .LVU1987
	cmp	r3, #7
	.loc 1 1296 74 view .LVU1988
	str	r3, [r4, #68]
	.loc 1 1296 34 view .LVU1989
	str	r2, [r4, #72]
	.loc 1 1296 61 is_stmt 1 view .LVU1990
	.loc 1 1296 82 view .LVU1991
	.loc 1 1296 102 view .LVU1992
	bls	.L439
.L441:
	.loc 1 1296 110 discriminator 8 view .LVU1993
	.loc 1 1296 113 is_stmt 0 discriminator 8 view .LVU1994
	cmp	r5, r0
	bcs	.L440
	.loc 1 1296 155 is_stmt 1 discriminator 4 view .LVU1995
	.loc 1 1296 172 is_stmt 0 discriminator 4 view .LVU1996
	add	r3, r5, #1
	str	r3, [r4, #48]
	.loc 1 1296 177 discriminator 4 view .LVU1997
	strb	r2, [r5]
	.loc 1 1296 207 discriminator 4 view .LVU1998
	ldr	r2, [r4, #72]
.LBE1575:
.LBE1581:
	.loc 1 1301 5 discriminator 4 view .LVU1999
	ldr	r5, [r4, #48]
	.loc 1 1301 24 discriminator 4 view .LVU2000
	ldr	r0, [r4, #52]
.L440:
.LBB1582:
.LBB1576:
	.loc 1 1296 206 is_stmt 1 discriminator 6 view .LVU2001
	.loc 1 1296 242 is_stmt 0 discriminator 6 view .LVU2002
	ldr	r3, [r4, #68]
	.loc 1 1296 222 discriminator 6 view .LVU2003
	lsr	r2, r2, #8
	.loc 1 1296 242 discriminator 6 view .LVU2004
	sub	r3, r3, #8
	.loc 1 1296 102 discriminator 6 view .LVU2005
	cmp	r3, #7
	.loc 1 1296 222 discriminator 6 view .LVU2006
	str	r2, [r4, #72]
	.loc 1 1296 229 is_stmt 1 discriminator 6 view .LVU2007
	.loc 1 1296 242 is_stmt 0 discriminator 6 view .LVU2008
	str	r3, [r4, #68]
	.loc 1 1296 102 is_stmt 1 discriminator 6 view .LVU2009
	bhi	.L441
.L439:
	.loc 1 1296 102 is_stmt 0 discriminator 6 view .LVU2010
.LBE1576:
	.loc 1 1296 20 is_stmt 1 discriminator 9 view .LVU2011
	.loc 1 1294 31 discriminator 9 view .LVU2012
.LVL434:
	.loc 1 1294 25 discriminator 9 view .LVU2013
	cmp	r1, #1
	beq	.L427
.LBB1577:
	.loc 1 1296 47 is_stmt 0 view .LVU2014
	mov	r1, #1
	.loc 1 1296 19 view .LVU2015
	ldr	r2, [r4, #72]
	.loc 1 1296 47 view .LVU2016
	ldr	r3, [r4, #68]
.LBE1577:
	.loc 1 1294 35 view .LVU2017
	eor	r7, r7, ip
.LVL435:
	.loc 1 1294 35 view .LVU2018
	b	.L442
.LVL436:
.L490:
	.loc 1 1294 35 view .LVU2019
.LBE1582:
	.loc 1 1272 13 is_stmt 1 view .LVU2020
	.loc 1 1272 16 is_stmt 0 view .LVU2021
	cmp	r3, #0
	.loc 1 1301 5 view .LVU2022
	moveq	r5, ip
	.loc 1 1272 16 view .LVU2023
	beq	.L426
	.loc 1 1274 17 is_stmt 1 view .LVU2024
.LBB1583:
	.loc 1 1274 22 view .LVU2025
.LVL437:
	.loc 1 1274 40 view .LVU2026
	.loc 1 1274 16 view .LVU2027
	.loc 1 1274 18 view .LVU2028
	.loc 1 1274 61 view .LVU2029
	.loc 1 1274 74 is_stmt 0 view .LVU2030
	mov	r3, #8
	.loc 1 1274 115 view .LVU2031
	mov	r5, ip
	.loc 1 1274 189 view .LVU2032
	ldr	r2, [r4, #72]
	.loc 1 1274 74 view .LVU2033
	str	r3, [r4, #68]
.LVL438:
	.loc 1 1274 82 is_stmt 1 view .LVU2034
	.loc 1 1274 102 view .LVU2035
.L425:
	.loc 1 1274 110 discriminator 8 view .LVU2036
	.loc 1 1274 113 is_stmt 0 discriminator 8 view .LVU2037
	cmp	r5, r0
	bcs	.L424
	.loc 1 1274 155 is_stmt 1 discriminator 4 view .LVU2038
	.loc 1 1274 172 is_stmt 0 discriminator 4 view .LVU2039
	add	r3, r5, #1
	str	r3, [r4, #48]
	.loc 1 1274 177 discriminator 4 view .LVU2040
	strb	r2, [r5]
	.loc 1 1274 207 discriminator 4 view .LVU2041
	ldr	r2, [r4, #72]
.LBE1583:
	.loc 1 1301 5 discriminator 4 view .LVU2042
	ldr	r5, [r4, #48]
	.loc 1 1301 24 discriminator 4 view .LVU2043
	ldr	r0, [r4, #52]
.L424:
.LBB1584:
	.loc 1 1274 206 is_stmt 1 discriminator 6 view .LVU2044
	.loc 1 1274 242 is_stmt 0 discriminator 6 view .LVU2045
	ldr	r3, [r4, #68]
	.loc 1 1274 222 discriminator 6 view .LVU2046
	lsr	r2, r2, #8
	.loc 1 1274 242 discriminator 6 view .LVU2047
	sub	r3, r3, #8
	.loc 1 1274 102 discriminator 6 view .LVU2048
	cmp	r3, #7
	.loc 1 1274 222 discriminator 6 view .LVU2049
	str	r2, [r4, #72]
	.loc 1 1274 229 is_stmt 1 discriminator 6 view .LVU2050
	.loc 1 1274 242 is_stmt 0 discriminator 6 view .LVU2051
	str	r3, [r4, #68]
	.loc 1 1274 102 is_stmt 1 discriminator 6 view .LVU2052
	bhi	.L425
.LVL439:
.L426:
	.loc 1 1274 102 is_stmt 0 discriminator 6 view .LVU2053
.LBE1584:
	.loc 1 1274 20 is_stmt 1 discriminator 9 view .LVU2054
	.loc 1 1276 13 discriminator 9 view .LVU2055
	.loc 1 1276 28 is_stmt 0 discriminator 9 view .LVU2056
	ldr	r2, [r4, #8]
	.loc 1 1276 16 discriminator 9 view .LVU2057
	tst	r2, #4096
	beq	.L427
.LBB1585:
	.loc 1 1278 17 is_stmt 1 view .LVU2058
	.loc 1 1278 28 is_stmt 0 view .LVU2059
	mov	ip, #4
	ldr	r1, [r4, #24]
.LVL440:
	.loc 1 1279 17 is_stmt 1 view .LVU2060
	.loc 1 1279 31 view .LVU2061
.L431:
	.loc 1 1281 21 view .LVU2062
.LBB1586:
	.loc 1 1281 26 view .LVU2063
	.loc 1 1281 59 view .LVU2064
	.loc 1 1281 20 view .LVU2065
	.loc 1 1281 22 view .LVU2066
	.loc 1 1281 38 is_stmt 0 view .LVU2067
	ldr	r2, [r4, #72]
	.loc 1 1281 34 view .LVU2068
	lsr	lr, r1, #24
.LVL441:
	.loc 1 1281 38 view .LVU2069
	orr	r2, r2, lr, lsl r3
	.loc 1 1281 78 view .LVU2070
	add	r3, r3, #8
	.loc 1 1281 106 view .LVU2071
	cmp	r3, #7
	.loc 1 1281 38 view .LVU2072
	str	r2, [r4, #72]
	.loc 1 1281 65 is_stmt 1 view .LVU2073
	.loc 1 1281 78 is_stmt 0 view .LVU2074
	str	r3, [r4, #68]
	.loc 1 1281 86 is_stmt 1 view .LVU2075
	.loc 1 1281 106 view .LVU2076
	bls	.L428
.L430:
	.loc 1 1281 114 discriminator 8 view .LVU2077
	.loc 1 1281 117 is_stmt 0 discriminator 8 view .LVU2078
	cmp	r5, r0
	bcs	.L429
	.loc 1 1281 159 is_stmt 1 discriminator 4 view .LVU2079
	.loc 1 1281 176 is_stmt 0 discriminator 4 view .LVU2080
	add	r3, r5, #1
	str	r3, [r4, #48]
	.loc 1 1281 181 discriminator 4 view .LVU2081
	strb	r2, [r5]
	.loc 1 1281 211 discriminator 4 view .LVU2082
	ldr	r2, [r4, #72]
.LBE1586:
.LBE1585:
	.loc 1 1301 5 discriminator 4 view .LVU2083
	ldr	r5, [r4, #48]
	.loc 1 1301 24 discriminator 4 view .LVU2084
	ldr	r0, [r4, #52]
	ldr	r3, [r4, #68]
.L429:
.LBB1588:
.LBB1587:
	.loc 1 1281 210 is_stmt 1 discriminator 6 view .LVU2085
	.loc 1 1281 246 is_stmt 0 discriminator 6 view .LVU2086
	sub	r3, r3, #8
	.loc 1 1281 226 discriminator 6 view .LVU2087
	lsr	r2, r2, #8
	.loc 1 1281 106 discriminator 6 view .LVU2088
	cmp	r3, #7
	.loc 1 1281 226 discriminator 6 view .LVU2089
	str	r2, [r4, #72]
	.loc 1 1281 233 is_stmt 1 discriminator 6 view .LVU2090
	.loc 1 1281 246 is_stmt 0 discriminator 6 view .LVU2091
	str	r3, [r4, #68]
	.loc 1 1281 106 is_stmt 1 discriminator 6 view .LVU2092
	bhi	.L430
.L428:
	.loc 1 1281 106 is_stmt 0 discriminator 6 view .LVU2093
.LBE1587:
	.loc 1 1281 24 is_stmt 1 discriminator 9 view .LVU2094
	.loc 1 1282 21 discriminator 9 view .LVU2095
	.loc 1 1279 31 is_stmt 0 discriminator 9 view .LVU2096
	subs	ip, ip, #1
	.loc 1 1282 23 discriminator 9 view .LVU2097
	lsl	r1, r1, #8
.LVL442:
	.loc 1 1279 37 is_stmt 1 discriminator 9 view .LVU2098
	.loc 1 1279 31 discriminator 9 view .LVU2099
	bne	.L431
.LVL443:
.L427:
	.loc 1 1279 31 is_stmt 0 discriminator 9 view .LVU2100
.LBE1588:
	.loc 1 1301 4 is_stmt 1 view .LVU2101
	.loc 1 1301 16 is_stmt 0 view .LVU2102
	cmp	r5, r0
	bcs	.L492
	.loc 1 1303 5 is_stmt 1 view .LVU2103
	add	r0, r4, #33024
	mov	r2, #576
	mov	r1, #0
	add	r0, r0, #146
	bl	memset
.LVL444:
	.loc 1 1304 5 view .LVU2104
	add	r0, r4, #33536
	mov	r2, #64
	mov	r1, #0
	add	r0, r0, #210
	bl	memset
.LVL445:
	.loc 1 1306 5 view .LVU2105
	.loc 1 1308 25 is_stmt 0 view .LVU2106
	mov	r0, #8
	mov	r1, #0
	.loc 1 1306 42 view .LVU2107
	add	r3, r4, #37376
	add	r2, r3, #115
	.loc 1 1307 22 view .LVU2108
	add	r3, r3, #114
	.loc 1 1306 23 view .LVU2109
	str	r2, [r4, #40]
	.loc 1 1307 5 is_stmt 1 view .LVU2110
	.loc 1 1307 20 is_stmt 0 view .LVU2111
	str	r3, [r4, #44]
	.loc 1 1308 5 is_stmt 1 view .LVU2112
	.loc 1 1309 5 view .LVU2113
	.loc 1 1309 31 is_stmt 0 view .LVU2114
	ldr	r2, [r4, #64]
	ldr	r3, [r4, #60]
	.loc 1 1313 8 view .LVU2115
	subs	r5, r5, r6
	.loc 1 1309 31 view .LVU2116
	add	r3, r2, r3
	str	r3, [r4, #64]
	.loc 1 1310 5 is_stmt 1 view .LVU2117
	.loc 1 1311 21 is_stmt 0 view .LVU2118
	ldr	r3, [r4, #100]
	.loc 1 1308 25 view .LVU2119
	str	r0, [r4, #56]	@ unaligned
	.loc 1 1311 21 view .LVU2120
	add	r3, r3, #1
	str	r3, [r4, #100]
	.loc 1 1308 25 view .LVU2121
	str	r1, [r4, #60]	@ unaligned
	.loc 1 1311 5 is_stmt 1 view .LVU2122
	.loc 1 1313 5 view .LVU2123
.LVL446:
	.loc 1 1313 8 is_stmt 0 view .LVU2124
	beq	.L486
	.loc 1 1315 9 is_stmt 1 view .LVU2125
	.loc 1 1315 14 is_stmt 0 view .LVU2126
	ldr	r7, [r4]
	.loc 1 1212 182 view .LVU2127
	ldr	r0, .L498
	.loc 1 1315 12 view .LVU2128
	cmp	r7, #0
	.loc 1 1212 182 view .LVU2129
	add	r0, r4, r0
	.loc 1 1315 12 view .LVU2130
	beq	.L446
	.loc 1 1317 13 is_stmt 1 view .LVU2131
	.loc 1 1317 44 is_stmt 0 view .LVU2132
	ldr	r3, [r4, #132]
	ldr	ip, [r4, #112]
	.loc 1 1317 32 view .LVU2133
	ldr	r2, [r4, #120]
	.loc 1 1317 44 view .LVU2134
	sub	r3, r3, ip
	.loc 1 1317 32 view .LVU2135
	str	r3, [r2]
	.loc 1 1318 13 is_stmt 1 view .LVU2136
	.loc 1 1318 19 is_stmt 0 view .LVU2137
	mov	r1, r5
	ldr	r2, [r4, #4]
	blx	r7
.LVL447:
	.loc 1 1318 16 view .LVU2138
	cmp	r0, #0
	beq	.L447
.LVL448:
.L486:
	.loc 1 1338 13 view .LVU2139
	ldr	r0, [r4, #92]
	pop	{r4, r5, r6, r7, r8, r9, r10, pc}
.LVL449:
.L398:
	.loc 1 1237 9 is_stmt 1 view .LVU2140
	.loc 1 1237 68 is_stmt 0 view .LVU2141
	ldr	r3, [r4, #8]
.LVL450:
	.loc 1 1237 32 view .LVU2142
	tst	r3, #262144
	movne	r1, #1
	bne	.L403
	.loc 1 1237 32 discriminator 2 view .LVU2143
	ldr	r1, [r4, #60]
	cmp	r1, #47
	movhi	r1, #0
	movls	r1, #1
.L403:
	.loc 1 1237 32 discriminator 6 view .LVU2144
	mov	r0, r4
	bl	tdefl_compress_block
.LVL451:
	.loc 1 1240 32 discriminator 6 view .LVU2145
	ldr	r3, [r4, #60]
	.loc 1 1240 26 discriminator 6 view .LVU2146
	cmp	r3, #0
.LVL452:
	.loc 1 1240 5 is_stmt 1 discriminator 6 view .LVU2147
	.loc 1 1240 26 is_stmt 0 discriminator 6 view .LVU2148
	beq	.L404
	.loc 1 1240 74 discriminator 3 view .LVU2149
	ldr	ip, [r4, #48]
	sub	r2, ip, r10
	.loc 1 1240 94 discriminator 3 view .LVU2150
	add	r2, r2, #1
	.loc 1 1240 52 discriminator 3 view .LVU2151
	cmp	r3, r2
	bls	.L493
.LVL453:
.L404:
	.loc 1 1261 10 is_stmt 1 view .LVU2152
	.loc 1 1261 13 is_stmt 0 view .LVU2153
	cmp	r0, #0
	beq	.L420
	ldr	ip, [r4, #48]
	ldr	r0, [r4, #52]
	b	.L400
.LVL454:
.L493:
	.loc 1 1241 30 discriminator 4 view .LVU2154
	ldr	r2, [r4, #64]
	ldr	r3, [r4, #28]
	sub	r3, r3, r2
	.loc 1 1240 126 discriminator 4 view .LVU2155
	ldr	r2, [r4, #36]
	cmp	r3, r2
	bhi	.L404
.L399:
.LBB1589:
	.loc 1 1243 9 is_stmt 1 view .LVU2156
	.loc 1 1244 9 view .LVU2157
.LBB1590:
	.loc 1 1246 66 is_stmt 0 view .LVU2158
	add	r9, r9, #2
.LVL455:
	.loc 1 1246 94 view .LVU2159
	cmp	r9, #7
	ldr	r0, [r4, #52]
	.loc 1 1246 66 view .LVU2160
	str	r9, [r4, #68]
.LBE1590:
	.loc 1 1244 26 view .LVU2161
	str	r10, [r4, #48]
	.loc 1 1245 9 is_stmt 1 view .LVU2162
	.loc 1 1245 25 is_stmt 0 view .LVU2163
	str	r5, [r4, #72]
	.loc 1 1246 9 is_stmt 1 view .LVU2164
.LBB1591:
	.loc 1 1246 14 view .LVU2165
.LVL456:
	.loc 1 1246 32 view .LVU2166
	.loc 1 1246 8 view .LVU2167
	.loc 1 1246 10 view .LVU2168
	.loc 1 1246 53 view .LVU2169
	.loc 1 1246 74 view .LVU2170
	.loc 1 1246 94 view .LVU2171
	bhi	.L401
	b	.L402
.L494:
	.loc 1 1246 94 is_stmt 0 view .LVU2172
.LBE1591:
.LBB1592:
	.loc 1 1249 111 view .LVU2173
	ldr	r10, [r4, #48]
.L401:
	.loc 1 1249 111 view .LVU2174
.LBE1592:
.LBB1593:
	.loc 1 1246 102 is_stmt 1 discriminator 8 view .LVU2175
	.loc 1 1246 105 is_stmt 0 discriminator 8 view .LVU2176
	cmp	r0, r10
	.loc 1 1246 147 is_stmt 1 discriminator 8 view .LVU2177
	.loc 1 1246 164 is_stmt 0 discriminator 8 view .LVU2178
	addhi	r3, r10, #1
	strhi	r3, [r4, #48]
	.loc 1 1246 169 discriminator 8 view .LVU2179
	strbhi	r5, [r10]
	.loc 1 1246 234 discriminator 8 view .LVU2180
	ldr	r3, [r4, #68]
	.loc 1 1246 199 discriminator 8 view .LVU2181
	ldrhi	r5, [r4, #72]
	.loc 1 1246 234 discriminator 8 view .LVU2182
	sub	r3, r3, #8
	ldrhi	r0, [r4, #52]
	.loc 1 1246 198 is_stmt 1 discriminator 8 view .LVU2183
	.loc 1 1246 214 is_stmt 0 discriminator 8 view .LVU2184
	lsr	r5, r5, #8
	.loc 1 1246 94 discriminator 8 view .LVU2185
	cmp	r3, #7
	.loc 1 1246 214 discriminator 8 view .LVU2186
	str	r5, [r4, #72]
	.loc 1 1246 221 is_stmt 1 discriminator 8 view .LVU2187
	.loc 1 1246 234 is_stmt 0 discriminator 8 view .LVU2188
	str	r3, [r4, #68]
	.loc 1 1246 94 is_stmt 1 discriminator 8 view .LVU2189
	bhi	.L494
.LBE1593:
	.loc 1 1246 12 discriminator 9 view .LVU2190
	.loc 1 1247 9 discriminator 9 view .LVU2191
	.loc 1 1247 12 is_stmt 0 discriminator 9 view .LVU2192
	cmp	r3, #0
	bne	.L495
.L407:
.LBB1594:
	.loc 1 1253 34 view .LVU2193
	mov	r1, #2
	ldr	r9, [r4, #60]
.LVL457:
	.loc 1 1253 34 view .LVU2194
	ldr	ip, [r4, #48]
.LBE1594:
	.loc 1 1251 49 view .LVU2195
	ldr	lr, .L498+4
.L414:
	.loc 1 1253 13 is_stmt 1 view .LVU2196
.LBB1595:
	.loc 1 1253 18 view .LVU2197
.LVL458:
	.loc 1 1253 63 view .LVU2198
	.loc 1 1253 12 view .LVU2199
	.loc 1 1253 14 view .LVU2200
	.loc 1 1253 70 is_stmt 0 view .LVU2201
	add	r2, r3, #16
	.loc 1 1253 98 view .LVU2202
	cmp	r2, #7
	.loc 1 1253 70 view .LVU2203
	str	r2, [r4, #68]
	.loc 1 1253 26 view .LVU2204
	uxth	r2, r9
	.loc 1 1253 30 view .LVU2205
	orr	r2, r5, r2, lsl r3
	str	r2, [r4, #72]
	.loc 1 1253 57 is_stmt 1 view .LVU2206
	.loc 1 1253 78 view .LVU2207
	.loc 1 1253 98 view .LVU2208
	bls	.L453
.L412:
	.loc 1 1253 106 discriminator 8 view .LVU2209
	.loc 1 1253 109 is_stmt 0 discriminator 8 view .LVU2210
	cmp	ip, r0
	bcs	.L411
	.loc 1 1253 151 is_stmt 1 discriminator 4 view .LVU2211
	.loc 1 1253 168 is_stmt 0 discriminator 4 view .LVU2212
	add	r3, ip, #1
	str	r3, [r4, #48]
	.loc 1 1253 173 discriminator 4 view .LVU2213
	strb	r2, [ip]
	.loc 1 1253 203 discriminator 4 view .LVU2214
	ldr	r2, [r4, #72]
	ldr	ip, [r4, #48]
	ldr	r0, [r4, #52]
.L411:
	.loc 1 1253 202 is_stmt 1 discriminator 6 view .LVU2215
	.loc 1 1253 238 is_stmt 0 discriminator 6 view .LVU2216
	ldr	r3, [r4, #68]
	.loc 1 1253 218 discriminator 6 view .LVU2217
	lsr	r2, r2, #8
	.loc 1 1253 238 discriminator 6 view .LVU2218
	sub	r3, r3, #8
	.loc 1 1253 98 discriminator 6 view .LVU2219
	cmp	r3, #7
	.loc 1 1253 218 discriminator 6 view .LVU2220
	str	r2, [r4, #72]
	.loc 1 1253 225 is_stmt 1 discriminator 6 view .LVU2221
	.loc 1 1253 238 is_stmt 0 discriminator 6 view .LVU2222
	str	r3, [r4, #68]
	.loc 1 1253 98 is_stmt 1 discriminator 6 view .LVU2223
	bhi	.L412
.LBE1595:
	.loc 1 1251 30 is_stmt 0 view .LVU2224
	ldr	r3, [r4, #60]
.L410:
	.loc 1 1253 16 is_stmt 1 discriminator 9 view .LVU2225
	.loc 1 1251 27 discriminator 9 view .LVU2226
.LVL459:
	.loc 1 1251 49 is_stmt 0 discriminator 9 view .LVU2227
	eor	r9, r3, lr
.LVL460:
	.loc 1 1251 21 discriminator 9 view .LVU2228
	cmp	r1, #1
	.loc 1 1251 49 discriminator 9 view .LVU2229
	str	r9, [r4, #60]
	.loc 1 1251 21 is_stmt 1 discriminator 9 view .LVU2230
.LBB1596:
	.loc 1 1257 43 is_stmt 0 view .LVU2231
	movne	r1, #1
	.loc 1 1257 15 view .LVU2232
	ldrne	r5, [r4, #72]
	.loc 1 1257 43 view .LVU2233
	ldrne	r3, [r4, #68]
	bne	.L414
.L413:
.LVL461:
	.loc 1 1257 43 view .LVU2234
.LBE1596:
	.loc 1 1255 23 is_stmt 1 view .LVU2235
	cmp	r3, lr
	beq	.L400
	.loc 1 1255 16 is_stmt 0 view .LVU2236
	mov	r1, #0
	ldr	r3, [r4, #68]
.LBB1597:
	.loc 1 1257 75 view .LVU2237
	ldr	lr, .L498+8
.LVL462:
.L415:
	.loc 1 1257 75 view .LVU2238
.LBE1597:
	.loc 1 1257 13 is_stmt 1 view .LVU2239
.LBB1598:
	.loc 1 1257 18 view .LVU2240
	.loc 1 1257 103 view .LVU2241
	.loc 1 1257 12 view .LVU2242
	.loc 1 1257 14 view .LVU2243
	.loc 1 1257 70 is_stmt 0 view .LVU2244
	ldr	r2, [r4, #64]
	add	r2, r1, r2
	.loc 1 1257 75 view .LVU2245
	and	r2, r2, lr
	.loc 1 1257 42 view .LVU2246
	add	r2, r4, r2
	.loc 1 1257 26 view .LVU2247
	ldrb	r5, [r2, #144]	@ zero_extendqisi2
	.loc 1 1257 30 view .LVU2248
	ldr	r2, [r4, #72]
	orr	r2, r2, r5, lsl r3
	.loc 1 1257 70 view .LVU2249
	add	r3, r3, #8
	.loc 1 1257 98 view .LVU2250
	cmp	r3, #7
	.loc 1 1257 30 view .LVU2251
	str	r2, [r4, #72]
.LVL463:
	.loc 1 1257 57 is_stmt 1 view .LVU2252
	.loc 1 1257 70 is_stmt 0 view .LVU2253
	str	r3, [r4, #68]
	.loc 1 1257 78 is_stmt 1 view .LVU2254
	.loc 1 1257 98 view .LVU2255
	bls	.L419
.L416:
	.loc 1 1257 106 discriminator 8 view .LVU2256
	.loc 1 1257 109 is_stmt 0 discriminator 8 view .LVU2257
	cmp	ip, r0
	bcs	.L418
	.loc 1 1257 151 is_stmt 1 discriminator 4 view .LVU2258
	.loc 1 1257 168 is_stmt 0 discriminator 4 view .LVU2259
	add	r3, ip, #1
	str	r3, [r4, #48]
	.loc 1 1257 173 discriminator 4 view .LVU2260
	strb	r2, [ip]
	.loc 1 1257 203 discriminator 4 view .LVU2261
	ldr	r2, [r4, #72]
	ldr	r3, [r4, #68]
	ldr	ip, [r4, #48]
	ldr	r0, [r4, #52]
.L418:
	.loc 1 1257 202 is_stmt 1 discriminator 6 view .LVU2262
	.loc 1 1257 238 is_stmt 0 discriminator 6 view .LVU2263
	sub	r3, r3, #8
	.loc 1 1257 218 discriminator 6 view .LVU2264
	lsr	r2, r2, #8
	.loc 1 1257 98 discriminator 6 view .LVU2265
	cmp	r3, #7
	.loc 1 1257 218 discriminator 6 view .LVU2266
	str	r2, [r4, #72]
	.loc 1 1257 225 is_stmt 1 discriminator 6 view .LVU2267
	.loc 1 1257 238 is_stmt 0 discriminator 6 view .LVU2268
	str	r3, [r4, #68]
	.loc 1 1257 98 is_stmt 1 discriminator 6 view .LVU2269
	bhi	.L416
.L419:
	.loc 1 1257 98 is_stmt 0 discriminator 6 view .LVU2270
.LBE1598:
	.loc 1 1257 16 is_stmt 1 view .LVU2271
	.loc 1 1255 46 view .LVU2272
	.loc 1 1255 23 is_stmt 0 view .LVU2273
	ldr	r2, [r4, #60]
	.loc 1 1255 46 view .LVU2274
	add	r1, r1, #1
.LVL464:
	.loc 1 1255 23 is_stmt 1 view .LVU2275
	cmp	r2, r1
	bhi	.L415
	b	.L400
.LVL465:
.L487:
	.loc 1 1255 23 is_stmt 0 view .LVU2276
.LBE1589:
	.loc 1 1212 69 discriminator 1 view .LVU2277
	ldr	r2, [r4, #124]
	.loc 1 1212 92 discriminator 1 view .LVU2278
	ldr	r1, [r4, #140]
	.loc 1 1212 89 discriminator 1 view .LVU2279
	ldr	r2, [r2]
	.loc 1 1212 64 discriminator 1 view .LVU2280
	ldr	r0, .L498+12
.LVL466:
	.loc 1 1212 89 discriminator 1 view .LVU2281
	sub	r2, r2, r1
	.loc 1 1212 64 discriminator 1 view .LVU2282
	cmp	r2, r0
	bls	.L383
	.loc 1 1212 182 discriminator 3 view .LVU2283
	ldr	r6, [r4, #116]
	add	r6, r6, r1
	b	.L384
.LVL467:
.L491:
.LBB1602:
	.loc 1 1292 17 is_stmt 1 view .LVU2284
.LBB1578:
	.loc 1 1292 22 view .LVU2285
	.loc 1 1292 40 view .LVU2286
	.loc 1 1292 16 view .LVU2287
	.loc 1 1292 18 view .LVU2288
	.loc 1 1292 61 view .LVU2289
	.loc 1 1292 74 is_stmt 0 view .LVU2290
	mov	r3, #8
	str	r3, [r4, #68]
	.loc 1 1292 82 is_stmt 1 view .LVU2291
	.loc 1 1292 102 view .LVU2292
.L437:
	.loc 1 1292 110 discriminator 8 view .LVU2293
	.loc 1 1292 113 is_stmt 0 discriminator 8 view .LVU2294
	cmp	r5, r0
	bcs	.L436
	.loc 1 1292 155 is_stmt 1 discriminator 4 view .LVU2295
	.loc 1 1292 172 is_stmt 0 discriminator 4 view .LVU2296
	add	r3, r5, #1
	str	r3, [r4, #48]
	.loc 1 1292 177 discriminator 4 view .LVU2297
	strb	r2, [r5]
	.loc 1 1292 207 discriminator 4 view .LVU2298
	ldr	r2, [r4, #72]
.LBE1578:
.LBE1602:
	.loc 1 1301 5 discriminator 4 view .LVU2299
	ldr	r5, [r4, #48]
	.loc 1 1301 24 discriminator 4 view .LVU2300
	ldr	r0, [r4, #52]
.L436:
.LBB1603:
.LBB1579:
	.loc 1 1292 206 is_stmt 1 discriminator 6 view .LVU2301
	.loc 1 1292 242 is_stmt 0 discriminator 6 view .LVU2302
	ldr	r3, [r4, #68]
	.loc 1 1292 222 discriminator 6 view .LVU2303
	lsr	r2, r2, #8
	.loc 1 1292 242 discriminator 6 view .LVU2304
	sub	r3, r3, #8
	.loc 1 1292 102 discriminator 6 view .LVU2305
	cmp	r3, #7
	.loc 1 1292 222 discriminator 6 view .LVU2306
	str	r2, [r4, #72]
	.loc 1 1292 229 is_stmt 1 discriminator 6 view .LVU2307
	.loc 1 1292 242 is_stmt 0 discriminator 6 view .LVU2308
	str	r3, [r4, #68]
	.loc 1 1292 102 is_stmt 1 discriminator 6 view .LVU2309
	bhi	.L437
	b	.L438
.LVL468:
.L495:
	.loc 1 1292 102 is_stmt 0 discriminator 6 view .LVU2310
.LBE1579:
.LBE1603:
.LBB1604:
.LBB1599:
	.loc 1 1249 111 view .LVU2311
	ldr	r10, [r4, #48]
.L402:
	.loc 1 1249 111 view .LVU2312
.LBE1599:
	.loc 1 1249 13 is_stmt 1 view .LVU2313
.LBB1600:
	.loc 1 1249 18 view .LVU2314
.LVL469:
	.loc 1 1249 36 view .LVU2315
	.loc 1 1249 12 view .LVU2316
	.loc 1 1249 14 view .LVU2317
	.loc 1 1249 57 view .LVU2318
	.loc 1 1249 70 is_stmt 0 view .LVU2319
	mov	r3, #8
	str	r3, [r4, #68]
	.loc 1 1249 78 is_stmt 1 view .LVU2320
	.loc 1 1249 98 view .LVU2321
	b	.L409
.L496:
	.loc 1 1249 111 is_stmt 0 view .LVU2322
	ldr	r10, [r4, #48]
.L409:
	.loc 1 1249 106 is_stmt 1 discriminator 8 view .LVU2323
	.loc 1 1249 109 is_stmt 0 discriminator 8 view .LVU2324
	cmp	r0, r10
	.loc 1 1249 151 is_stmt 1 discriminator 8 view .LVU2325
	.loc 1 1249 168 is_stmt 0 discriminator 8 view .LVU2326
	addhi	r3, r10, #1
	strhi	r3, [r4, #48]
	.loc 1 1249 173 discriminator 8 view .LVU2327
	strbhi	r5, [r10]
	.loc 1 1249 238 discriminator 8 view .LVU2328
	ldr	r3, [r4, #68]
	.loc 1 1249 203 discriminator 8 view .LVU2329
	ldrhi	r5, [r4, #72]
	.loc 1 1249 238 discriminator 8 view .LVU2330
	sub	r3, r3, #8
	ldrhi	r0, [r4, #52]
	.loc 1 1249 202 is_stmt 1 discriminator 8 view .LVU2331
	.loc 1 1249 218 is_stmt 0 discriminator 8 view .LVU2332
	lsr	r5, r5, #8
	.loc 1 1249 98 discriminator 8 view .LVU2333
	cmp	r3, #7
	.loc 1 1249 218 discriminator 8 view .LVU2334
	str	r5, [r4, #72]
	.loc 1 1249 225 is_stmt 1 discriminator 8 view .LVU2335
	.loc 1 1249 238 is_stmt 0 discriminator 8 view .LVU2336
	str	r3, [r4, #68]
	.loc 1 1249 98 is_stmt 1 discriminator 8 view .LVU2337
	bhi	.L496
	b	.L407
.LVL470:
.L446:
	.loc 1 1249 98 is_stmt 0 discriminator 8 view .LVU2338
.LBE1600:
.LBE1604:
	.loc 1 1321 14 is_stmt 1 view .LVU2339
	.loc 1 1321 17 is_stmt 0 view .LVU2340
	cmp	r6, r0
.LBB1605:
	.loc 1 1323 87 view .LVU2341
	ldr	r3, [r4, #140]
.LBE1605:
	.loc 1 1321 17 view .LVU2342
	beq	.L497
	.loc 1 1334 13 is_stmt 1 view .LVU2343
	.loc 1 1334 30 is_stmt 0 view .LVU2344
	add	r3, r3, r5
	.loc 1 1338 13 view .LVU2345
	ldr	r0, [r4, #92]
	.loc 1 1338 5 is_stmt 1 view .LVU2346
	.loc 1 1334 30 is_stmt 0 view .LVU2347
	str	r3, [r4, #140]
	.loc 1 1339 1 view .LVU2348
	pop	{r4, r5, r6, r7, r8, r9, r10, pc}
.LVL471:
.L453:
.LBB1606:
.LBB1601:
	.loc 1 1253 98 view .LVU2349
	mov	r3, r9
	b	.L410
.LVL472:
.L389:
	.loc 1 1253 98 view .LVU2350
.LBE1601:
.LBE1606:
.LBB1607:
	.loc 1 1227 66 view .LVU2351
	add	r9, r9, #16
	b	.L392
.LVL473:
.L497:
	.loc 1 1227 66 view .LVU2352
.LBE1607:
.LBB1608:
	.loc 1 1323 13 is_stmt 1 view .LVU2353
	.loc 1 1323 64 is_stmt 0 view .LVU2354
	ldr	r2, [r4, #124]
	.loc 1 1324 13 view .LVU2355
	mov	r1, r6
	.loc 1 1323 84 view .LVU2356
	ldr	r6, [r2]
.LVL474:
	.loc 1 1324 13 view .LVU2357
	ldr	r0, [r4, #116]
	.loc 1 1323 84 view .LVU2358
	sub	r6, r6, r3
	.loc 1 1323 33 view .LVU2359
	cmp	r6, r5
	movcs	r6, r5
.LVL475:
	.loc 1 1324 13 is_stmt 1 view .LVU2360
	add	r0, r0, r3
	mov	r2, r6
	bl	memcpy
.LVL476:
	.loc 1 1325 13 view .LVU2361
	.loc 1 1325 30 is_stmt 0 view .LVU2362
	ldr	r3, [r4, #140]
	.loc 1 1326 16 view .LVU2363
	subs	r0, r5, r6
	.loc 1 1325 30 view .LVU2364
	add	r3, r3, r6
	str	r3, [r4, #140]
	.loc 1 1326 13 is_stmt 1 view .LVU2365
.LVL477:
	.loc 1 1326 16 is_stmt 0 view .LVU2366
	beq	.L486
	.loc 1 1328 17 is_stmt 1 view .LVU2367
	.loc 1 1328 39 is_stmt 0 view .LVU2368
	str	r6, [r4, #88]
	.loc 1 1329 17 is_stmt 1 view .LVU2369
	.loc 1 1329 45 is_stmt 0 view .LVU2370
	str	r0, [r4, #92]
	pop	{r4, r5, r6, r7, r8, r9, r10, pc}
.LVL478:
.L447:
	.loc 1 1329 45 view .LVU2371
.LBE1608:
	.loc 1 1319 17 is_stmt 1 view .LVU2372
	.loc 1 1319 49 is_stmt 0 view .LVU2373
	mvn	r3, #0
	mov	r0, r3
	strb	r3, [r4, #108]
	pop	{r4, r5, r6, r7, r8, r9, r10, pc}
.LVL479:
.L488:
	.loc 1 1217 18 discriminator 1 view .LVU2374
	ldr	r3, .L498+16
.LVL480:
	.loc 1 1217 18 discriminator 1 view .LVU2375
	ldr	r2, .L498+20
	ldr	r1, .L498+24
	ldr	r0, .L498+28
	bl	__assert_func
.LVL481:
.L492:
	.loc 1 1301 18 discriminator 1 view .LVU2376
	ldr	r3, .L498+32
	ldr	r2, .L498+20
	ldr	r1, .L498+36
	ldr	r0, .L498+28
	bl	__assert_func
.LVL482:
.L499:
	.align	2
.L498:
	.word	234098
	.word	65535
	.word	32767
	.word	85195
	.word	.LC7
	.word	.LANCHOR0+2188
	.word	1217
	.word	.LC1
	.word	.LC8
	.word	1301
	.cfi_endproc
.LFE33:
	.size	tdefl_flush_block, .-tdefl_flush_block
	.section	.rodata.str1.4
	.align	2
.LC9:
	.ascii	"pArray->m_element_size\000"
	.section	.text.mz_zip_array_ensure_capacity,"ax",%progbits
	.align	2
	.syntax unified
	.arm
	.type	mz_zip_array_ensure_capacity, %function
mz_zip_array_ensure_capacity:
.LVL483:
.LFB61:
	.loc 1 3200 1 is_stmt 1 view -0
	.cfi_startproc
	@ args = 0, pretend = 0, frame = 0
	@ frame_needed = 0, uses_anonymous_args = 0
	.loc 1 3201 5 view .LVU2378
	.loc 1 3202 5 view .LVU2379
	.loc 1 3200 1 is_stmt 0 view .LVU2380
	push	{r4, r5, r6, lr}
	.cfi_def_cfa_offset 16
	.cfi_offset 4, -16
	.cfi_offset 5, -12
	.cfi_offset 6, -8
	.cfi_offset 14, -4
	.loc 1 3200 1 view .LVU2381
	mov	r4, r2
.LVL484:
	.loc 1 3203 4 is_stmt 1 view .LVU2382
	.loc 1 3203 10 is_stmt 0 view .LVU2383
	ldr	r2, [r1, #12]
.LVL485:
	.loc 1 3203 16 view .LVU2384
	cmp	r2, #0
	beq	.L513
	.loc 1 3204 15 view .LVU2385
	ldr	ip, [r1, #8]
	mov	r5, r1
	.loc 1 3204 5 is_stmt 1 view .LVU2386
	.loc 1 3204 8 is_stmt 0 view .LVU2387
	cmp	ip, r4
	bcs	.L502
	.loc 1 3206 5 is_stmt 1 view .LVU2388
	.loc 1 3206 8 is_stmt 0 view .LVU2389
	cmp	r3, #0
	bne	.L514
.LVL486:
.L503:
	.loc 1 3212 5 is_stmt 1 view .LVU2390
	.loc 1 3212 26 is_stmt 0 view .LVU2391
	ldr	r6, [r0, #40]
	mov	r3, r4
.LVL487:
	.loc 1 3212 26 view .LVU2392
	ldr	r0, [r0, #44]
.LVL488:
	.loc 1 3212 26 view .LVU2393
	ldr	r1, [r5]
.LVL489:
	.loc 1 3212 26 view .LVU2394
	blx	r6
.LVL490:
	.loc 1 3212 8 view .LVU2395
	cmp	r0, #0
	.loc 1 3212 8 view .LVU2396
	popeq	{r4, r5, r6, pc}
	.loc 1 3214 5 is_stmt 1 view .LVU2397
	.loc 1 3214 17 is_stmt 0 view .LVU2398
	str	r0, [r5]
	.loc 1 3215 5 is_stmt 1 view .LVU2399
	.loc 1 3215 24 is_stmt 0 view .LVU2400
	str	r4, [r5, #8]
	.loc 1 3216 5 is_stmt 1 view .LVU2401
.LVL491:
.L502:
	.loc 1 3205 16 is_stmt 0 view .LVU2402
	mov	r0, #1
	.loc 1 3217 1 view .LVU2403
	pop	{r4, r5, r6, pc}
.LVL492:
.L514:
	.loc 1 3208 9 is_stmt 1 view .LVU2404
	cmp	ip, #1
	movcc	ip, #1
.LVL493:
	.loc 1 3209 29 view .LVU2405
	cmp	r4, ip
	bls	.L506
.L504:
	.loc 1 3210 13 view .LVU2406
	.loc 1 3210 26 is_stmt 0 view .LVU2407
	lsl	ip, ip, #1
.LVL494:
	.loc 1 3209 29 is_stmt 1 view .LVU2408
	cmp	r4, ip
	bhi	.L504
.L506:
	.loc 1 3209 29 is_stmt 0 view .LVU2409
	mov	r4, ip
.LVL495:
	.loc 1 3209 29 view .LVU2410
	b	.L503
.LVL496:
.L513:
	.loc 1 3203 18 discriminator 1 view .LVU2411
	ldr	r3, .L515
.LVL497:
	.loc 1 3203 18 discriminator 1 view .LVU2412
	ldr	r2, .L515+4
	ldr	r1, .L515+8
.LVL498:
	.loc 1 3203 18 discriminator 1 view .LVU2413
	ldr	r0, .L515+12
.LVL499:
	.loc 1 3203 18 discriminator 1 view .LVU2414
	bl	__assert_func
.LVL500:
.L516:
	.align	2
.L515:
	.word	.LC9
	.word	.LANCHOR0+2208
	.word	3203
	.word	.LC1
	.cfi_endproc
.LFE61:
	.size	mz_zip_array_ensure_capacity, .-mz_zip_array_ensure_capacity
	.section	.text.mz_zip_reader_end_internal,"ax",%progbits
	.align	2
	.syntax unified
	.arm
	.type	mz_zip_reader_end_internal, %function
mz_zip_reader_end_internal:
.LVL501:
.LFB77:
	.loc 1 3719 1 is_stmt 1 view -0
	.cfi_startproc
	@ args = 0, pretend = 0, frame = 0
	@ frame_needed = 0, uses_anonymous_args = 0
	.loc 1 3720 5 view .LVU2416
	.loc 1 3722 5 view .LVU2417
	.loc 1 3719 1 is_stmt 0 view .LVU2418
	push	{r4, r5, r6, r7, r8, r9, r10, lr}
	.cfi_def_cfa_offset 32
	.cfi_offset 4, -32
	.cfi_offset 5, -28
	.cfi_offset 6, -24
	.cfi_offset 7, -20
	.cfi_offset 8, -16
	.cfi_offset 9, -12
	.cfi_offset 10, -8
	.cfi_offset 14, -4
	.loc 1 3722 8 view .LVU2419
	subs	r4, r0, #0
	beq	.L518
	.loc 1 3725 15 view .LVU2420
	ldr	r5, [r4, #64]
	mov	r8, r1
	.loc 1 3725 5 is_stmt 1 view .LVU2421
	.loc 1 3725 8 is_stmt 0 view .LVU2422
	cmp	r5, #0
	beq	.L519
	.loc 1 3725 27 discriminator 1 view .LVU2423
	ldr	r3, [r4, #32]
	cmp	r3, #0
	beq	.L519
	.loc 1 3725 57 discriminator 2 view .LVU2424
	ldr	r3, [r4, #36]
	.loc 1 3725 48 discriminator 2 view .LVU2425
	cmp	r3, #0
	beq	.L519
	.loc 1 3725 68 discriminator 3 view .LVU2426
	ldrb	r7, [r4, #20]	@ zero_extendqisi2
	cmp	r7, #1
	bne	.L519
	.loc 1 3733 5 is_stmt 1 view .LVU2427
.LBB1609:
	.loc 1 3735 9 view .LVU2428
.LVL502:
	.loc 1 3736 9 view .LVU2429
	.loc 1 3736 24 is_stmt 0 view .LVU2430
	mov	r6, #0
.LBB1610:
.LBB1611:
	.loc 1 3195 5 view .LVU2431
	mov	r10, r5
.LBE1611:
.LBE1610:
.LBB1613:
.LBB1614:
	mov	r9, r5
.LBE1614:
.LBE1613:
.LBB1616:
.LBB1617:
	ldr	r1, [r5]
.LVL503:
	.loc 1 3195 5 view .LVU2432
	ldr	r0, [r4, #44]
.LVL504:
	.loc 1 3195 5 view .LVU2433
.LBE1617:
.LBE1616:
	.loc 1 3736 24 view .LVU2434
	str	r6, [r4, #64]
	.loc 1 3738 9 is_stmt 1 view .LVU2435
.LVL505:
.LBB1619:
.LBI1616:
	.loc 1 3193 59 view .LVU2436
.LBB1618:
	.loc 1 3195 5 view .LVU2437
	blx	r3
.LVL506:
	.loc 1 3196 5 view .LVU2438
	str	r6, [r5]	@ unaligned
	str	r6, [r5, #4]	@ unaligned
	str	r6, [r5, #8]	@ unaligned
	str	r6, [r5, #12]	@ unaligned
.LVL507:
	.loc 1 3196 5 is_stmt 0 view .LVU2439
.LBE1618:
.LBE1619:
	.loc 1 3739 9 is_stmt 1 view .LVU2440
.LBB1620:
.LBI1610:
	.loc 1 3193 59 view .LVU2441
.LBB1612:
	.loc 1 3195 5 view .LVU2442
	ldr	r1, [r10, #16]!
.LVL508:
	.loc 1 3195 5 is_stmt 0 view .LVU2443
	ldr	r0, [r4, #44]
	ldr	r3, [r4, #36]
	blx	r3
.LVL509:
	.loc 1 3196 5 is_stmt 1 view .LVU2444
	str	r6, [r5, #16]	@ unaligned
	str	r6, [r10, #4]	@ unaligned
	str	r6, [r10, #8]	@ unaligned
	str	r6, [r10, #12]	@ unaligned
.LVL510:
	.loc 1 3196 5 is_stmt 0 view .LVU2445
.LBE1612:
.LBE1620:
	.loc 1 3740 9 is_stmt 1 view .LVU2446
.LBB1621:
.LBI1613:
	.loc 1 3193 59 view .LVU2447
.LBB1615:
	.loc 1 3195 5 view .LVU2448
	ldr	r1, [r9, #32]!
.LVL511:
	.loc 1 3195 5 is_stmt 0 view .LVU2449
	ldr	r0, [r4, #44]
	ldr	r3, [r4, #36]
	blx	r3
.LVL512:
	.loc 1 3196 5 is_stmt 1 view .LVU2450
	str	r6, [r5, #32]	@ unaligned
	str	r6, [r9, #4]	@ unaligned
	str	r6, [r9, #8]	@ unaligned
	str	r6, [r9, #12]	@ unaligned
.LVL513:
	.loc 1 3196 5 is_stmt 0 view .LVU2451
.LBE1615:
.LBE1621:
	.loc 1 3743 9 is_stmt 1 view .LVU2452
	.loc 1 3743 19 is_stmt 0 view .LVU2453
	ldr	r0, [r5, #60]
	.loc 1 3743 12 view .LVU2454
	cmp	r0, r6
	beq	.L522
	.loc 1 3745 13 is_stmt 1 view .LVU2455
	.loc 1 3745 16 is_stmt 0 view .LVU2456
	ldrb	r3, [r4, #21]	@ zero_extendqisi2
	cmp	r3, #4
	beq	.L523
.L525:
.LBE1609:
	.loc 1 3720 13 view .LVU2457
	mov	r7, #1
.L524:
.LVL514:
.LBB1622:
	.loc 1 3754 13 is_stmt 1 view .LVU2458
	.loc 1 3754 29 is_stmt 0 view .LVU2459
	mov	r3, #0
	str	r3, [r5, #60]
.LVL515:
.L522:
	.loc 1 3758 9 is_stmt 1 view .LVU2460
	ldr	r3, [r4, #36]
	ldr	r0, [r4, #44]
	mov	r1, r5
	blx	r3
.LVL516:
	.loc 1 3758 9 is_stmt 0 view .LVU2461
.LBE1622:
	.loc 1 3760 5 is_stmt 1 view .LVU2462
	.loc 1 3760 22 is_stmt 0 view .LVU2463
	mov	r3, #0
	.loc 1 3763 1 view .LVU2464
	mov	r0, r7
	.loc 1 3760 22 view .LVU2465
	strb	r3, [r4, #20]
	.loc 1 3762 5 is_stmt 1 view .LVU2466
	.loc 1 3763 1 is_stmt 0 view .LVU2467
	pop	{r4, r5, r6, r7, r8, r9, r10, pc}
.LVL517:
.L519:
	.loc 1 3727 9 is_stmt 1 view .LVU2468
	.loc 1 3727 12 is_stmt 0 view .LVU2469
	cmp	r8, #0
	.loc 1 3728 13 is_stmt 1 view .LVU2470
	.loc 1 3728 32 is_stmt 0 view .LVU2471
	movne	r3, #24
	strbne	r3, [r4, #22]
.L518:
	.loc 1 3723 16 view .LVU2472
	mov	r7, #0
	.loc 1 3763 1 view .LVU2473
	mov	r0, r7
.LVL518:
	.loc 1 3763 1 view .LVU2474
	pop	{r4, r5, r6, r7, r8, r9, r10, pc}
.LVL519:
.L523:
.LBB1623:
	.loc 1 3747 17 is_stmt 1 view .LVU2475
	.loc 1 3747 21 is_stmt 0 view .LVU2476
	bl	fclose
.LVL520:
	.loc 1 3747 20 view .LVU2477
	cmn	r0, #1
	bne	.L525
	.loc 1 3749 21 is_stmt 1 view .LVU2478
	.loc 1 3749 24 is_stmt 0 view .LVU2479
	cmp	r8, #0
	.loc 1 3750 44 view .LVU2480
	movne	r3, #21
	.loc 1 3751 28 view .LVU2481
	mov	r7, #0
	.loc 1 3750 44 view .LVU2482
	strbne	r3, [r4, #22]
	b	.L524
.LBE1623:
	.cfi_endproc
.LFE77:
	.size	mz_zip_reader_end_internal, .-mz_zip_reader_end_internal
	.section	.text.mz_zip_writer_end_internal,"ax",%progbits
	.align	2
	.syntax unified
	.arm
	.type	mz_zip_writer_end_internal, %function
mz_zip_writer_end_internal:
.LVL521:
.LFB122:
	.loc 1 5504 1 is_stmt 1 view -0
	.cfi_startproc
	@ args = 0, pretend = 0, frame = 0
	@ frame_needed = 0, uses_anonymous_args = 0
	.loc 1 5505 5 view .LVU2484
	.loc 1 5506 5 view .LVU2485
	.loc 1 5508 5 view .LVU2486
	.loc 1 5504 1 is_stmt 0 view .LVU2487
	push	{r4, r5, r6, r7, r8, r9, r10, lr}
	.cfi_def_cfa_offset 32
	.cfi_offset 4, -32
	.cfi_offset 5, -28
	.cfi_offset 6, -24
	.cfi_offset 7, -20
	.cfi_offset 8, -16
	.cfi_offset 9, -12
	.cfi_offset 10, -8
	.cfi_offset 14, -4
	.loc 1 5508 8 view .LVU2488
	subs	r4, r0, #0
	beq	.L546
	.loc 1 5508 26 discriminator 1 view .LVU2489
	ldr	r5, [r4, #64]
	mov	r7, r1
	.loc 1 5508 17 discriminator 1 view .LVU2490
	cmp	r5, #0
	beq	.L547
	.loc 1 5508 38 discriminator 2 view .LVU2491
	ldr	r3, [r4, #32]
	cmp	r3, #0
	beq	.L547
	.loc 1 5508 68 discriminator 3 view .LVU2492
	ldr	r2, [r4, #36]
	.loc 1 5508 59 discriminator 3 view .LVU2493
	cmp	r2, #0
	beq	.L547
	.loc 1 5508 125 discriminator 4 view .LVU2494
	ldrb	r3, [r4, #20]	@ zero_extendqisi2
	.loc 1 5508 79 discriminator 4 view .LVU2495
	sub	r3, r3, #2
	cmp	r3, #1
	bhi	.L547
	.loc 1 5515 5 is_stmt 1 view .LVU2496
.LVL522:
	.loc 1 5516 5 view .LVU2497
	.loc 1 5516 20 is_stmt 0 view .LVU2498
	mov	r6, #0
.LBB1624:
.LBB1625:
	.loc 1 3195 5 view .LVU2499
	mov	r9, r5
.LBE1625:
.LBE1624:
.LBB1627:
.LBB1628:
	mov	r8, r5
.LBE1628:
.LBE1627:
.LBB1630:
.LBB1631:
	ldr	r1, [r5]
.LVL523:
	.loc 1 3195 5 view .LVU2500
	ldr	r0, [r4, #44]
.LVL524:
	.loc 1 3195 5 view .LVU2501
.LBE1631:
.LBE1630:
	.loc 1 5516 20 view .LVU2502
	str	r6, [r4, #64]
	.loc 1 5517 5 is_stmt 1 view .LVU2503
.LVL525:
.LBB1633:
.LBI1630:
	.loc 1 3193 59 view .LVU2504
.LBB1632:
	.loc 1 3195 5 view .LVU2505
	blx	r2
.LVL526:
	.loc 1 3196 5 view .LVU2506
	str	r6, [r5]	@ unaligned
	str	r6, [r5, #4]	@ unaligned
	str	r6, [r5, #8]	@ unaligned
	str	r6, [r5, #12]	@ unaligned
.LVL527:
	.loc 1 3196 5 is_stmt 0 view .LVU2507
.LBE1632:
.LBE1633:
	.loc 1 5518 5 is_stmt 1 view .LVU2508
.LBB1634:
.LBI1624:
	.loc 1 3193 59 view .LVU2509
.LBB1626:
	.loc 1 3195 5 view .LVU2510
	ldr	r1, [r9, #16]!
.LVL528:
	.loc 1 3195 5 is_stmt 0 view .LVU2511
	ldr	r0, [r4, #44]
	ldr	r3, [r4, #36]
	blx	r3
.LVL529:
	.loc 1 3196 5 is_stmt 1 view .LVU2512
	str	r6, [r5, #16]	@ unaligned
	str	r6, [r9, #4]	@ unaligned
	str	r6, [r9, #8]	@ unaligned
	str	r6, [r9, #12]	@ unaligned
.LVL530:
	.loc 1 3196 5 is_stmt 0 view .LVU2513
.LBE1626:
.LBE1634:
	.loc 1 5519 5 is_stmt 1 view .LVU2514
.LBB1635:
.LBI1627:
	.loc 1 3193 59 view .LVU2515
.LBB1629:
	.loc 1 3195 5 view .LVU2516
	ldr	r1, [r8, #32]!
.LVL531:
	.loc 1 3195 5 is_stmt 0 view .LVU2517
	ldr	r0, [r4, #44]
	ldr	r3, [r4, #36]
	blx	r3
.LVL532:
	.loc 1 3196 5 is_stmt 1 view .LVU2518
	str	r6, [r5, #32]	@ unaligned
	str	r6, [r8, #4]	@ unaligned
	str	r6, [r8, #8]	@ unaligned
	str	r6, [r8, #12]	@ unaligned
.LVL533:
	.loc 1 3196 5 is_stmt 0 view .LVU2519
.LBE1629:
.LBE1635:
	.loc 1 5522 5 is_stmt 1 view .LVU2520
	.loc 1 5522 15 is_stmt 0 view .LVU2521
	ldr	r0, [r5, #60]
	.loc 1 5522 8 view .LVU2522
	cmp	r0, r6
	.loc 1 5506 13 view .LVU2523
	moveq	r6, #1
	.loc 1 5522 8 view .LVU2524
	beq	.L550
	.loc 1 5524 9 is_stmt 1 view .LVU2525
	.loc 1 5524 12 is_stmt 0 view .LVU2526
	ldrb	r3, [r4, #21]	@ zero_extendqisi2
	cmp	r3, #4
	beq	.L551
.L553:
	.loc 1 5506 13 view .LVU2527
	mov	r6, #1
.L552:
.LVL534:
	.loc 1 5534 9 is_stmt 1 view .LVU2528
	.loc 1 5534 25 is_stmt 0 view .LVU2529
	mov	r3, #0
	str	r3, [r5, #60]
.LVL535:
.L550:
	.loc 1 5538 5 is_stmt 1 view .LVU2530
	.loc 1 5538 8 is_stmt 0 view .LVU2531
	ldr	r3, .L578
	ldr	r2, [r4, #52]
	cmp	r2, r3
	beq	.L577
.L556:
	.loc 1 5544 5 is_stmt 1 view .LVU2532
	ldr	r3, [r4, #36]
	ldr	r0, [r4, #44]
	mov	r1, r5
	blx	r3
.LVL536:
	.loc 1 5545 5 view .LVU2533
	.loc 1 5545 22 is_stmt 0 view .LVU2534
	mov	r3, #0
	.loc 1 5547 1 view .LVU2535
	mov	r0, r6
	.loc 1 5545 22 view .LVU2536
	strb	r3, [r4, #20]
	.loc 1 5546 5 is_stmt 1 view .LVU2537
	.loc 1 5547 1 is_stmt 0 view .LVU2538
	pop	{r4, r5, r6, r7, r8, r9, r10, pc}
.LVL537:
.L547:
	.loc 1 5510 9 is_stmt 1 view .LVU2539
	.loc 1 5510 12 is_stmt 0 view .LVU2540
	cmp	r7, #0
.LBB1636:
.LBB1637:
	.loc 1 3323 9 is_stmt 1 view .LVU2541
	.loc 1 3323 28 is_stmt 0 view .LVU2542
	movne	r3, #24
	strbne	r3, [r4, #22]
.L546:
	.loc 1 3323 28 view .LVU2543
.LBE1637:
.LBE1636:
	.loc 1 5512 16 view .LVU2544
	mov	r6, #0
	.loc 1 5547 1 view .LVU2545
	mov	r0, r6
.LVL538:
	.loc 1 5547 1 view .LVU2546
	pop	{r4, r5, r6, r7, r8, r9, r10, pc}
.LVL539:
.L577:
	.loc 1 5538 62 discriminator 1 view .LVU2547
	ldr	r1, [r5, #72]
	.loc 1 5538 52 discriminator 1 view .LVU2548
	cmp	r1, #0
	beq	.L556
	.loc 1 5540 9 is_stmt 1 view .LVU2549
	ldr	r3, [r4, #36]
	ldr	r0, [r4, #44]
	blx	r3
.LVL540:
	.loc 1 5541 9 view .LVU2550
	.loc 1 5541 24 is_stmt 0 view .LVU2551
	mov	r3, #0
	str	r3, [r5, #72]
	b	.L556
.LVL541:
.L551:
	.loc 1 5526 13 is_stmt 1 view .LVU2552
	.loc 1 5526 17 is_stmt 0 view .LVU2553
	bl	fclose
.LVL542:
	.loc 1 5526 16 view .LVU2554
	cmn	r0, #1
	bne	.L553
	.loc 1 5528 17 is_stmt 1 view .LVU2555
	.loc 1 5528 20 is_stmt 0 view .LVU2556
	cmp	r7, #0
.LBB1638:
.LBB1639:
	.loc 1 3323 28 view .LVU2557
	movne	r3, #21
.LBE1639:
.LBE1638:
	.loc 1 5530 24 view .LVU2558
	mov	r6, #0
.LBB1641:
.LBB1640:
	.loc 1 3323 28 view .LVU2559
	strbne	r3, [r4, #22]
	b	.L552
.L579:
	.align	2
.L578:
	.word	mz_zip_heap_write_func
.LBE1640:
.LBE1641:
	.cfi_endproc
.LFE122:
	.size	mz_zip_writer_end_internal, .-mz_zip_writer_end_internal
	.section	.text.mz_zip_file_read_func,"ax",%progbits
	.align	2
	.syntax unified
	.arm
	.type	mz_zip_file_read_func, %function
mz_zip_file_read_func:
.LVL543:
.LFB82:
	.loc 1 3833 1 is_stmt 1 view -0
	.cfi_startproc
	@ args = 8, pretend = 0, frame = 0
	@ frame_needed = 0, uses_anonymous_args = 0
	.loc 1 3834 5 view .LVU2561
	.loc 1 3833 1 is_stmt 0 view .LVU2562
	push	{r4, r5, r6, r7, r8, lr}
	.cfi_def_cfa_offset 24
	.cfi_offset 4, -24
	.cfi_offset 5, -20
	.cfi_offset 6, -16
	.cfi_offset 7, -12
	.cfi_offset 8, -8
	.cfi_offset 14, -4
	mov	r6, r0
.LVL544:
	.loc 1 3835 5 is_stmt 1 view .LVU2563
	.loc 1 3833 1 is_stmt 0 view .LVU2564
	mov	r4, r2
	mov	r5, r3
	.loc 1 3835 24 view .LVU2565
	ldr	r3, [r0, #64]
	.loc 1 3833 1 view .LVU2566
	sub	sp, sp, #8
	.cfi_def_cfa_offset 32
	.loc 1 3835 24 view .LVU2567
	ldr	r0, [r3, #60]
.LVL545:
	.loc 1 3833 1 view .LVU2568
	ldr	r7, [sp, #32]
	ldr	r8, [sp, #36]
	.loc 1 3835 24 view .LVU2569
	bl	ftello
.LVL546:
	.loc 1 3837 21 view .LVU2570
	ldr	ip, [r6, #64]
	.loc 1 3837 14 view .LVU2571
	ldr	r3, [ip, #64]
	adds	r2, r4, r3
	ldr	r3, [ip, #68]
	adc	r3, r5, r3
	.loc 1 3839 8 view .LVU2572
	cmp	r3, #0
.LVL547:
	.loc 1 3837 5 is_stmt 1 view .LVU2573
	.loc 1 3839 5 view .LVU2574
	.loc 1 3839 8 is_stmt 0 view .LVU2575
	blt	.L582
	.loc 1 3839 34 discriminator 1 view .LVU2576
	cmp	r3, r1
	cmpeq	r2, r0
	.loc 1 3839 76 discriminator 1 view .LVU2577
	ldr	r0, [ip, #60]
.LVL548:
	.loc 1 3839 34 discriminator 1 view .LVU2578
	beq	.L583
	.loc 1 3839 76 discriminator 2 view .LVU2579
	mov	r1, #0
	str	r1, [sp]
.LVL549:
	.loc 1 3839 76 discriminator 2 view .LVU2580
	bl	fseeko
.LVL550:
	.loc 1 3839 72 discriminator 2 view .LVU2581
	cmp	r0, #0
	bne	.L582
	.loc 1 3842 34 view .LVU2582
	ldr	ip, [r6, #64]
.L583:
	.loc 1 3842 5 is_stmt 1 view .LVU2583
	.loc 1 3842 12 is_stmt 0 view .LVU2584
	mov	r2, r8
	mov	r1, #1
	mov	r0, r7
	ldr	r3, [ip, #60]
	.loc 1 3843 1 view .LVU2585
	add	sp, sp, #8
	.cfi_remember_state
	.cfi_def_cfa_offset 24
	@ sp needed
	pop	{r4, r5, r6, r7, r8, lr}
	.cfi_restore 14
	.cfi_restore 8
	.cfi_restore 7
	.cfi_restore 6
	.cfi_restore 5
	.cfi_restore 4
	.cfi_def_cfa_offset 0
.LVL551:
	.loc 1 3842 12 view .LVU2586
	b	fread
.LVL552:
.L582:
	.cfi_restore_state
	.loc 1 3843 1 view .LVU2587
	mov	r0, #0
	add	sp, sp, #8
	.cfi_def_cfa_offset 24
	@ sp needed
	pop	{r4, r5, r6, r7, r8, pc}
	.loc 1 3843 1 view .LVU2588
	.cfi_endproc
.LFE82:
	.size	mz_zip_file_read_func, .-mz_zip_file_read_func
	.section	.text.mz_zip_file_write_callback,"ax",%progbits
	.align	2
	.syntax unified
	.arm
	.type	mz_zip_file_write_callback, %function
mz_zip_file_write_callback:
.LVL553:
.LFB108:
	.loc 1 5016 1 is_stmt 1 view -0
	.cfi_startproc
	@ args = 8, pretend = 0, frame = 0
	@ frame_needed = 0, uses_anonymous_args = 0
	@ link register save eliminated.
	.loc 1 5017 5 view .LVU2590
	.loc 1 5019 5 view .LVU2591
	.loc 1 5016 1 is_stmt 0 view .LVU2592
	mov	r3, r0
	.loc 1 5019 12 view .LVU2593
	ldm	sp, {r0, r2}
.LVL554:
	.loc 1 5019 12 view .LVU2594
	mov	r1, #1
	b	fwrite
.LVL555:
	.loc 1 5019 12 view .LVU2595
	.cfi_endproc
.LFE108:
	.size	mz_zip_file_write_callback, .-mz_zip_file_write_callback
	.section	.text.mz_zip_file_write_func,"ax",%progbits
	.align	2
	.syntax unified
	.arm
	.type	mz_zip_file_write_func, %function
mz_zip_file_write_func:
.LVL556:
.LFB127:
	.loc 1 5638 1 is_stmt 1 view -0
	.cfi_startproc
	@ args = 8, pretend = 0, frame = 0
	@ frame_needed = 0, uses_anonymous_args = 0
	.loc 1 5639 5 view .LVU2597
	.loc 1 5638 1 is_stmt 0 view .LVU2598
	push	{r4, r5, r6, r7, r8, lr}
	.cfi_def_cfa_offset 24
	.cfi_offset 4, -24
	.cfi_offset 5, -20
	.cfi_offset 6, -16
	.cfi_offset 7, -12
	.cfi_offset 8, -8
	.cfi_offset 14, -4
	mov	r6, r0
.LVL557:
	.loc 1 5640 5 is_stmt 1 view .LVU2599
	.loc 1 5638 1 is_stmt 0 view .LVU2600
	mov	r4, r2
	mov	r5, r3
	.loc 1 5640 24 view .LVU2601
	ldr	r3, [r0, #64]
	.loc 1 5638 1 view .LVU2602
	sub	sp, sp, #8
	.cfi_def_cfa_offset 32
	.loc 1 5640 24 view .LVU2603
	ldr	r0, [r3, #60]
.LVL558:
	.loc 1 5638 1 view .LVU2604
	ldr	r7, [sp, #32]
	ldr	r8, [sp, #36]
	.loc 1 5640 24 view .LVU2605
	bl	ftello
.LVL559:
	.loc 1 5642 21 view .LVU2606
	ldr	ip, [r6, #64]
	.loc 1 5642 14 view .LVU2607
	ldr	r3, [ip, #64]
	adds	r2, r4, r3
	ldr	r3, [ip, #68]
	adc	r3, r5, r3
	.loc 1 5644 8 view .LVU2608
	cmp	r3, #0
.LVL560:
	.loc 1 5642 5 is_stmt 1 view .LVU2609
	.loc 1 5644 5 view .LVU2610
	.loc 1 5644 8 is_stmt 0 view .LVU2611
	blt	.L588
	.loc 1 5644 34 discriminator 1 view .LVU2612
	cmp	r3, r1
	cmpeq	r2, r0
	.loc 1 5644 76 discriminator 1 view .LVU2613
	ldr	r0, [ip, #60]
.LVL561:
	.loc 1 5644 34 discriminator 1 view .LVU2614
	beq	.L589
	.loc 1 5644 76 discriminator 2 view .LVU2615
	mov	r1, #0
	str	r1, [sp]
.LVL562:
	.loc 1 5644 76 discriminator 2 view .LVU2616
	bl	fseeko
.LVL563:
	.loc 1 5644 72 discriminator 2 view .LVU2617
	cmp	r0, #0
	bne	.L588
	.loc 1 5650 35 view .LVU2618
	ldr	ip, [r6, #64]
.L589:
	.loc 1 5650 5 is_stmt 1 view .LVU2619
	.loc 1 5650 12 is_stmt 0 view .LVU2620
	mov	r2, r8
	mov	r1, #1
	mov	r0, r7
	ldr	r3, [ip, #60]
	.loc 1 5651 1 view .LVU2621
	add	sp, sp, #8
	.cfi_remember_state
	.cfi_def_cfa_offset 24
	@ sp needed
	pop	{r4, r5, r6, r7, r8, lr}
	.cfi_restore 14
	.cfi_restore 8
	.cfi_restore 7
	.cfi_restore 6
	.cfi_restore 5
	.cfi_restore 4
	.cfi_def_cfa_offset 0
.LVL564:
	.loc 1 5650 12 view .LVU2622
	b	fwrite
.LVL565:
.L588:
	.cfi_restore_state
.LBB1642:
.LBB1643:
	.loc 1 3323 9 is_stmt 1 view .LVU2623
	.loc 1 3323 28 is_stmt 0 view .LVU2624
	mov	r3, #22
.LBE1643:
.LBE1642:
	.loc 1 5651 1 view .LVU2625
	mov	r0, #0
.LBB1645:
.LBB1644:
	.loc 1 3323 28 view .LVU2626
	strb	r3, [r6, #22]
	.loc 1 3324 5 is_stmt 1 view .LVU2627
.LBE1644:
.LBE1645:
	.loc 1 5647 9 view .LVU2628
	.loc 1 5651 1 is_stmt 0 view .LVU2629
	add	sp, sp, #8
	.cfi_def_cfa_offset 24
	@ sp needed
	pop	{r4, r5, r6, r7, r8, pc}
	.loc 1 5651 1 view .LVU2630
	.cfi_endproc
.LFE127:
	.size	mz_zip_file_write_func, .-mz_zip_file_write_func
	.section	.text.mz_zip_writer_add_put_buf_callback,"ax",%progbits
	.align	2
	.syntax unified
	.arm
	.type	mz_zip_writer_add_put_buf_callback, %function
mz_zip_writer_add_put_buf_callback:
.LVL566:
.LFB134:
	.loc 1 5832 1 is_stmt 1 view -0
	.cfi_startproc
	@ args = 0, pretend = 0, frame = 0
	@ frame_needed = 0, uses_anonymous_args = 0
	.loc 1 5833 5 view .LVU2632
	.loc 1 5832 1 is_stmt 0 view .LVU2633
	push	{r4, r5, lr}
	.cfi_def_cfa_offset 12
	.cfi_offset 4, -12
	.cfi_offset 5, -8
	.cfi_offset 14, -4
	mov	r4, r2
.LVL567:
	.loc 1 5834 5 is_stmt 1 view .LVU2634
	.loc 1 5834 20 is_stmt 0 view .LVU2635
	ldr	r3, [r2]
	.loc 1 5832 1 view .LVU2636
	sub	sp, sp, #12
	.cfi_def_cfa_offset 24
	.loc 1 5834 14 view .LVU2637
	ldr	r2, [r3, #60]
.LVL568:
	.loc 1 5834 14 view .LVU2638
	strd	r0, [sp]
	.loc 1 5832 1 view .LVU2639
	mov	r5, r1
	.loc 1 5834 14 view .LVU2640
	mov	r0, r2
.LVL569:
	.loc 1 5834 14 view .LVU2641
	ldr	r1, [r3, #52]
.LVL570:
	.loc 1 5834 14 view .LVU2642
	ldrd	r2, [r4, #8]
	blx	r1
.LVL571:
	.loc 1 5834 8 view .LVU2643
	cmp	r0, r5
	.loc 1 5835 16 view .LVU2644
	movne	r0, #0
	.loc 1 5834 8 view .LVU2645
	bne	.L593
.LVL572:
.LBB1648:
.LBI1648:
	.loc 1 5831 16 is_stmt 1 view .LVU2646
.LBB1649:
	.loc 1 5837 5 view .LVU2647
	.loc 1 5837 36 is_stmt 0 view .LVU2648
	ldr	r2, [r4, #8]
	mov	r3, r0
	ldr	ip, [r4, #12]
	.loc 1 5838 25 view .LVU2649
	ldr	r1, [r4, #16]
	.loc 1 5837 36 view .LVU2650
	adds	r2, r2, r0
	adc	ip, ip, r0, asr #31
	.loc 1 5838 25 view .LVU2651
	adds	r1, r1, r0
	mov	r0, #1
.LVL573:
	.loc 1 5837 36 view .LVU2652
	str	r2, [r4, #8]
	.loc 1 5838 25 view .LVU2653
	ldr	r2, [r4, #20]
	str	r1, [r4, #16]
	adc	r3, r2, r3, asr #31
.LVL574:
	.loc 1 5837 36 view .LVU2654
	str	ip, [r4, #12]
	.loc 1 5838 5 is_stmt 1 view .LVU2655
	.loc 1 5838 25 is_stmt 0 view .LVU2656
	str	r3, [r4, #20]
	.loc 1 5839 5 is_stmt 1 view .LVU2657
.LVL575:
.L593:
	.loc 1 5839 5 is_stmt 0 view .LVU2658
.LBE1649:
.LBE1648:
	.loc 1 5840 1 view .LVU2659
	add	sp, sp, #12
	.cfi_def_cfa_offset 12
	@ sp needed
	pop	{r4, r5, pc}
	.loc 1 5840 1 view .LVU2660
	.cfi_endproc
.LFE134:
	.size	mz_zip_writer_add_put_buf_callback, .-mz_zip_writer_add_put_buf_callback
	.section	.text.mz_zip_writer_add_to_central_dir,"ax",%progbits
	.align	2
	.syntax unified
	.arm
	.type	mz_zip_writer_add_to_central_dir, %function
mz_zip_writer_add_to_central_dir:
.LVL576:
.LFB138:
	.loc 1 5928 1 is_stmt 1 view -0
	.cfi_startproc
	@ args = 76, pretend = 0, frame = 104
	@ frame_needed = 0, uses_anonymous_args = 0
	.loc 1 5929 5 view .LVU2662
	.loc 1 5928 1 is_stmt 0 view .LVU2663
	push	{r4, r5, r6, r7, r8, r9, r10, fp, lr}
	.cfi_def_cfa_offset 36
	.cfi_offset 4, -36
	.cfi_offset 5, -32
	.cfi_offset 6, -28
	.cfi_offset 7, -24
	.cfi_offset 8, -20
	.cfi_offset 9, -16
	.cfi_offset 10, -12
	.cfi_offset 11, -8
	.cfi_offset 14, -4
	.loc 1 5929 28 view .LVU2664
	ldr	r4, [r0, #64]
.LVL577:
	.loc 1 5930 5 is_stmt 1 view .LVU2665
	.loc 1 5928 1 is_stmt 0 view .LVU2666
	sub	sp, sp, #108
	.cfi_def_cfa_offset 144
	.loc 1 5928 1 view .LVU2667
	str	r1, [sp, #28]
	.loc 1 5934 8 view .LVU2668
	ldr	r1, [r4, #52]
.LVL578:
	.loc 1 5928 1 view .LVU2669
	ldr	r9, [sp, #204]
	.loc 1 5936 12 view .LVU2670
	clz	r1, r1
	cmp	r9, #0
	lsr	r1, r1, #5
	moveq	r1, #0
	.loc 1 5928 1 view .LVU2671
	mov	r5, r2
	ldrh	r2, [sp, #184]
.LVL579:
	.loc 1 5928 1 view .LVU2672
	ldr	ip, [sp, #160]
	str	r2, [sp]
	ldrh	r2, [sp, #188]
	.loc 1 5930 65 view .LVU2673
	ldr	r7, [r4, #4]
	.loc 1 5928 1 view .LVU2674
	str	r2, [sp, #4]
	ldrh	r2, [sp, #192]
	str	ip, [sp, #16]
	str	r3, [sp, #32]
	ldr	ip, [sp, #164]
	ldr	r3, [sp, #172]
.LVL580:
	.loc 1 5928 1 view .LVU2675
	str	r2, [sp, #8]
	ldr	r2, [sp, #200]
	.loc 1 5936 12 view .LVU2676
	cmp	r1, #0
	.loc 1 5928 1 view .LVU2677
	str	r3, [sp, #24]
	mov	r6, r0
	ldrh	r8, [sp, #144]
	ldrh	fp, [sp, #152]
	ldr	r10, [sp, #168]
	ldrh	r3, [sp, #180]
	str	ip, [sp, #20]
	str	r2, [sp, #12]
	.loc 1 5930 15 view .LVU2678
	str	r7, [sp, #52]
	.loc 1 5931 5 is_stmt 1 view .LVU2679
.LVL581:
	.loc 1 5932 5 view .LVU2680
	.loc 1 5934 5 view .LVU2681
	.loc 1 5936 9 view .LVU2682
	.loc 1 5936 12 is_stmt 0 view .LVU2683
	bne	.L621
	.loc 1 5941 5 is_stmt 1 view .LVU2684
	.loc 1 5941 8 is_stmt 0 view .LVU2685
	mvn	r0, #1
.LVL582:
	.loc 1 5941 134 view .LVU2686
	ldr	ip, [sp, #216]
	add	r2, fp, #46
	adds	r2, r2, ip
	adc	ip, r1, #0
	adds	r2, r2, r8
	adc	ip, ip, #0
	adds	r2, r2, r5
	adc	ip, ip, #0
	adds	r2, r2, r7
	adc	ip, ip, #0
	.loc 1 5941 8 view .LVU2687
	cmp	r0, r2
	sbcs	ip, r1, ip
	movcc	r3, #15
	bcs	.L639
.L598:
	.loc 1 5937 20 view .LVU2688
	mov	r0, #0
.LBB1742:
.LBB1743:
	.loc 1 3323 28 view .LVU2689
	strb	r3, [r6, #22]
.LBE1743:
.LBE1742:
	.loc 1 5960 1 view .LVU2690
	add	sp, sp, #108
	.cfi_remember_state
	.cfi_def_cfa_offset 36
	@ sp needed
	pop	{r4, r5, r6, r7, r8, r9, r10, fp, pc}
.LVL583:
.L639:
	.cfi_restore_state
	.loc 1 5944 5 is_stmt 1 view .LVU2691
	str	r3, [sp, #44]
	.loc 1 5944 10 is_stmt 0 view .LVU2692
	ldr	r3, [sp, #216]
.LBB1744:
.LBB1745:
	.loc 1 5904 5 view .LVU2693
	mov	r2, #38
.LBE1745:
.LBE1744:
	.loc 1 5944 10 view .LVU2694
	add	r0, r8, r3
	uxth	r3, r0
.LBB1812:
.LBB1808:
	.loc 1 5904 5 view .LVU2695
	add	r0, sp, #60
	str	r1, [sp, #40]
.LBE1808:
.LBE1812:
	.loc 1 5944 10 view .LVU2696
	str	r3, [sp, #36]
.LVL584:
.LBB1813:
.LBI1744:
	.loc 1 5897 16 is_stmt 1 view .LVU2697
.LBB1809:
	.loc 1 5903 5 view .LVU2698
	.loc 1 5904 5 view .LVU2699
	bl	memset
.LVL585:
	.loc 1 5905 5 view .LVU2700
.LBB1746:
.LBI1746:
	.loc 1 5448 59 view .LVU2701
.LBB1747:
	.loc 1 5450 5 view .LVU2702
	.loc 1 5451 5 view .LVU2703
	.loc 1 5452 5 view .LVU2704
	.loc 1 5453 5 view .LVU2705
.LBE1747:
.LBE1746:
.LBB1750:
.LBB1751:
	.loc 1 5445 10 is_stmt 0 view .LVU2706
	ldr	r3, [sp]
.LBE1751:
.LBE1750:
	.loc 1 5912 5 view .LVU2707
	mvn	r0, #0
.LBB1754:
.LBB1752:
	.loc 1 5445 10 view .LVU2708
	strh	r3, [sp, #64]	@ movhi
.LBE1752:
.LBE1754:
	.loc 1 5906 5 view .LVU2709
	ldr	r3, [sp, #44]
	.loc 1 5912 5 view .LVU2710
	ldr	r1, [sp, #40]
	.loc 1 5906 5 view .LVU2711
	cmp	r3, #0
.LBB1755:
.LBB1756:
	.loc 1 5445 12 view .LVU2712
	strb	r3, [sp, #66]
.LBE1756:
.LBE1755:
.LBB1758:
.LBB1759:
	.loc 1 5450 10 view .LVU2713
	ldr	r3, [sp, #176]
.LBE1759:
.LBE1758:
.LBB1767:
.LBB1768:
	.loc 1 5445 10 view .LVU2714
	ldr	r2, [sp, #8]
.LBE1768:
.LBE1767:
.LBB1771:
.LBB1760:
	.loc 1 5450 10 view .LVU2715
	str	r3, [sp, #72]
.LBE1760:
.LBE1771:
	.loc 1 5906 5 view .LVU2716
	movne	r3, #20
	moveq	r3, #0
.LBB1772:
.LBB1773:
	.loc 1 5445 10 view .LVU2717
	strb	r3, [sp, #62]
.LBE1773:
.LBE1772:
	.loc 1 5912 5 view .LVU2718
	ldr	r3, [sp, #24]
	cmp	r0, r10
	sbcs	r1, r1, r3
.LBB1775:
.LBB1769:
	.loc 1 5445 10 view .LVU2719
	ldr	r1, [sp, #4]
	uxtb	r3, r2
	orr	r3, r1, r3, lsl #16
	lsr	r2, r2, #8
	orr	r3, r3, r2, lsl #24
	str	r3, [sp, #68]
.LBE1769:
.LBE1775:
.LBB1776:
.LBB1748:
	.loc 1 5450 10 view .LVU2720
	ldr	r3, .L645
.LBE1748:
.LBE1776:
	.loc 1 5912 5 view .LVU2721
	movcc	r10, r0
.LVL586:
.LBB1777:
.LBB1749:
	.loc 1 5450 10 view .LVU2722
	str	r3, [sp, #56]
.LVL587:
	.loc 1 5450 10 view .LVU2723
.LBE1749:
.LBE1777:
	.loc 1 5906 5 is_stmt 1 view .LVU2724
.LBB1778:
.LBI1772:
	.loc 1 5443 59 view .LVU2725
.LBB1774:
	.loc 1 5445 5 view .LVU2726
	.loc 1 5446 5 view .LVU2727
	.loc 1 5446 5 is_stmt 0 view .LVU2728
.LBE1774:
.LBE1778:
	.loc 1 5907 5 is_stmt 1 view .LVU2729
.LBB1779:
.LBI1750:
	.loc 1 5443 59 view .LVU2730
.LBB1753:
	.loc 1 5445 5 view .LVU2731
	.loc 1 5446 5 view .LVU2732
	.loc 1 5446 5 is_stmt 0 view .LVU2733
.LBE1753:
.LBE1779:
	.loc 1 5908 5 is_stmt 1 view .LVU2734
.LBB1780:
.LBI1755:
	.loc 1 5443 59 view .LVU2735
.LBB1757:
	.loc 1 5445 5 view .LVU2736
	.loc 1 5446 5 view .LVU2737
	.loc 1 5446 5 is_stmt 0 view .LVU2738
.LBE1757:
.LBE1780:
	.loc 1 5909 5 is_stmt 1 view .LVU2739
.LBB1781:
.LBI1767:
	.loc 1 5443 59 view .LVU2740
.LBB1770:
	.loc 1 5445 5 view .LVU2741
	.loc 1 5446 5 view .LVU2742
	.loc 1 5446 5 is_stmt 0 view .LVU2743
.LBE1770:
.LBE1781:
	.loc 1 5910 5 is_stmt 1 view .LVU2744
.LBB1782:
.LBI1782:
	.loc 1 5443 59 view .LVU2745
.LBB1783:
	.loc 1 5445 5 view .LVU2746
	.loc 1 5446 5 view .LVU2747
	.loc 1 5446 5 is_stmt 0 view .LVU2748
.LBE1783:
.LBE1782:
	.loc 1 5911 5 is_stmt 1 view .LVU2749
.LBB1784:
.LBI1758:
	.loc 1 5448 59 view .LVU2750
.LBB1761:
	.loc 1 5450 5 view .LVU2751
	.loc 1 5451 5 view .LVU2752
	.loc 1 5452 5 view .LVU2753
	.loc 1 5453 5 view .LVU2754
	.loc 1 5453 5 is_stmt 0 view .LVU2755
.LBE1761:
.LBE1784:
	.loc 1 5912 5 is_stmt 1 view .LVU2756
	.loc 1 5913 5 view .LVU2757
	.loc 1 5914 5 view .LVU2758
.LBB1785:
.LBI1785:
	.loc 1 5443 59 view .LVU2759
.LBB1786:
	.loc 1 5445 5 view .LVU2760
	.loc 1 5446 5 view .LVU2761
	.loc 1 5446 5 is_stmt 0 view .LVU2762
.LBE1786:
.LBE1785:
	.loc 1 5915 5 is_stmt 1 view .LVU2763
.LBB1787:
.LBI1787:
	.loc 1 5443 59 view .LVU2764
.LBB1788:
	.loc 1 5445 5 view .LVU2765
	.loc 1 5446 5 view .LVU2766
.LBE1788:
.LBE1787:
	.loc 1 5913 5 is_stmt 0 view .LVU2767
	ldr	r3, [sp, #20]
	ldr	r2, [sp, #16]
	cmp	r3, #0
.LBB1789:
.LBB1790:
	.loc 1 5450 12 view .LVU2768
	ldr	r3, [sp, #208]
.LBE1790:
.LBE1789:
.LBB1793:
.LBB1762:
	.loc 1 5450 10 view .LVU2769
	ldr	r1, [sp, #36]
.LBE1762:
.LBE1793:
.LBB1794:
.LBB1791:
	.loc 1 5450 12 view .LVU2770
	strb	r3, [sp, #94]
.LBE1791:
.LBE1794:
	.loc 1 5913 5 view .LVU2771
	mvn	r3, #0
	moveq	r3, r2
.LBB1795:
.LBB1763:
	.loc 1 5450 10 view .LVU2772
	str	r3, [sp, #80]
.LBE1763:
.LBE1795:
	.loc 1 5918 5 view .LVU2773
	mvn	r3, #0
	cmp	r9, #0
	ldr	r2, [sp, #12]
	movne	r2, r3
.LBB1796:
.LBB1764:
	.loc 1 5450 10 view .LVU2774
	uxtb	r3, r1
	lsr	r9, r1, #8
.LVL588:
	.loc 1 5450 10 view .LVU2775
	orr	r3, r5, r3, lsl #16
	orr	r9, r3, r9, lsl #24
.LBE1764:
.LBE1796:
.LBB1797:
.LBB1798:
	str	r2, [sp, #98]	@ unaligned
.LBE1798:
.LBE1797:
.LBE1809:
.LBE1813:
.LBB1814:
.LBB1815:
.LBB1816:
.LBB1817:
	.loc 1 3231 8 view .LVU2776
	ldr	r2, [r4, #8]
.LBE1817:
.LBE1816:
.LBE1815:
.LBE1814:
.LBB1829:
.LBB1810:
.LBB1800:
.LBB1765:
	.loc 1 5450 10 view .LVU2777
	str	r9, [sp, #84]
.LBE1765:
.LBE1800:
.LBE1810:
.LBE1829:
.LBB1830:
.LBB1826:
	.loc 1 3248 10 view .LVU2778
	add	r9, r7, #46
.LBB1822:
.LBB1818:
	.loc 1 3231 8 view .LVU2779
	cmp	r9, r2
.LBE1818:
.LBE1822:
.LBE1826:
.LBE1830:
.LBB1831:
.LBB1811:
.LBB1801:
.LBB1766:
	.loc 1 5450 10 view .LVU2780
	str	r10, [sp, #76]
.LBE1766:
.LBE1801:
.LBB1802:
.LBB1803:
	.loc 1 5445 10 view .LVU2781
	strh	fp, [sp, #88]	@ movhi
.LVL589:
	.loc 1 5445 10 view .LVU2782
.LBE1803:
.LBE1802:
	.loc 1 5916 5 is_stmt 1 view .LVU2783
.LBB1805:
.LBI1802:
	.loc 1 5443 59 view .LVU2784
.LBB1804:
	.loc 1 5445 5 view .LVU2785
	.loc 1 5446 5 view .LVU2786
	.loc 1 5446 5 is_stmt 0 view .LVU2787
.LBE1804:
.LBE1805:
	.loc 1 5917 5 is_stmt 1 view .LVU2788
.LBB1806:
.LBI1789:
	.loc 1 5448 59 view .LVU2789
.LBB1792:
	.loc 1 5450 5 view .LVU2790
	.loc 1 5451 5 view .LVU2791
	.loc 1 5452 5 view .LVU2792
	.loc 1 5453 5 view .LVU2793
	.loc 1 5453 5 is_stmt 0 view .LVU2794
.LBE1792:
.LBE1806:
	.loc 1 5918 5 is_stmt 1 view .LVU2795
.LBB1807:
.LBI1797:
	.loc 1 5448 59 view .LVU2796
.LBB1799:
	.loc 1 5450 5 view .LVU2797
	.loc 1 5451 5 view .LVU2798
	.loc 1 5452 5 view .LVU2799
	.loc 1 5453 5 view .LVU2800
	.loc 1 5453 5 is_stmt 0 view .LVU2801
.LBE1799:
.LBE1807:
	.loc 1 5919 5 is_stmt 1 view .LVU2802
	.loc 1 5919 5 is_stmt 0 view .LVU2803
.LBE1811:
.LBE1831:
	.loc 1 5947 5 is_stmt 1 view .LVU2804
.LBB1832:
.LBI1814:
	.loc 1 3245 62 view .LVU2805
.LBB1827:
	.loc 1 3247 5 view .LVU2806
	.loc 1 3248 5 view .LVU2807
.LBB1823:
.LBI1816:
	.loc 1 3229 62 view .LVU2808
.LBB1819:
	.loc 1 3231 5 view .LVU2809
	.loc 1 3231 8 is_stmt 0 view .LVU2810
	bhi	.L605
.L609:
	.loc 1 3236 5 is_stmt 1 view .LVU2811
.LBE1819:
.LBE1823:
	.loc 1 3250 56 is_stmt 0 view .LVU2812
	ldr	r2, [r4, #12]
	.loc 1 3250 5 view .LVU2813
	ldr	r0, [r4]
	add	r3, r2, r2, lsl #1
	mla	r0, r2, r7, r0
	rsb	r2, r2, r3, lsl #3
.LBB1824:
.LBB1820:
	.loc 1 3236 20 view .LVU2814
	str	r9, [r4, #4]
	.loc 1 3237 5 is_stmt 1 view .LVU2815
.LVL590:
	.loc 1 3237 5 is_stmt 0 view .LVU2816
.LBE1820:
.LBE1824:
	.loc 1 3250 5 is_stmt 1 view .LVU2817
	lsl	r2, r2, #1
	add	r1, sp, #56
.LVL591:
	.loc 1 3250 5 is_stmt 0 view .LVU2818
	bl	memcpy
.LVL592:
	.loc 1 3251 5 is_stmt 1 view .LVU2819
	.loc 1 3251 5 is_stmt 0 view .LVU2820
.LBE1827:
.LBE1832:
.LBB1833:
.LBI1833:
	.loc 1 3245 62 is_stmt 1 view .LVU2821
.LBB1834:
	.loc 1 3247 5 view .LVU2822
	.loc 1 3247 12 is_stmt 0 view .LVU2823
	ldr	r9, [r4, #4]
.LVL593:
	.loc 1 3248 5 is_stmt 1 view .LVU2824
.LBB1835:
.LBB1836:
	.loc 1 3231 8 is_stmt 0 view .LVU2825
	ldr	r3, [r4, #8]
.LBE1836:
.LBE1835:
	.loc 1 3248 10 view .LVU2826
	add	r10, r5, r9
.LVL594:
.LBB1840:
.LBI1835:
	.loc 1 3229 62 is_stmt 1 view .LVU2827
.LBB1837:
	.loc 1 3231 5 view .LVU2828
	.loc 1 3231 8 is_stmt 0 view .LVU2829
	cmp	r10, r3
	bhi	.L640
.L607:
	.loc 1 3236 5 is_stmt 1 view .LVU2830
.LBE1837:
.LBE1840:
	.loc 1 3250 56 is_stmt 0 view .LVU2831
	ldr	r3, [r4, #12]
	.loc 1 3250 5 view .LVU2832
	ldr	r0, [r4]
	mul	r2, r3, r5
	mla	r0, r3, r9, r0
	ldr	r1, [sp, #28]
.LBB1841:
.LBB1838:
	.loc 1 3236 20 view .LVU2833
	str	r10, [r4, #4]
	.loc 1 3237 5 is_stmt 1 view .LVU2834
.LVL595:
	.loc 1 3237 5 is_stmt 0 view .LVU2835
.LBE1838:
.LBE1841:
	.loc 1 3250 5 is_stmt 1 view .LVU2836
	bl	memcpy
.LVL596:
	.loc 1 3251 5 view .LVU2837
	.loc 1 3251 5 is_stmt 0 view .LVU2838
.LBE1834:
.LBE1833:
.LBB1844:
.LBI1844:
	.loc 1 3245 62 is_stmt 1 view .LVU2839
.LBB1845:
	.loc 1 3247 5 view .LVU2840
	.loc 1 3247 12 is_stmt 0 view .LVU2841
	ldr	r5, [r4, #4]
.LVL597:
	.loc 1 3248 5 is_stmt 1 view .LVU2842
.LBB1846:
.LBB1847:
	.loc 1 3231 8 is_stmt 0 view .LVU2843
	ldr	r3, [r4, #8]
.LBE1847:
.LBE1846:
	.loc 1 3248 10 view .LVU2844
	add	r9, r8, r5
.LVL598:
.LBB1851:
.LBI1846:
	.loc 1 3229 62 is_stmt 1 view .LVU2845
.LBB1848:
	.loc 1 3231 5 view .LVU2846
	.loc 1 3231 8 is_stmt 0 view .LVU2847
	cmp	r9, r3
	bhi	.L641
.L611:
	.loc 1 3236 5 is_stmt 1 view .LVU2848
.LBE1848:
.LBE1851:
	.loc 1 3250 56 is_stmt 0 view .LVU2849
	ldr	r3, [r4, #12]
	.loc 1 3250 5 view .LVU2850
	ldr	r0, [r4]
	mul	r2, r3, r8
	mla	r0, r3, r5, r0
	ldr	r1, [sp, #32]
.LBB1852:
.LBB1849:
	.loc 1 3236 20 view .LVU2851
	str	r9, [r4, #4]
	.loc 1 3237 5 is_stmt 1 view .LVU2852
.LVL599:
	.loc 1 3237 5 is_stmt 0 view .LVU2853
.LBE1849:
.LBE1852:
	.loc 1 3250 5 is_stmt 1 view .LVU2854
	bl	memcpy
.LVL600:
	.loc 1 3251 5 view .LVU2855
	.loc 1 3251 5 is_stmt 0 view .LVU2856
.LBE1845:
.LBE1844:
.LBB1855:
.LBI1855:
	.loc 1 3245 62 is_stmt 1 view .LVU2857
.LBB1856:
	.loc 1 3247 5 view .LVU2858
	.loc 1 3247 12 is_stmt 0 view .LVU2859
	ldr	r8, [r4, #4]
.LVL601:
	.loc 1 3248 5 is_stmt 1 view .LVU2860
	.loc 1 3248 10 is_stmt 0 view .LVU2861
	ldr	r2, [sp, #216]
.LBB1857:
.LBB1858:
	.loc 1 3231 8 view .LVU2862
	ldr	r3, [r4, #8]
.LBE1858:
.LBE1857:
	.loc 1 3248 10 view .LVU2863
	add	r5, r2, r8
.LVL602:
.LBB1862:
.LBI1857:
	.loc 1 3229 62 is_stmt 1 view .LVU2864
.LBB1859:
	.loc 1 3231 5 view .LVU2865
	.loc 1 3231 8 is_stmt 0 view .LVU2866
	cmp	r5, r3
	bhi	.L642
.L613:
	.loc 1 3236 5 is_stmt 1 view .LVU2867
.LBE1859:
.LBE1862:
	.loc 1 3250 56 is_stmt 0 view .LVU2868
	ldr	r3, [r4, #12]
	.loc 1 3250 5 view .LVU2869
	ldr	r2, [sp, #216]
	ldr	r0, [r4]
	mul	r2, r3, r2
	mla	r0, r3, r8, r0
.LBB1863:
.LBB1860:
	.loc 1 3236 20 view .LVU2870
	str	r5, [r4, #4]
	.loc 1 3237 5 is_stmt 1 view .LVU2871
.LVL603:
	.loc 1 3237 5 is_stmt 0 view .LVU2872
.LBE1860:
.LBE1863:
	.loc 1 3250 5 is_stmt 1 view .LVU2873
	ldr	r1, [sp, #212]
	bl	memcpy
.LVL604:
	.loc 1 3251 5 view .LVU2874
	.loc 1 3251 5 is_stmt 0 view .LVU2875
.LBE1856:
.LBE1855:
.LBB1866:
.LBI1866:
	.loc 1 3245 62 is_stmt 1 view .LVU2876
.LBB1867:
	.loc 1 3247 5 view .LVU2877
	.loc 1 3247 12 is_stmt 0 view .LVU2878
	ldr	r8, [r4, #4]
.LVL605:
	.loc 1 3248 5 is_stmt 1 view .LVU2879
.LBB1868:
.LBB1869:
	.loc 1 3231 8 is_stmt 0 view .LVU2880
	ldr	r3, [r4, #8]
.LBE1869:
.LBE1868:
	.loc 1 3248 10 view .LVU2881
	add	r5, fp, r8
.LVL606:
.LBB1873:
.LBI1868:
	.loc 1 3229 62 is_stmt 1 view .LVU2882
.LBB1870:
	.loc 1 3231 5 view .LVU2883
	.loc 1 3231 8 is_stmt 0 view .LVU2884
	cmp	r5, r3
	bhi	.L643
.L615:
	.loc 1 3236 5 is_stmt 1 view .LVU2885
.LBE1870:
.LBE1873:
	.loc 1 3250 56 is_stmt 0 view .LVU2886
	ldr	r3, [r4, #12]
	.loc 1 3250 5 view .LVU2887
	ldr	r0, [r4]
	mul	r2, r3, fp
	mla	r0, r3, r8, r0
.LBB1874:
.LBB1871:
	.loc 1 3236 20 view .LVU2888
	str	r5, [r4, #4]
	.loc 1 3237 5 is_stmt 1 view .LVU2889
.LVL607:
	.loc 1 3237 5 is_stmt 0 view .LVU2890
.LBE1871:
.LBE1874:
	.loc 1 3250 5 is_stmt 1 view .LVU2891
	ldr	r1, [sp, #148]
	bl	memcpy
.LVL608:
	.loc 1 3251 5 view .LVU2892
	.loc 1 3251 5 is_stmt 0 view .LVU2893
.LBE1867:
.LBE1866:
.LBB1877:
.LBI1877:
	.loc 1 3245 62 is_stmt 1 view .LVU2894
.LBB1878:
	.loc 1 3247 5 view .LVU2895
	.loc 1 3247 12 is_stmt 0 view .LVU2896
	ldr	r8, [r4, #20]
.LVL609:
	.loc 1 3248 5 is_stmt 1 view .LVU2897
.LBB1879:
.LBB1880:
	.loc 1 3231 8 is_stmt 0 view .LVU2898
	ldr	r3, [r4, #24]
.LBE1880:
.LBE1879:
	.loc 1 3248 10 view .LVU2899
	add	r5, r8, #1
.LVL610:
.LBB1884:
.LBI1879:
	.loc 1 3229 62 is_stmt 1 view .LVU2900
.LBB1881:
	.loc 1 3231 5 view .LVU2901
	.loc 1 3231 8 is_stmt 0 view .LVU2902
	cmp	r5, r3
	bhi	.L644
.L617:
	.loc 1 3236 5 is_stmt 1 view .LVU2903
.LBE1881:
.LBE1884:
	.loc 1 3250 56 is_stmt 0 view .LVU2904
	ldr	r2, [r4, #28]
	.loc 1 3250 5 view .LVU2905
	ldr	r0, [r4, #16]
.LBB1885:
.LBB1882:
	.loc 1 3236 20 view .LVU2906
	str	r5, [r4, #20]
	.loc 1 3237 5 is_stmt 1 view .LVU2907
.LVL611:
	.loc 1 3237 5 is_stmt 0 view .LVU2908
.LBE1882:
.LBE1885:
	.loc 1 3250 5 is_stmt 1 view .LVU2909
	mla	r0, r2, r8, r0
	add	r1, sp, #52
.LVL612:
	.loc 1 3250 5 is_stmt 0 view .LVU2910
	bl	memcpy
.LVL613:
	.loc 1 3251 5 is_stmt 1 view .LVU2911
	.loc 1 3251 5 is_stmt 0 view .LVU2912
.LBE1878:
.LBE1877:
	.loc 1 5959 12 view .LVU2913
	mov	r0, #1
	.loc 1 5960 1 view .LVU2914
	add	sp, sp, #108
	.cfi_remember_state
	.cfi_def_cfa_offset 36
	@ sp needed
	pop	{r4, r5, r6, r7, r8, r9, r10, fp, pc}
.LVL614:
.L641:
	.cfi_restore_state
.LBB1888:
.LBB1854:
.LBB1853:
.LBB1850:
	.loc 1 3233 9 is_stmt 1 view .LVU2915
	.loc 1 3233 14 is_stmt 0 view .LVU2916
	mov	r3, #1
	mov	r2, r9
	mov	r1, r4
	mov	r0, r6
	bl	mz_zip_array_ensure_capacity
.LVL615:
	.loc 1 3233 12 view .LVU2917
	cmp	r0, #0
	bne	.L611
.LVL616:
.L608:
	.loc 1 3233 12 view .LVU2918
.LBE1850:
.LBE1853:
.LBE1854:
.LBE1888:
	.loc 1 5955 9 is_stmt 1 view .LVU2919
.LBB1889:
.LBI1889:
	.loc 1 3229 62 view .LVU2920
.LBB1890:
	.loc 1 3231 5 view .LVU2921
	.loc 1 3231 8 is_stmt 0 view .LVU2922
	ldr	r3, [r4, #8]
	cmp	r7, r3
	bhi	.L618
.L620:
	.loc 1 3236 5 is_stmt 1 view .LVU2923
	.loc 1 3236 20 is_stmt 0 view .LVU2924
	str	r7, [r4, #4]
	.loc 1 3237 5 is_stmt 1 view .LVU2925
.L619:
.LVL617:
	.loc 1 3237 5 is_stmt 0 view .LVU2926
.LBE1890:
.LBE1889:
	.loc 1 5956 9 is_stmt 1 view .LVU2927
	.loc 1 5956 16 is_stmt 0 view .LVU2928
	mov	r3, #16
	b	.L598
.LVL618:
.L621:
	.loc 1 5956 16 view .LVU2929
	mov	r3, #3
	b	.L598
.LVL619:
.L605:
.LBB1892:
.LBB1828:
.LBB1825:
.LBB1821:
	.loc 1 3233 9 is_stmt 1 view .LVU2930
	.loc 1 3233 14 is_stmt 0 view .LVU2931
	mov	r3, #1
	mov	r2, r9
	mov	r1, r4
	mov	r0, r6
	bl	mz_zip_array_ensure_capacity
.LVL620:
	.loc 1 3233 12 view .LVU2932
	cmp	r0, #0
	bne	.L609
	b	.L608
.LVL621:
.L640:
	.loc 1 3233 12 view .LVU2933
.LBE1821:
.LBE1825:
.LBE1828:
.LBE1892:
.LBB1893:
.LBB1843:
.LBB1842:
.LBB1839:
	.loc 1 3233 9 is_stmt 1 view .LVU2934
	.loc 1 3233 14 is_stmt 0 view .LVU2935
	mov	r3, #1
	mov	r2, r10
	mov	r1, r4
	mov	r0, r6
	bl	mz_zip_array_ensure_capacity
.LVL622:
	.loc 1 3233 12 view .LVU2936
	cmp	r0, #0
	bne	.L607
	b	.L608
.LVL623:
.L642:
	.loc 1 3233 12 view .LVU2937
.LBE1839:
.LBE1842:
.LBE1843:
.LBE1893:
.LBB1894:
.LBB1865:
.LBB1864:
.LBB1861:
	.loc 1 3233 9 is_stmt 1 view .LVU2938
	.loc 1 3233 14 is_stmt 0 view .LVU2939
	mov	r3, #1
	mov	r2, r5
.LVL624:
	.loc 1 3233 14 view .LVU2940
	mov	r1, r4
	mov	r0, r6
	bl	mz_zip_array_ensure_capacity
.LVL625:
	.loc 1 3233 12 view .LVU2941
	cmp	r0, #0
	bne	.L613
	b	.L608
.LVL626:
.L643:
	.loc 1 3233 12 view .LVU2942
.LBE1861:
.LBE1864:
.LBE1865:
.LBE1894:
.LBB1895:
.LBB1876:
.LBB1875:
.LBB1872:
	.loc 1 3233 9 is_stmt 1 view .LVU2943
	.loc 1 3233 14 is_stmt 0 view .LVU2944
	mov	r3, #1
	mov	r2, r5
	mov	r1, r4
	mov	r0, r6
	bl	mz_zip_array_ensure_capacity
.LVL627:
	.loc 1 3233 12 view .LVU2945
	cmp	r0, #0
	bne	.L615
	b	.L608
.LVL628:
.L644:
	.loc 1 3233 12 view .LVU2946
.LBE1872:
.LBE1875:
.LBE1876:
.LBE1895:
.LBB1896:
.LBB1887:
.LBB1886:
.LBB1883:
	.loc 1 3233 9 is_stmt 1 view .LVU2947
	.loc 1 3233 14 is_stmt 0 view .LVU2948
	mov	r3, #1
	mov	r2, r5
	mov	r0, r6
	add	r1, r4, #16
	bl	mz_zip_array_ensure_capacity
.LVL629:
	.loc 1 3233 12 view .LVU2949
	cmp	r0, #0
	bne	.L617
	b	.L608
.LVL630:
.L618:
	.loc 1 3233 12 view .LVU2950
.LBE1883:
.LBE1886:
.LBE1887:
.LBE1896:
.LBB1897:
.LBB1891:
	.loc 1 3233 9 is_stmt 1 view .LVU2951
	.loc 1 3233 14 is_stmt 0 view .LVU2952
	mov	r3, #0
	mov	r2, r7
	mov	r1, r4
	mov	r0, r6
	bl	mz_zip_array_ensure_capacity
.LVL631:
	.loc 1 3233 12 view .LVU2953
	cmp	r0, #0
	bne	.L620
	b	.L619
.L646:
	.align	2
.L645:
	.word	33639248
.LBE1891:
.LBE1897:
	.cfi_endproc
.LFE138:
	.size	mz_zip_writer_add_to_central_dir, .-mz_zip_writer_add_to_central_dir
	.section	.text.mz_zip_time_t_to_dos_time.constprop.0,"ax",%progbits
	.align	2
	.syntax unified
	.arm
	.type	mz_zip_time_t_to_dos_time.constprop.0, %function
mz_zip_time_t_to_dos_time.constprop.0:
.LVL632:
.LFB187:
	.loc 1 3270 13 is_stmt 1 view -0
	.cfi_startproc
	@ args = 0, pretend = 0, frame = 8
	@ frame_needed = 0, uses_anonymous_args = 0
	.loc 1 3283 5 view .LVU2955
	.loc 1 3270 13 is_stmt 0 view .LVU2956
	push	{r4, r5, lr}
	.cfi_def_cfa_offset 12
	.cfi_offset 4, -12
	.cfi_offset 5, -8
	.cfi_offset 14, -4
	sub	sp, sp, #12
	.cfi_def_cfa_offset 24
	.loc 1 3270 13 view .LVU2957
	strd	r0, [sp]
	.loc 1 3283 21 view .LVU2958
	mov	r0, sp
.LVL633:
	.loc 1 3270 13 view .LVU2959
	mov	r5, r2
	mov	r4, r3
	.loc 1 3283 21 view .LVU2960
	bl	localtime
.LVL634:
	.loc 1 3286 5 is_stmt 1 view .LVU2961
	.loc 1 3286 68 is_stmt 0 view .LVU2962
	ldr	ip, [r0, #4]
	.loc 1 3286 45 view .LVU2963
	ldr	r3, [r0, #8]
	.loc 1 3286 68 view .LVU2964
	lsl	ip, ip, #5
	.loc 1 3286 52 view .LVU2965
	add	ip, ip, r3, lsl #11
	.loc 1 3286 90 view .LVU2966
	ldr	r3, [r0]
	.loc 1 3287 80 view .LVU2967
	ldr	r1, [r0, #16]
	.loc 1 3286 18 view .LVU2968
	add	ip, ip, r3, asr #1
	.loc 1 3287 51 view .LVU2969
	ldr	r3, [r0, #20]
	.loc 1 3287 80 view .LVU2970
	add	r1, r1, #1
	.loc 1 3287 18 view .LVU2971
	ldr	r2, [r0, #12]
	.loc 1 3287 51 view .LVU2972
	sub	r3, r3, #80
	.loc 1 3287 85 view .LVU2973
	lsl	r1, r1, #5
	.loc 1 3287 65 view .LVU2974
	add	r1, r1, r3, lsl #9
	.loc 1 3287 18 view .LVU2975
	add	r1, r1, r2
	.loc 1 3286 16 view .LVU2976
	strh	ip, [r5]	@ movhi
	.loc 1 3287 5 is_stmt 1 view .LVU2977
	.loc 1 3287 16 is_stmt 0 view .LVU2978
	strh	r1, [r4]	@ movhi
	.loc 1 3288 1 view .LVU2979
	add	sp, sp, #12
	.cfi_def_cfa_offset 12
	@ sp needed
	pop	{r4, r5, pc}
	.loc 1 3288 1 view .LVU2980
	.cfi_endproc
.LFE187:
	.size	mz_zip_time_t_to_dos_time.constprop.0, .-mz_zip_time_t_to_dos_time.constprop.0
	.section	.text.mz_zip_reader_read_central_dir,"ax",%progbits
	.align	2
	.syntax unified
	.arm
	.type	mz_zip_reader_read_central_dir, %function
mz_zip_reader_read_central_dir:
.LVL635:
.LFB75:
	.loc 1 3489 1 is_stmt 1 view -0
	.cfi_startproc
	@ args = 0, pretend = 0, frame = 4216
	@ frame_needed = 0, uses_anonymous_args = 0
	.loc 1 3490 5 view .LVU2982
	.loc 1 3491 5 view .LVU2983
	.loc 1 3492 5 view .LVU2984
	.loc 1 3493 5 view .LVU2985
	.loc 1 3495 5 view .LVU2986
	.loc 1 3496 5 view .LVU2987
	.loc 1 3489 1 is_stmt 0 view .LVU2988
	push	{r4, r5, r6, r7, r8, r9, r10, fp, lr}
	.cfi_def_cfa_offset 36
	.cfi_offset 4, -36
	.cfi_offset 5, -32
	.cfi_offset 6, -28
	.cfi_offset 7, -24
	.cfi_offset 8, -20
	.cfi_offset 9, -16
	.cfi_offset 10, -12
	.cfi_offset 11, -8
	.cfi_offset 14, -4
	.loc 1 3507 13 view .LVU2989
	ldr	r4, [r0]
	ldr	r2, [r0, #4]
	.loc 1 3489 1 view .LVU2990
	sub	sp, sp, #4224
	.cfi_def_cfa_offset 4260
	.loc 1 3507 8 view .LVU2991
	cmp	r4, #22
	.loc 1 3489 1 view .LVU2992
	sub	sp, sp, #4
	.cfi_def_cfa_offset 4264
.LVL636:
	.loc 1 3497 5 is_stmt 1 view .LVU2993
	.loc 1 3507 8 is_stmt 0 view .LVU2994
	sbcs	r3, r2, #0
	.loc 1 3489 1 view .LVU2995
	mov	r7, r0
	str	r1, [sp, #8]
.LVL637:
	.loc 1 3498 5 is_stmt 1 view .LVU2996
	.loc 1 3499 5 view .LVU2997
	.loc 1 3501 5 view .LVU2998
	.loc 1 3502 5 view .LVU2999
	.loc 1 3504 5 view .LVU3000
	.loc 1 3507 5 view .LVU3001
	.loc 1 3507 8 is_stmt 0 view .LVU3002
	bcs	.L650
.LVL638:
.L664:
	.loc 1 3508 9 is_stmt 1 view .LVU3003
	.loc 1 3508 16 is_stmt 0 view .LVU3004
	mov	r3, #8
.LVL639:
.L651:
	.loc 1 3508 16 view .LVU3005
	mov	r0, #0
.LBB1994:
.LBB1995:
	.loc 1 3323 28 view .LVU3006
	strb	r3, [r7, #22]
.LVL640:
.L649:
	.loc 1 3323 28 view .LVU3007
.LBE1995:
.LBE1994:
	.loc 1 3710 1 view .LVU3008
	add	sp, sp, #4224
	add	sp, sp, #4
	.cfi_remember_state
	.cfi_def_cfa_offset 36
	@ sp needed
	pop	{r4, r5, r6, r7, r8, r9, r10, fp, pc}
.LVL641:
.L650:
	.cfi_restore_state
	.loc 1 3510 5 is_stmt 1 view .LVU3009
.LBB1997:
.LBI1997:
	.loc 1 3442 16 view .LVU3010
.LBB1998:
	.loc 1 3444 5 view .LVU3011
	.loc 1 3445 5 view .LVU3012
	.loc 1 3446 5 view .LVU3013
	.loc 1 3449 5 view .LVU3014
	.loc 1 3453 5 view .LVU3015
	.loc 1 3453 153 is_stmt 0 view .LVU3016
	cmp	r4, #4096
	sbcs	r3, r2, #0
	mov	r8, r4
	movlt	r8, #4096
	mov	fp, r2
	movlt	fp, #0
	mov	r3, r2
	.loc 1 3453 18 view .LVU3017
	subs	r8, r8, #4096
.LBB1999:
.LBB2000:
	.loc 1 3464 16 view .LVU3018
	ldr	r10, .L836
.LBE2000:
	.loc 1 3478 29 view .LVU3019
	ldr	r9, .L836+4
.LBE1999:
	.loc 1 3453 18 view .LVU3020
	sbc	fp, fp, #0
.LVL642:
	.loc 1 3453 18 view .LVU3021
	add	r6, sp, #128
.LVL643:
.L662:
	.loc 1 3454 5 is_stmt 1 view .LVU3022
.LBB2004:
	.loc 1 3456 9 view .LVU3023
	.loc 1 3456 69 is_stmt 0 view .LVU3024
	subs	r4, r4, r8
	sbc	r3, r3, fp
	.loc 1 3456 20 view .LVU3025
	rsbs	r2, r4, #4096
	rscs	r3, r3, #0
	.loc 1 3458 13 view .LVU3026
	str	r6, [sp]
	.loc 1 3456 20 view .LVU3027
	bcc	.L653
.LVL644:
	.loc 1 3458 9 is_stmt 1 view .LVU3028
	.loc 1 3458 13 is_stmt 0 view .LVU3029
	ldr	r1, [r7, #48]
	ldr	r0, [r7, #60]
	mov	r2, r8
	mov	r3, fp
	str	r4, [sp, #4]
	blx	r1
.LVL645:
	.loc 1 3458 12 view .LVU3030
	cmp	r4, r0
	bne	.L654
	.loc 1 3461 9 is_stmt 1 view .LVU3031
.LVL646:
	.loc 1 3461 27 view .LVU3032
	subs	r5, r4, #4
.LVL647:
	.loc 1 3461 27 is_stmt 0 view .LVU3033
	bmi	.L655
.LVL648:
.L736:
	.loc 1 3461 27 view .LVU3034
	add	r3, r6, r4
	ldrb	r1, [r3, #-1]	@ zero_extendqisi2
	sub	r0, r4, #3
	adds	r4, r5, r8
	ldrb	r2, [r3, #-2]	@ zero_extendqisi2
	mov	lr, r1
	ldrb	r3, [r3, #-3]	@ zero_extendqisi2
	add	r0, r6, r0
	adc	r5, fp, r5, asr #31
.LVL649:
	.loc 1 3461 27 view .LVU3035
	b	.L658
.LVL650:
.L656:
	.loc 1 3461 27 view .LVU3036
	subs	r4, r4, #1
	sbc	r5, r5, #0
	cmp	r0, r6
	mov	lr, r2
	mov	r2, ip
	.loc 1 3461 27 view .LVU3037
	beq	.L655
.LVL651:
.L658:
.LBB2001:
	.loc 1 3463 13 is_stmt 1 view .LVU3038
.LBE2001:
	.loc 1 3461 33 view .LVU3039
	mov	ip, r3
.LBB2002:
	.loc 1 3463 180 is_stmt 0 view .LVU3040
	lsl	r1, r2, #16
	.loc 1 3463 68 view .LVU3041
	ldrb	r3, [r0, #-1]!	@ zero_extendqisi2
.LVL652:
	.loc 1 3464 13 is_stmt 1 view .LVU3042
	.loc 1 3464 13 is_stmt 0 view .LVU3043
.LBE2002:
	.loc 1 3461 27 is_stmt 1 view .LVU3044
.LBB2003:
	.loc 1 3463 130 is_stmt 0 view .LVU3045
	orr	r1, r1, ip, lsl #8
	orr	r1, r1, r3
	.loc 1 3463 21 view .LVU3046
	orr	r1, r1, lr, lsl #24
	.loc 1 3464 16 view .LVU3047
	cmp	r1, r10
	bne	.L656
	.loc 1 3466 17 is_stmt 1 view .LVU3048
	.loc 1 3466 43 is_stmt 0 view .LVU3049
	ldr	lr, [r7]
.LVL653:
	.loc 1 3466 43 view .LVU3050
	ldr	r1, [r7, #4]
	subs	lr, lr, r4
	sbc	r1, r1, r5
	.loc 1 3466 20 view .LVU3051
	cmp	lr, #22
	sbcs	r1, r1, #0
	bcc	.L656
.LBE2003:
	.loc 1 3473 13 is_stmt 1 view .LVU3052
.LVL654:
	.loc 1 3474 13 view .LVU3053
.LBE2004:
	.loc 1 3484 5 view .LVU3054
	.loc 1 3485 5 view .LVU3055
	.loc 1 3485 5 is_stmt 0 view .LVU3056
.LBE1998:
.LBE1997:
	.loc 1 3514 5 is_stmt 1 view .LVU3057
	.loc 1 3514 9 is_stmt 0 view .LVU3058
	mov	r3, #22
	str	r6, [sp]
	str	r3, [sp, #4]
	mov	r2, r4
	mov	r3, r5
	ldr	r1, [r7, #48]
	ldr	r0, [r7, #60]
	blx	r1
.LVL655:
	.loc 1 3514 8 view .LVU3059
	cmp	r0, #22
	bne	.L742
	.loc 1 3517 5 is_stmt 1 view .LVU3060
	.loc 1 3517 8 is_stmt 0 view .LVU3061
	ldr	r3, [r6]
	cmp	r3, r10
	bne	.L664
	.loc 1 3520 5 is_stmt 1 view .LVU3062
	.loc 1 3520 8 is_stmt 0 view .LVU3063
	cmp	r4, #76
	sbcs	r3, r5, #0
	blt	.L812
	.loc 1 3522 9 is_stmt 1 view .LVU3064
	.loc 1 3522 13 is_stmt 0 view .LVU3065
	mov	r1, #20
	str	r1, [sp, #4]
	add	r1, sp, #52
.LVL656:
	.loc 1 3522 60 view .LVU3066
	subs	r2, r4, #20
	.loc 1 3522 13 view .LVU3067
	str	r1, [sp]
	sbc	r3, r5, #0
	ldr	r1, [r7, #48]
.LVL657:
	.loc 1 3522 13 view .LVU3068
	ldr	r0, [r7, #60]
	blx	r1
.LVL658:
	.loc 1 3522 12 view .LVU3069
	cmp	r0, #20
	bne	.L812
	.loc 1 3524 13 is_stmt 1 view .LVU3070
	.loc 1 3524 16 is_stmt 0 view .LVU3071
	ldr	r3, .L836+8
	ldr	r2, [r6, #-76]
	cmp	r2, r3
	bne	.L812
	.loc 1 3526 17 is_stmt 1 view .LVU3072
	.loc 1 3527 74 is_stmt 0 view .LVU3073
	ldr	r1, [r7]
	.loc 1 3526 46 view .LVU3074
	ldr	r2, [sp, #60]	@ unaligned
	.loc 1 3527 74 view .LVU3075
	ldr	r0, [r7, #4]
	subs	r1, r1, #56
	.loc 1 3526 46 view .LVU3076
	ldr	r3, [sp, #64]	@ unaligned
.LVL659:
	.loc 1 3527 17 is_stmt 1 view .LVU3077
	.loc 1 3527 74 is_stmt 0 view .LVU3078
	sbc	r0, r0, #0
	.loc 1 3527 20 view .LVU3079
	cmp	r1, r2
	sbcs	r0, r0, r3
	bcc	.L664
	.loc 1 3530 17 is_stmt 1 view .LVU3080
	.loc 1 3530 21 is_stmt 0 view .LVU3081
	mov	r1, #56
	str	r1, [sp, #4]
	sub	r1, r6, #56
	str	r1, [sp]
	ldr	r1, [r7, #48]
	ldr	r0, [r7, #60]
	blx	r1
.LVL660:
	.loc 1 3530 20 view .LVU3082
	cmp	r0, #56
	bne	.L812
	.loc 1 3532 21 is_stmt 1 view .LVU3083
	.loc 1 3532 24 is_stmt 0 view .LVU3084
	ldr	r3, .L836+12
	ldr	r2, [r6, #-56]
	.loc 1 3534 29 view .LVU3085
	ldr	r8, [r7, #64]
	.loc 1 3532 24 view .LVU3086
	cmp	r2, r3
	.loc 1 3534 25 is_stmt 1 view .LVU3087
	.loc 1 3534 49 is_stmt 0 view .LVU3088
	moveq	r3, #1
	streq	r3, [r8, #52]
	b	.L666
.LVL661:
.L655:
.LBB2008:
.LBB2007:
.LBB2005:
	.loc 1 3471 9 is_stmt 1 view .LVU3089
	.loc 1 3478 9 view .LVU3090
	.loc 1 3478 12 is_stmt 0 view .LVU3091
	orrs	r3, r8, fp
	beq	.L654
	.loc 1 3478 29 view .LVU3092
	mov	r2, #0
	.loc 1 3478 38 view .LVU3093
	ldr	r4, [r7]
	ldr	r3, [r7, #4]
	.loc 1 3478 55 view .LVU3094
	subs	r0, r4, r8
	sbc	r1, r3, fp
	.loc 1 3478 29 view .LVU3095
	cmp	r9, r0
	sbcs	r1, r2, r1
	bcc	.L654
	.loc 1 3481 9 is_stmt 1 view .LVU3096
	.loc 1 3481 113 is_stmt 0 view .LVU3097
	ldr	r1, .L836+16
	cmp	r8, r1
	sbcs	r0, fp, #0
	movlt	r8, r1
.LVL662:
	.loc 1 3481 113 view .LVU3098
	movlt	fp, r2
	.loc 1 3481 22 view .LVU3099
	ldr	r1, .L836+20
	adds	r8, r8, r1
	sbc	fp, fp, #0
.LVL663:
	.loc 1 3481 22 view .LVU3100
.LBE2005:
	.loc 1 3454 5 is_stmt 1 view .LVU3101
	.loc 1 3455 5 is_stmt 0 view .LVU3102
	b	.L662
.L653:
.LVL664:
.LBB2006:
	.loc 1 3458 9 is_stmt 1 view .LVU3103
	.loc 1 3458 13 is_stmt 0 view .LVU3104
	mov	r3, #4096
	str	r3, [sp, #4]
	mov	r2, r8
	mov	r3, fp
	ldr	r1, [r7, #48]
	ldr	r0, [r7, #60]
	blx	r1
.LVL665:
	.loc 1 3458 12 view .LVU3105
	cmp	r0, #4096
	.loc 1 3458 13 view .LVU3106
	mov	r4, r0
	.loc 1 3458 12 view .LVU3107
	.loc 1 3461 16 view .LVU3108
	ldreq	r5, .L836+24
	beq	.L736
.LVL666:
.L654:
	.loc 1 3461 16 view .LVU3109
.LBE2006:
.LBE2007:
.LBE2008:
	.loc 1 3511 9 is_stmt 1 view .LVU3110
.LBB2009:
.LBI1994:
	.loc 1 3320 62 view .LVU3111
.LBB1996:
	.loc 1 3322 5 view .LVU3112
	.loc 1 3323 9 view .LVU3113
	.loc 1 3324 5 view .LVU3114
	.loc 1 3324 5 is_stmt 0 view .LVU3115
.LBE1996:
.LBE2009:
	.loc 1 3511 16 view .LVU3116
	mov	r3, #7
	b	.L651
.LVL667:
.L742:
.LBB2010:
	.loc 1 3511 16 view .LVU3117
	mov	r3, #20
	b	.L651
.LVL668:
.L812:
	.loc 1 3511 16 view .LVU3118
	ldr	r8, [r7, #64]
.L666:
	.loc 1 3511 16 view .LVU3119
.LBE2010:
	.loc 1 3541 5 is_stmt 1 view .LVU3120
	.loc 1 3548 8 is_stmt 0 view .LVU3121
	ldr	r0, [r8, #52]
	.loc 1 3541 108 view .LVU3122
	ldrh	r2, [r6, #10]
	ldrh	ip, [r6, #4]
	.loc 1 3548 8 view .LVU3123
	cmp	r0, #0
	ldrh	r3, [r6, #8]
	ldrh	r1, [r6, #6]
	.loc 1 3546 248 view .LVU3124
	ldr	r9, [r6, #16]
	.loc 1 3543 19 view .LVU3125
	moveq	r10, ip
	.loc 1 3546 14 view .LVU3126
	moveq	r6, r0
.LVL669:
	.loc 1 3545 15 view .LVU3127
	ldr	r4, [sp, #140]
.LVL670:
	.loc 1 3541 25 view .LVU3128
	str	r2, [r7, #16]
	.loc 1 3542 5 is_stmt 1 view .LVU3129
.LVL671:
	.loc 1 3543 5 view .LVU3130
	.loc 1 3544 5 view .LVU3131
	.loc 1 3545 5 view .LVU3132
	.loc 1 3546 5 view .LVU3133
	.loc 1 3548 5 view .LVU3134
	.loc 1 3548 8 is_stmt 0 view .LVU3135
	bne	.L813
.LVL672:
.L669:
	.loc 1 3586 5 is_stmt 1 view .LVU3136
	.loc 1 3586 8 is_stmt 0 view .LVU3137
	cmp	r3, r2
	bne	.L674
	.loc 1 3589 5 is_stmt 1 view .LVU3138
	.loc 1 3589 8 is_stmt 0 view .LVU3139
	orrs	r3, r10, r1
.LVL673:
	.loc 1 3589 8 view .LVU3140
	beq	.L675
	.loc 1 3589 50 discriminator 1 view .LVU3141
	cmp	r1, #1
	cmpeq	r10, #1
	bne	.L674
.L675:
	.loc 1 3592 5 is_stmt 1 view .LVU3142
	.loc 1 3592 41 is_stmt 0 view .LVU3143
	add	r3, r2, r2, lsl #1
	rsb	r3, r2, r3, lsl #3
	.loc 1 3592 8 view .LVU3144
	cmp	r4, r3, lsl #1
	bcc	.L676
	.loc 1 3595 5 is_stmt 1 view .LVU3145
	.loc 1 3595 8 is_stmt 0 view .LVU3146
	ldr	ip, [r7]
	.loc 1 3595 19 view .LVU3147
	adds	r0, r4, r9
	.loc 1 3595 8 view .LVU3148
	ldr	r3, [r7, #4]
	.loc 1 3595 19 view .LVU3149
	adc	r1, r6, #0
.LVL674:
	.loc 1 3595 8 view .LVU3150
	cmp	ip, r0
	sbcs	r3, r3, r1
	bcc	.L676
	.loc 1 3497 40 view .LVU3151
	ldr	r3, [sp, #8]
	.loc 1 3600 8 view .LVU3152
	cmp	r2, #0
	.loc 1 3497 40 view .LVU3153
	and	r5, r3, #2048
	.loc 1 3598 5 is_stmt 1 view .LVU3154
	.loc 1 3598 40 is_stmt 0 view .LVU3155
	str	r9, [r7, #8]
	str	r6, [r7, #12]
	.loc 1 3600 5 is_stmt 1 view .LVU3156
	.loc 1 3600 8 is_stmt 0 view .LVU3157
	bne	.L677
.LVL675:
.L687:
	.loc 1 3706 5 is_stmt 1 view .LVU3158
	.loc 1 3706 8 is_stmt 0 view .LVU3159
	cmp	r5, #0
	beq	.L814
.LVL676:
.L679:
	.loc 1 3709 12 view .LVU3160
	mov	r0, #1
.LVL677:
	.loc 1 3709 12 view .LVU3161
	b	.L649
.LVL678:
.L813:
.LBB2047:
	.loc 1 3550 9 is_stmt 1 view .LVU3162
	.loc 1 3553 19 is_stmt 0 view .LVU3163
	ldr	r3, [r6, #-52]	@ unaligned
	.loc 1 3550 19 view .LVU3164
	ldr	r1, [r6, #-60]
.LVL679:
	.loc 1 3551 9 is_stmt 1 view .LVU3165
	.loc 1 3556 12 is_stmt 0 view .LVU3166
	cmp	r3, #44
	.loc 1 3553 19 view .LVU3167
	ldr	r3, [r6, #-48]	@ unaligned
	.loc 1 3551 19 view .LVU3168
	ldr	r2, [sp, #104]
	.loc 1 3556 12 view .LVU3169
	sbcs	r3, r3, #0
	.loc 1 3551 19 view .LVU3170
	ldr	r0, [sp, #108]
.LVL680:
	.loc 1 3552 9 is_stmt 1 view .LVU3171
	.loc 1 3552 19 is_stmt 0 view .LVU3172
	ldr	r3, [sp, #96]
	ldr	ip, [sp, #100]
.LVL681:
	.loc 1 3553 9 is_stmt 1 view .LVU3173
	.loc 1 3554 9 view .LVU3174
	.loc 1 3554 19 is_stmt 0 view .LVU3175
	ldr	r4, [sp, #112]
	ldr	lr, [sp, #116]
.LVL682:
	.loc 1 3556 9 is_stmt 1 view .LVU3176
	.loc 1 3556 12 is_stmt 0 view .LVU3177
	bcc	.L676
	.loc 1 3559 9 is_stmt 1 view .LVU3178
	.loc 1 3559 12 is_stmt 0 view .LVU3179
	cmp	r1, #1
	bne	.L674
	.loc 1 3563 9 is_stmt 1 view .LVU3180
	.loc 1 3563 12 is_stmt 0 view .LVU3181
	mvn	r5, #0
	mov	r1, #0
	cmp	r5, r2
	sbcs	r0, r1, r0
.LVL683:
	.loc 1 3563 12 view .LVU3182
	bcc	.L673
	.loc 1 3566 9 is_stmt 1 view .LVU3183
	.loc 1 3568 12 is_stmt 0 view .LVU3184
	cmp	r5, r3
	sbcs	ip, r1, ip
.LVL684:
	.loc 1 3566 29 view .LVU3185
	str	r2, [r7, #16]
	.loc 1 3568 9 is_stmt 1 view .LVU3186
	.loc 1 3568 12 is_stmt 0 view .LVU3187
	bcc	.L673
	.loc 1 3571 9 is_stmt 1 view .LVU3188
.LVL685:
	.loc 1 3574 9 view .LVU3189
	.loc 1 3574 12 is_stmt 0 view .LVU3190
	cmp	r5, r4
	sbcs	r1, r1, lr
	bcc	.L738
	.loc 1 3577 9 is_stmt 1 view .LVU3191
.LVL686:
	.loc 1 3579 9 view .LVU3192
	.loc 1 3579 23 is_stmt 0 view .LVU3193
	ldr	r10, [r6, #-40]
.LVL687:
	.loc 1 3581 9 is_stmt 1 view .LVU3194
	.loc 1 3581 25 is_stmt 0 view .LVU3195
	ldr	r1, [r6, #-36]
.LVL688:
	.loc 1 3583 9 is_stmt 1 view .LVU3196
	.loc 1 3583 18 is_stmt 0 view .LVU3197
	ldr	r9, [sp, #120]
.LVL689:
	.loc 1 3583 18 view .LVU3198
	ldr	r6, [sp, #124]
.LVL690:
	.loc 1 3583 18 view .LVU3199
	b	.L669
.LVL691:
.L674:
	.loc 1 3560 13 is_stmt 1 view .LVU3200
	.loc 1 3560 20 is_stmt 0 view .LVU3201
	mov	r3, #10
	b	.L651
.LVL692:
.L677:
	.loc 1 3560 20 view .LVU3202
.LBE2047:
.LBB2048:
	.loc 1 3602 9 is_stmt 1 view .LVU3203
	.loc 1 3604 9 view .LVU3204
.LBB2011:
.LBI2011:
	.loc 1 3229 62 view .LVU3205
.LBB2012:
	.loc 1 3231 5 view .LVU3206
	.loc 1 3231 8 is_stmt 0 view .LVU3207
	ldr	r3, [r8, #8]
	cmp	r4, r3
	movls	fp, r8
	bhi	.L815
.L680:
	.loc 1 3236 5 is_stmt 1 view .LVU3208
.LBE2012:
.LBE2011:
.LBB2015:
.LBB2016:
	.loc 1 3231 8 is_stmt 0 view .LVU3209
	ldr	r3, [fp, #24]
.LBE2016:
.LBE2015:
.LBB2020:
.LBB2013:
	.loc 1 3236 20 view .LVU3210
	str	r4, [r8, #4]
	.loc 1 3237 5 is_stmt 1 view .LVU3211
.LVL693:
	.loc 1 3237 5 is_stmt 0 view .LVU3212
.LBE2013:
.LBE2020:
.LBB2021:
.LBI2015:
	.loc 1 3229 62 is_stmt 1 view .LVU3213
.LBB2017:
	.loc 1 3231 5 view .LVU3214
	.loc 1 3231 8 is_stmt 0 view .LVU3215
	cmp	r3, r2
	movcs	r8, fp
	bcc	.L816
.LVL694:
.L682:
	.loc 1 3236 5 is_stmt 1 view .LVU3216
.LBE2017:
.LBE2021:
	.loc 1 3608 12 is_stmt 0 view .LVU3217
	cmp	r5, #0
.LBB2022:
.LBB2018:
	.loc 1 3236 20 view .LVU3218
	str	r2, [fp, #20]
	.loc 1 3237 5 is_stmt 1 view .LVU3219
.LVL695:
	.loc 1 3237 5 is_stmt 0 view .LVU3220
.LBE2018:
.LBE2022:
	.loc 1 3608 9 is_stmt 1 view .LVU3221
	.loc 1 3608 12 is_stmt 0 view .LVU3222
	bne	.L684
	.loc 1 3610 13 is_stmt 1 view .LVU3223
.LBB2023:
.LBB2024:
	.loc 1 3231 8 is_stmt 0 view .LVU3224
	ldr	r3, [r8, #40]
.LBE2024:
.LBE2023:
	.loc 1 3610 18 view .LVU3225
	ldr	fp, [r7, #16]
.LVL696:
.LBB2028:
.LBI2023:
	.loc 1 3229 62 is_stmt 1 view .LVU3226
.LBB2025:
	.loc 1 3231 5 view .LVU3227
	.loc 1 3231 8 is_stmt 0 view .LVU3228
	cmp	fp, r3
	movls	r3, r8
	bhi	.L817
.L685:
	.loc 1 3236 5 is_stmt 1 view .LVU3229
	.loc 1 3236 20 is_stmt 0 view .LVU3230
	str	fp, [r8, #36]
	.loc 1 3237 5 is_stmt 1 view .LVU3231
.LVL697:
	.loc 1 3236 20 is_stmt 0 view .LVU3232
	mov	r8, r3
.L684:
	.loc 1 3236 20 view .LVU3233
.LBE2025:
.LBE2028:
	.loc 1 3614 9 is_stmt 1 view .LVU3234
	.loc 1 3614 13 is_stmt 0 view .LVU3235
	str	r4, [sp, #4]
	ldr	r3, [r8]
	mov	r2, r9
	str	r3, [sp]
	ldr	r1, [r7, #48]
	mov	r3, r6
	ldr	r0, [r7, #60]
	blx	r1
.LVL698:
	.loc 1 3614 12 view .LVU3236
	cmp	r0, r4
	bne	.L742
	.loc 1 3618 9 is_stmt 1 view .LVU3237
	.loc 1 3619 38 is_stmt 0 view .LVU3238
	ldr	r3, [r7, #16]
	.loc 1 3618 35 view .LVU3239
	ldr	lr, [r7, #64]
	.loc 1 3619 38 view .LVU3240
	cmp	r3, #0
	.loc 1 3618 11 view .LVU3241
	ldr	r3, [lr]
	str	r3, [sp, #8]
.LVL699:
	.loc 1 3619 9 is_stmt 1 view .LVU3242
	.loc 1 3619 38 view .LVU3243
	beq	.L687
.LBB2029:
	.loc 1 3621 13 view .LVU3244
	.loc 1 3622 13 view .LVU3245
	.loc 1 3624 13 view .LVU3246
	.loc 1 3624 16 is_stmt 0 view .LVU3247
	cmp	r4, #45
	bls	.L676
.LBE2029:
	.loc 1 3619 31 view .LVU3248
	mov	r1, #0
.LBB2039:
	.loc 1 3633 25 view .LVU3249
	mov	r9, r5
.LVL700:
	.loc 1 3632 23 view .LVU3250
	mov	fp, r1
.LBE2039:
	.loc 1 3618 11 view .LVU3251
	ldr	r3, [sp, #8]
	.loc 1 3618 11 view .LVU3252
	b	.L688
.LVL701:
.L691:
.LBB2040:
	.loc 1 3678 13 is_stmt 1 view .LVU3253
	.loc 1 3678 16 is_stmt 0 view .LVU3254
	cmn	r0, #1
	cmnne	r2, #1
	beq	.L696
	.loc 1 3680 17 is_stmt 1 view .LVU3255
	.loc 1 3680 315 is_stmt 0 view .LVU3256
	cmp	fp, #0
	cmpeq	r2, r0
	movne	ip, #1
	moveq	ip, #0
	.loc 1 3680 238 view .LVU3257
	ldr	r5, [r3, #10]	@ unaligned
	.loc 1 3680 315 view .LVU3258
	cmp	r5, #0
	movne	ip, #0
	andeq	ip, ip, #1
	cmp	ip, #0
	bne	.L676
	.loc 1 3680 346 discriminator 3 view .LVU3259
	subs	r0, r0, #0
	.loc 1 3680 346 discriminator 3 view .LVU3260
	movne	r0, #1
.LVL702:
	.loc 1 3680 346 discriminator 3 view .LVU3261
	cmp	r2, #0
	movne	r0, #0
	cmp	r0, #0
	bne	.L676
.L696:
	.loc 1 3684 13 is_stmt 1 view .LVU3262
	.loc 1 3684 24 is_stmt 0 view .LVU3263
	ldrh	r0, [r3, #34]	@ unaligned
.LVL703:
	.loc 1 3685 13 is_stmt 1 view .LVU3264
	.loc 1 3685 16 is_stmt 0 view .LVU3265
	ldr	ip, .L836+28
	cmp	r0, ip
	beq	.L674
	.loc 1 3685 43 discriminator 1 view .LVU3266
	cmp	r10, r0
	cmpne	r0, #1
	movne	r0, #1
	moveq	r0, #0
	bne	.L674
	.loc 1 3688 13 is_stmt 1 view .LVU3267
	.loc 1 3688 16 is_stmt 0 view .LVU3268
	cmp	fp, r0
	cmneq	r2, #1
	beq	.L697
	.loc 1 3690 17 is_stmt 1 view .LVU3269
	.loc 1 3690 265 is_stmt 0 view .LVU3270
	ldr	r0, [r3, #42]	@ unaligned
	.loc 1 3690 20 view .LVU3271
	ldr	ip, [r7]
	.loc 1 3690 378 view .LVU3272
	adds	r2, r0, r2
.LVL704:
	.loc 1 3690 378 view .LVU3273
	adc	r0, fp, #0
	adds	r2, r2, #30
	adc	r0, r0, #0
	.loc 1 3690 20 view .LVU3274
	cmp	ip, r2
	ldr	r2, [r7, #4]
	sbcs	r2, r2, r0
	bcc	.L676
.L697:
	.loc 1 3694 13 is_stmt 1 view .LVU3275
.LVL705:
	.loc 1 3695 13 view .LVU3276
	.loc 1 3695 16 is_stmt 0 view .LVU3277
	ldrh	r2, [r3, #8]	@ unaligned
	tst	r2, #8192
	bne	.L744
	.loc 1 3698 13 is_stmt 1 view .LVU3278
	.loc 1 3698 293 is_stmt 0 view .LVU3279
	ldrh	r0, [r3, #30]	@ unaligned
	.loc 1 3698 142 view .LVU3280
	ldrh	r2, [r3, #28]	@ unaligned
	.loc 1 3698 223 view .LVU3281
	add	r2, r2, r0
	.loc 1 3698 443 view .LVU3282
	ldrh	r0, [r3, #32]	@ unaligned
	.loc 1 3698 36 view .LVU3283
	add	r2, r2, #46
	add	r2, r2, r0
.LVL706:
	.loc 1 3698 16 view .LVU3284
	cmp	r2, r4
	bhi	.L676
	.loc 1 3701 13 is_stmt 1 discriminator 2 view .LVU3285
	.loc 1 3701 15 is_stmt 0 discriminator 2 view .LVU3286
	sub	r4, r4, r2
.LVL707:
	.loc 1 3702 13 is_stmt 1 discriminator 2 view .LVU3287
	.loc 1 3702 15 is_stmt 0 discriminator 2 view .LVU3288
	add	r3, r3, r2
.LVL708:
	.loc 1 3702 15 discriminator 2 view .LVU3289
.LBE2040:
	.loc 1 3619 61 is_stmt 1 discriminator 2 view .LVU3290
	.loc 1 3619 38 is_stmt 0 discriminator 2 view .LVU3291
	ldr	r2, [r7, #16]
.LVL709:
	.loc 1 3619 61 discriminator 2 view .LVU3292
	add	r1, r1, #1
.LVL710:
	.loc 1 3619 38 is_stmt 1 discriminator 2 view .LVU3293
	cmp	r2, r1
	bls	.L818
.LBB2041:
	.loc 1 3621 13 view .LVU3294
	.loc 1 3622 13 view .LVU3295
	.loc 1 3624 13 view .LVU3296
	.loc 1 3624 16 is_stmt 0 view .LVU3297
	cmp	r4, #45
	bls	.L676
.LVL711:
.L688:
	.loc 1 3624 200 discriminator 1 view .LVU3298
	ldr	r2, [r3]	@ unaligned
	.loc 1 3624 54 discriminator 1 view .LVU3299
	ldr	r0, .L836+32
	cmp	r2, r0
	bne	.L676
	.loc 1 3627 13 is_stmt 1 view .LVU3300
	.loc 1 3627 95 is_stmt 0 view .LVU3301
	ldr	r0, [sp, #8]
	.loc 1 3627 79 view .LVU3302
	ldr	r2, [lr, #16]
	.loc 1 3629 16 view .LVU3303
	cmp	r9, #0
	.loc 1 3627 95 view .LVU3304
	sub	r0, r3, r0
	.loc 1 3627 79 view .LVU3305
	str	r0, [r2, r1, lsl #2]
	.loc 1 3629 13 is_stmt 1 view .LVU3306
	.loc 1 3630 17 view .LVU3307
	.loc 1 3632 13 view .LVU3308
	.loc 1 3630 90 is_stmt 0 view .LVU3309
	ldreq	r2, [lr, #32]
	streq	r1, [r2, r1, lsl #2]
	.loc 1 3638 16 view .LVU3310
	ldr	r2, [lr, #56]
	.loc 1 3636 27 view .LVU3311
	ldrh	r5, [r3, #30]	@ unaligned
	.loc 1 3638 69 view .LVU3312
	clz	r2, r2
	cmp	r5, #0
	lsr	r2, r2, #5
	moveq	r2, #0
	ldrh	ip, [r3, #28]	@ unaligned
	cmp	r2, #0
	.loc 1 3633 274 view .LVU3313
	ldr	r0, [r3, #24]	@ unaligned
	.loc 1 3632 266 view .LVU3314
	ldr	r2, [r3, #20]	@ unaligned
.LVL712:
	.loc 1 3633 13 is_stmt 1 view .LVU3315
	.loc 1 3634 13 view .LVU3316
	.loc 1 3634 264 is_stmt 0 view .LVU3317
	ldr	r6, [r3, #42]	@ unaligned
.LVL713:
	.loc 1 3635 13 is_stmt 1 view .LVU3318
	str	ip, [sp, #12]
.LVL714:
	.loc 1 3636 13 view .LVU3319
	.loc 1 3638 13 view .LVU3320
	.loc 1 3638 69 is_stmt 0 view .LVU3321
	beq	.L691
	.loc 1 3640 66 view .LVU3322
	cmp	r0, r2
	movcc	ip, r2
	movcs	ip, r0
	.loc 1 3640 172 view .LVU3323
	cmp	ip, r6
	mov	r8, #0
	movcc	ip, r6
	.loc 1 3639 33 view .LVU3324
	cmp	r8, fp
	cmneq	ip, #1
	bne	.L691
.LBB2030:
	.loc 1 3643 17 is_stmt 1 view .LVU3325
.LVL715:
	.loc 1 3645 17 view .LVU3326
.LBB2031:
	.loc 1 3647 21 view .LVU3327
	.loc 1 3647 86 is_stmt 0 view .LVU3328
	ldr	ip, [sp, #12]
.LBB2032:
	.loc 1 3672 46 view .LVU3329
	str	r3, [sp, #12]
.LBE2032:
	.loc 1 3647 86 view .LVU3330
	add	ip, ip, #46
	.loc 1 3647 37 view .LVU3331
	add	ip, r3, ip
.LVL716:
	.loc 1 3647 37 view .LVU3332
	b	.L695
.LVL717:
.L821:
.LBB2033:
	.loc 1 3672 46 view .LVU3333
	mvn	r3, #3
	.loc 1 3658 41 view .LVU3334
	ldrh	r6, [ip, #2]	@ unaligned
	ldrh	r8, [ip]	@ unaligned
.LVL718:
	.loc 1 3658 25 is_stmt 1 view .LVU3335
	.loc 1 3660 25 view .LVU3336
	.loc 1 3672 46 is_stmt 0 view .LVU3337
	sub	r3, r3, r6
	.loc 1 3660 46 view .LVU3338
	add	r6, r6, #4
	.loc 1 3660 28 view .LVU3339
	cmp	r6, r5
	bhi	.L676
	.loc 1 3663 28 view .LVU3340
	cmp	r8, #1
	beq	.L819
.LBE2033:
	.loc 1 3673 30 view .LVU3341
	adds	r5, r5, r3
.LVL719:
.LBB2034:
	.loc 1 3671 37 view .LVU3342
	add	ip, ip, r6
.LVL720:
	.loc 1 3672 25 is_stmt 1 view .LVU3343
	.loc 1 3672 25 is_stmt 0 view .LVU3344
.LBE2034:
	.loc 1 3673 30 is_stmt 1 view .LVU3345
	beq	.L820
.LVL721:
.L695:
	.loc 1 3649 21 view .LVU3346
.LBB2035:
	.loc 1 3651 25 view .LVU3347
	.loc 1 3652 25 view .LVU3348
	.loc 1 3654 25 view .LVU3349
	.loc 1 3657 25 view .LVU3350
	.loc 1 3663 25 view .LVU3351
	.loc 1 3671 25 view .LVU3352
	.loc 1 3654 28 is_stmt 0 view .LVU3353
	cmp	r5, #3
	bhi	.L821
.LVL722:
.L676:
	.loc 1 3654 28 view .LVU3354
.LBE2035:
.LBE2031:
.LBE2030:
.LBE2041:
.LBE2048:
.LBB2049:
	.loc 1 3557 13 is_stmt 1 view .LVU3355
	.loc 1 3557 20 is_stmt 0 view .LVU3356
	mov	r3, #9
	b	.L651
.LVL723:
.L673:
	.loc 1 3564 13 is_stmt 1 view .LVU3357
	.loc 1 3564 20 is_stmt 0 view .LVU3358
	mov	r3, #2
.LVL724:
	.loc 1 3564 20 view .LVU3359
	b	.L651
.LVL725:
.L816:
	.loc 1 3564 20 view .LVU3360
.LBE2049:
.LBB2050:
.LBB2042:
.LBB2019:
	.loc 1 3233 9 is_stmt 1 view .LVU3361
	.loc 1 3233 14 is_stmt 0 view .LVU3362
	mov	r3, #0
	mov	r0, r7
	add	r1, fp, #16
	str	r2, [sp, #8]
.LVL726:
	.loc 1 3233 14 view .LVU3363
	bl	mz_zip_array_ensure_capacity
.LVL727:
	.loc 1 3233 12 view .LVU3364
	cmp	r0, #0
	beq	.L686
.LBE2019:
.LBE2042:
	.loc 1 3610 49 view .LVU3365
	ldr	r8, [r7, #64]
	ldr	r2, [sp, #8]
	b	.L682
.LVL728:
.L820:
	.loc 1 3610 49 view .LVU3366
	ldr	r3, [sp, #12]
	b	.L691
.LVL729:
.L815:
.LBB2043:
.LBB2014:
	.loc 1 3233 9 is_stmt 1 view .LVU3367
	.loc 1 3233 14 is_stmt 0 view .LVU3368
	mov	r3, #0
	mov	r2, r4
	mov	r1, r8
	mov	r0, r7
	bl	mz_zip_array_ensure_capacity
.LVL730:
	.loc 1 3233 12 view .LVU3369
	cmp	r0, #0
	beq	.L686
.LBE2014:
.LBE2043:
	.loc 1 3605 46 view .LVU3370
	ldr	fp, [r7, #64]
	.loc 1 3605 15 view .LVU3371
	ldr	r2, [r7, #16]
	b	.L680
.LVL731:
.L817:
.LBB2044:
.LBB2026:
	.loc 1 3233 9 is_stmt 1 view .LVU3372
	.loc 1 3233 14 is_stmt 0 view .LVU3373
	mov	r3, r5
	mov	r2, fp
	mov	r0, r7
	add	r1, r8, #32
	bl	mz_zip_array_ensure_capacity
.LVL732:
	.loc 1 3233 12 view .LVU3374
	cmp	r0, #0
.LBE2026:
.LBE2044:
	.loc 1 3614 61 view .LVU3375
	ldrne	r3, [r7, #64]
.LBB2045:
.LBB2027:
	.loc 1 3233 12 view .LVU3376
	bne	.L685
.LVL733:
.L686:
	.loc 1 3233 12 view .LVU3377
.LBE2027:
.LBE2045:
	.loc 1 3606 13 is_stmt 1 view .LVU3378
	.loc 1 3606 20 is_stmt 0 view .LVU3379
	mov	r3, #16
	b	.L651
.LVL734:
.L738:
	.loc 1 3606 20 view .LVU3380
.LBE2050:
.LBB2051:
	mov	r3, #15
.LVL735:
	.loc 1 3606 20 view .LVU3381
	b	.L651
.LVL736:
.L814:
	.loc 1 3606 20 view .LVU3382
.LBE2051:
	.loc 1 3707 9 is_stmt 1 view .LVU3383
	ldr	r2, [r7, #16]
.LBB2052:
.LBB2053:
	.loc 1 3399 8 is_stmt 0 view .LVU3384
	cmp	r2, #1
	str	r2, [sp, #16]
.LBE2053:
.LBI2052:
	.loc 1 3390 13 is_stmt 1 view .LVU3385
.LVL737:
.LBB2131:
	.loc 1 3392 5 view .LVU3386
	.loc 1 3393 5 view .LVU3387
	.loc 1 3394 5 view .LVU3388
	.loc 1 3395 5 view .LVU3389
	.loc 1 3396 5 view .LVU3390
	.loc 1 3397 5 view .LVU3391
	.loc 1 3399 5 view .LVU3392
	.loc 1 3399 8 is_stmt 0 view .LVU3393
	bls	.L679
	ldr	r3, [r7, #64]
	.loc 1 3402 5 is_stmt 1 view .LVU3394
.LBB2054:
	.loc 1 3407 26 is_stmt 0 view .LVU3395
	str	r5, [sp, #32]
.LBE2054:
	.loc 1 3402 14 view .LVU3396
	ldr	r0, [r3, #32]
.LVL738:
	.loc 1 3404 5 is_stmt 1 view .LVU3397
	.loc 1 3404 19 is_stmt 0 view .LVU3398
	sub	r5, r2, #2
.LBB2086:
.LBB2055:
.LBB2056:
	.loc 1 3363 61 view .LVU3399
	ldr	r2, [r3]
.LVL739:
	.loc 1 3363 106 view .LVU3400
	ldr	r3, [r3, #16]
	.loc 1 3363 61 view .LVU3401
	str	r2, [sp, #12]
	.loc 1 3363 106 view .LVU3402
	str	r3, [sp, #8]
.LBE2056:
.LBE2055:
.LBE2086:
	.loc 1 3404 11 view .LVU3403
	lsr	r2, r5, #1
.LVL740:
.L700:
	.loc 1 3405 5 is_stmt 1 view .LVU3404
.LBB2087:
	.loc 1 3407 9 view .LVU3405
	.loc 1 3410 32 is_stmt 0 view .LVU3406
	ldr	r1, [sp, #32]
	.loc 1 3410 16 view .LVU3407
	ldr	ip, [sp, #16]
	.loc 1 3410 32 view .LVU3408
	adds	r3, r2, r2
	adc	r1, r1, r1
	.loc 1 3410 24 view .LVU3409
	adds	r6, r3, #1
	adc	r9, r1, #0
	.loc 1 3410 16 view .LVU3410
	cmp	r6, ip
	sbcs	ip, r9, #0
	.loc 1 3407 26 view .LVU3411
	mov	r8, r2
.LVL741:
	.loc 1 3408 9 is_stmt 1 view .LVU3412
	.loc 1 3410 13 view .LVU3413
	.loc 1 3410 16 is_stmt 0 view .LVU3414
	bcs	.L715
	.loc 1 3413 18 view .LVU3415
	ldr	ip, [r0, r2, lsl #2]
.LBB2065:
.LBB2057:
	.loc 1 3363 113 view .LVU3416
	ldr	lr, [sp, #8]
.LBE2057:
.LBE2065:
	.loc 1 3413 18 view .LVU3417
	str	ip, [sp, #28]
.LBB2066:
.LBB2058:
	.loc 1 3363 113 view .LVU3418
	add	ip, lr, ip, lsl #2
	str	ip, [sp, #24]
.LVL742:
.L714:
	.loc 1 3363 113 view .LVU3419
.LBE2058:
.LBE2066:
	.loc 1 3412 13 is_stmt 1 view .LVU3420
	.loc 1 3412 45 is_stmt 0 view .LVU3421
	ldr	ip, [sp, #16]
	.loc 1 3412 31 view .LVU3422
	adds	r3, r3, #2
	adc	r1, r1, #0
	.loc 1 3412 45 view .LVU3423
	cmp	r3, ip
	sbcs	r1, r1, #0
.LBB2067:
.LBB2068:
	.loc 1 3363 113 view .LVU3424
	ldr	r3, [r0, r6, lsl #2]
	.loc 1 3363 21 view .LVU3425
	ldr	r1, [sp, #8]
.LBE2068:
.LBE2067:
	movcs	r4, r6
.LBB2074:
.LBB2069:
	ldr	lr, [r1, r3, lsl #2]
	ldr	r3, [sp, #12]
	add	lr, r3, lr
	ldrh	r10, [lr, #28]	@ unaligned
.LBE2069:
.LBE2074:
	.loc 1 3412 121 view .LVU3426
	lsl	r3, r6, #2
	.loc 1 3412 45 view .LVU3427
	bcc	.L822
.L701:
	.loc 1 3413 13 is_stmt 1 view .LVU3428
	.loc 1 3413 90 is_stmt 0 view .LVU3429
	lsl	r3, r8, #2
	.loc 1 3413 18 view .LVU3430
	ldr	r10, [r0, r4, lsl #2]
.LBB2075:
.LBB2059:
	.loc 1 3364 21 view .LVU3431
	ldr	r1, [sp, #8]
.LBE2059:
.LBE2075:
	.loc 1 3413 90 view .LVU3432
	str	r3, [sp, #36]
.LVL743:
.LBB2076:
.LBI2055:
	.loc 1 3361 62 is_stmt 1 view .LVU3433
.LBB2060:
	.loc 1 3363 5 view .LVU3434
	.loc 1 3363 21 is_stmt 0 view .LVU3435
	ldr	r3, [sp, #24]
	.loc 1 3364 21 view .LVU3436
	ldr	lr, [r1, r10, lsl #2]
	.loc 1 3363 21 view .LVU3437
	ldr	r7, [r3]
	ldr	r3, [sp, #12]
	add	r7, r3, r7
.LVL744:
	.loc 1 3364 5 is_stmt 1 view .LVU3438
	.loc 1 3364 21 is_stmt 0 view .LVU3439
	add	lr, r3, lr
.LVL745:
	.loc 1 3365 5 is_stmt 1 view .LVU3440
	.loc 1 3365 13 is_stmt 0 view .LVU3441
	ldrh	fp, [r7, #28]	@ unaligned
.LVL746:
	.loc 1 3365 176 view .LVU3442
	ldrh	r6, [lr, #28]	@ unaligned
.LVL747:
	.loc 1 3366 5 is_stmt 1 view .LVU3443
	.loc 1 3367 5 view .LVU3444
	.loc 1 3367 8 is_stmt 0 view .LVU3445
	add	r7, r7, #46
.LVL748:
	.loc 1 3368 5 is_stmt 1 view .LVU3446
	.loc 1 3369 5 view .LVU3447
	.loc 1 3369 8 is_stmt 0 view .LVU3448
	cmp	fp, r6
	addls	r8, r7, fp
	addhi	r8, r7, r6
.LVL749:
	.loc 1 3370 5 is_stmt 1 view .LVU3449
	.loc 1 3370 15 view .LVU3450
.LBE2060:
.LBE2076:
	.loc 1 3413 106 is_stmt 0 view .LVU3451
	lsl	r3, r4, #2
.LBB2077:
.LBB2061:
	.loc 1 3370 15 view .LVU3452
	cmp	r7, r8
.LBE2061:
.LBE2077:
	.loc 1 3413 106 view .LVU3453
	str	r3, [sp, #40]
.LBB2078:
.LBB2062:
	.loc 1 3370 15 view .LVU3454
	bcs	.L747
	mov	ip, r7
	add	lr, lr, #45
.LVL750:
	.loc 1 3370 15 view .LVU3455
	str	r0, [sp, #20]
	b	.L711
.LVL751:
.L824:
	.loc 1 3370 15 view .LVU3456
	cmp	ip, r8
	beq	.L823
.LVL752:
.L711:
	.loc 1 3374 9 is_stmt 1 view .LVU3457
	mov	r7, ip
.LVL753:
	.loc 1 3372 9 view .LVU3458
	.loc 1 3372 22 is_stmt 0 view .LVU3459
	ldrb	r3, [ip], #1	@ zero_extendqisi2
.LVL754:
	.loc 1 3375 9 is_stmt 1 view .LVU3460
	.loc 1 3370 15 view .LVU3461
	.loc 1 3372 16 is_stmt 0 view .LVU3462
	sub	r1, r3, #65
	cmp	r1, #25
	.loc 1 3372 98 view .LVU3463
	ldrb	r1, [lr, #1]!	@ zero_extendqisi2
	.loc 1 3372 16 view .LVU3464
	add	r0, r3, #32
	uxtbls	r3, r0
.LVL755:
	.loc 1 3372 92 view .LVU3465
	sub	r0, r1, #65
	cmp	r0, #25
	addls	r1, r1, #32
	uxtbls	r1, r1
.LVL756:
	.loc 1 3372 12 view .LVU3466
	cmp	r3, r1
	beq	.L824
	ldr	r0, [sp, #20]
.LVL757:
.L708:
	.loc 1 3377 5 is_stmt 1 view .LVU3467
	.loc 1 3377 41 is_stmt 0 view .LVU3468
	cmp	r8, r7
	beq	.L825
	.loc 1 3377 46 view .LVU3469
	cmp	r3, r1
	movcs	r3, #0
.LVL758:
	.loc 1 3377 46 view .LVU3470
	movcc	r3, #1
.L713:
.LVL759:
	.loc 1 3377 46 view .LVU3471
.LBE2062:
.LBE2078:
	.loc 1 3413 16 view .LVU3472
	cmp	r3, #0
	beq	.L734
	.loc 1 3415 13 is_stmt 1 view .LVU3473
.LBB2079:
	.loc 1 3415 18 view .LVU3474
.LVL760:
	.loc 1 3415 48 view .LVU3475
	.loc 1 3415 63 is_stmt 0 view .LVU3476
	ldr	r3, [sp, #36]
	.loc 1 3415 98 view .LVU3477
	ldr	r1, [sp, #28]
	.loc 1 3415 63 view .LVU3478
	str	r10, [r0, r3]
	.loc 1 3415 82 is_stmt 1 view .LVU3479
	.loc 1 3415 98 is_stmt 0 view .LVU3480
	ldr	r3, [sp, #40]
.LBE2079:
	.loc 1 3410 16 view .LVU3481
	ldr	ip, [sp, #16]
.LBB2080:
	.loc 1 3415 98 view .LVU3482
	str	r1, [r0, r3]
.LBE2080:
	.loc 1 3415 16 is_stmt 1 view .LVU3483
	.loc 1 3416 13 view .LVU3484
	.loc 1 3408 9 view .LVU3485
	.loc 1 3408 9 view .LVU3486
	.loc 1 3410 13 view .LVU3487
	.loc 1 3410 32 is_stmt 0 view .LVU3488
	adds	r3, r4, r4
	adc	r9, r9, r9
	.loc 1 3410 24 view .LVU3489
	adds	r6, r3, #1
	.loc 1 3410 32 view .LVU3490
	mov	r1, r9
	.loc 1 3410 24 view .LVU3491
	adc	r9, r9, #0
	.loc 1 3410 16 view .LVU3492
	cmp	r6, ip
	sbcs	ip, r9, #0
	.loc 1 3416 18 view .LVU3493
	movcc	r8, r4
	bcc	.L714
.LVL761:
.L734:
	.loc 1 3418 9 is_stmt 1 view .LVU3494
	.loc 1 3418 12 is_stmt 0 view .LVU3495
	cmp	r2, #0
	beq	.L826
.L715:
	.loc 1 3420 9 is_stmt 1 view .LVU3496
	.loc 1 3420 14 is_stmt 0 view .LVU3497
	sub	r2, r2, #1
.LVL762:
	.loc 1 3420 14 view .LVU3498
.LBE2087:
	.loc 1 3405 5 is_stmt 1 view .LVU3499
	.loc 1 3406 5 is_stmt 0 view .LVU3500
	b	.L700
.LVL763:
.L823:
.LBB2088:
.LBB2081:
.LBB2063:
	.loc 1 3374 11 view .LVU3501
	mov	r7, r8
	ldr	r0, [sp, #20]
	b	.L708
.LVL764:
.L825:
	.loc 1 3377 32 view .LVU3502
	cmp	fp, r6
	movcs	r3, #0
.LVL765:
	.loc 1 3377 32 view .LVU3503
	movcc	r3, #1
	b	.L713
.LVL766:
.L822:
	.loc 1 3377 32 view .LVU3504
.LBE2063:
.LBE2081:
	.loc 1 3412 49 view .LVU3505
	add	r3, r0, r3
.LBB2082:
.LBB2070:
	.loc 1 3364 113 view .LVU3506
	ldr	r3, [r3, #4]
	.loc 1 3367 8 view .LVU3507
	add	r7, lr, #46
	.loc 1 3364 21 view .LVU3508
	ldr	r4, [r1, r3, lsl #2]
.LVL767:
	.loc 1 3364 21 view .LVU3509
.LBE2070:
.LBI2067:
	.loc 1 3361 62 is_stmt 1 view .LVU3510
.LBB2071:
	.loc 1 3363 5 view .LVU3511
	.loc 1 3364 5 view .LVU3512
	.loc 1 3365 5 view .LVU3513
	.loc 1 3366 5 view .LVU3514
	.loc 1 3367 5 view .LVU3515
	.loc 1 3368 5 view .LVU3516
	.loc 1 3369 5 view .LVU3517
	.loc 1 3364 21 is_stmt 0 view .LVU3518
	ldr	r3, [sp, #12]
	add	r4, r3, r4
.LVL768:
	.loc 1 3365 176 view .LVU3519
	ldrh	fp, [r4, #28]	@ unaligned
	.loc 1 3369 46 view .LVU3520
	cmp	fp, r10
	movcc	r3, fp
	movcs	r3, r10
	.loc 1 3369 8 view .LVU3521
	add	r3, r3, #46
	add	lr, lr, r3
.LVL769:
	.loc 1 3370 5 is_stmt 1 view .LVU3522
	.loc 1 3370 15 view .LVU3523
	cmp	lr, r7
	bls	.L746
	mov	ip, r7
	add	r4, r4, #45
	str	r0, [sp, #20]
	.loc 1 3370 15 is_stmt 0 view .LVU3524
	b	.L705
.LVL770:
.L828:
	.loc 1 3370 15 view .LVU3525
	cmp	ip, lr
	beq	.L827
.LVL771:
.L705:
	.loc 1 3374 9 is_stmt 1 view .LVU3526
	mov	r7, ip
.LVL772:
	.loc 1 3372 9 view .LVU3527
	.loc 1 3372 22 is_stmt 0 view .LVU3528
	ldrb	r3, [ip], #1	@ zero_extendqisi2
.LVL773:
	.loc 1 3375 9 is_stmt 1 view .LVU3529
	.loc 1 3370 15 view .LVU3530
	.loc 1 3372 16 is_stmt 0 view .LVU3531
	sub	r1, r3, #65
	cmp	r1, #25
	.loc 1 3372 98 view .LVU3532
	ldrb	r1, [r4, #1]!	@ zero_extendqisi2
	.loc 1 3372 16 view .LVU3533
	add	r0, r3, #32
	uxtbls	r3, r0
.LVL774:
	.loc 1 3372 92 view .LVU3534
	sub	r0, r1, #65
	cmp	r0, #25
	addls	r1, r1, #32
	uxtbls	r1, r1
.LVL775:
	.loc 1 3372 12 view .LVU3535
	cmp	r3, r1
	beq	.L828
	ldr	r0, [sp, #20]
.LVL776:
.L702:
	.loc 1 3377 5 is_stmt 1 view .LVU3536
	.loc 1 3377 41 is_stmt 0 view .LVU3537
	cmp	lr, r7
	beq	.L829
	.loc 1 3377 46 view .LVU3538
	cmp	r3, r1
	movcs	r3, #0
.LVL777:
	.loc 1 3377 46 view .LVU3539
	movcc	r3, #1
.L707:
.LVL778:
	.loc 1 3377 46 view .LVU3540
.LBE2071:
.LBE2082:
	.loc 1 3412 19 view .LVU3541
	adds	r4, r3, r6
	adc	r9, r9, #0
	b	.L701
.LVL779:
.L827:
.LBB2083:
.LBB2072:
	.loc 1 3374 11 view .LVU3542
	mov	r7, lr
	ldr	r0, [sp, #20]
	b	.L702
.LVL780:
.L829:
	.loc 1 3377 32 view .LVU3543
	cmp	fp, r10
	movls	r3, #0
.LVL781:
	.loc 1 3377 32 view .LVU3544
	movhi	r3, #1
	b	.L707
.LVL782:
.L747:
	.loc 1 3377 32 view .LVU3545
.LBE2072:
.LBE2083:
.LBB2084:
.LBB2064:
	.loc 1 3366 21 view .LVU3546
	mov	r1, #0
	.loc 1 3366 14 view .LVU3547
	mov	r3, r1
	b	.L708
.LVL783:
.L746:
	.loc 1 3366 14 view .LVU3548
.LBE2064:
.LBE2084:
.LBB2085:
.LBB2073:
	.loc 1 3366 21 view .LVU3549
	mov	r1, #0
.LVL784:
	.loc 1 3366 14 view .LVU3550
	mov	r3, r1
	b	.L702
.LVL785:
.L826:
	.loc 1 3366 14 view .LVU3551
.LBE2073:
.LBE2085:
.LBE2088:
	.loc 1 3423 5 is_stmt 1 view .LVU3552
	.loc 1 3423 9 is_stmt 0 view .LVU3553
	ldr	r3, [sp, #16]
.LBB2089:
	.loc 1 3430 45 view .LVU3554
	mov	r8, r2
.LBE2089:
	.loc 1 3423 9 view .LVU3555
	sub	r3, r3, #1
.LVL786:
	.loc 1 3424 5 is_stmt 1 view .LVU3556
	.loc 1 3424 16 view .LVU3557
.LBB2129:
	.loc 1 3426 9 view .LVU3558
	.loc 1 3427 9 view .LVU3559
.LBB2090:
	.loc 1 3427 14 view .LVU3560
	.loc 1 3427 67 is_stmt 0 view .LVU3561
	ldr	r2, [r0]
.LVL787:
	.loc 1 3427 24 view .LVU3562
	ldr	ip, [r0, r3, lsl #2]
.LVL788:
	.loc 1 3427 43 is_stmt 1 view .LVU3563
.LBE2090:
	.loc 1 3430 16 is_stmt 0 view .LVU3564
	cmp	r3, #1
.LBB2091:
	.loc 1 3427 57 view .LVU3565
	str	r2, [r0, r3, lsl #2]
	.loc 1 3427 72 is_stmt 1 view .LVU3566
.LBE2091:
	.loc 1 3430 45 is_stmt 0 view .LVU3567
	mov	fp, r3
.LBB2092:
	.loc 1 3427 36 view .LVU3568
	add	r2, r0, r3, lsl #2
	.loc 1 3427 84 view .LVU3569
	str	ip, [r0]
	.loc 1 3427 84 view .LVU3570
.LBE2092:
	.loc 1 3427 12 is_stmt 1 view .LVU3571
	.loc 1 3428 9 view .LVU3572
	.loc 1 3430 13 view .LVU3573
.LVL789:
	.loc 1 3430 16 is_stmt 0 view .LVU3574
	beq	.L679
	.loc 1 3430 16 view .LVU3575
	mov	r3, r5
.LVL790:
	.loc 1 3430 16 view .LVU3576
	mov	r1, r8
	mov	r7, r2
	mov	r9, fp
.LVL791:
.L733:
	.loc 1 3430 24 view .LVU3577
	mov	fp, #0
	mov	r6, #1
	.loc 1 3430 32 view .LVU3578
	mov	r4, fp
	mov	lr, fp
.LBB2093:
.LBB2094:
	.loc 1 3363 113 view .LVU3579
	ldr	r2, [sp, #8]
.LBE2094:
.LBE2093:
	.loc 1 3426 26 view .LVU3580
	str	fp, [sp, #28]
.LBB2102:
.LBB2095:
	.loc 1 3363 113 view .LVU3581
	add	r2, r2, ip, lsl #2
	str	r2, [sp, #32]
	str	r7, [sp, #16]
	str	ip, [sp, #44]
	str	r3, [sp, #20]
	str	r1, [sp, #24]
.LVL792:
.L732:
	.loc 1 3363 113 view .LVU3582
.LBE2095:
.LBE2102:
	.loc 1 3432 13 is_stmt 1 view .LVU3583
.LBB2103:
.LBB2104:
	.loc 1 3363 113 is_stmt 0 view .LVU3584
	ldr	r3, [r0, r6, lsl #2]
	.loc 1 3363 21 view .LVU3585
	ldr	r2, [sp, #8]
.LBE2104:
.LBE2103:
	.loc 1 3432 31 view .LVU3586
	adds	r4, r4, #2
	adc	lr, lr, #0
	.loc 1 3432 44 view .LVU3587
	cmp	r4, r9
.LBB2110:
.LBB2105:
	.loc 1 3363 21 view .LVU3588
	ldr	r4, [r2, r3, lsl #2]
	ldr	r3, [sp, #12]
.LBE2105:
.LBE2110:
	.loc 1 3432 44 view .LVU3589
	sbcs	lr, lr, r8
.LBB2111:
.LBB2106:
	.loc 1 3363 21 view .LVU3590
	add	r4, r3, r4
.LBE2106:
.LBE2111:
	movcs	r5, r6
	movcs	r10, fp
	ldrh	r7, [r4, #28]	@ unaligned
	.loc 1 3432 119 view .LVU3591
	lsl	r3, r6, #2
	.loc 1 3432 44 view .LVU3592
	bcc	.L830
.L716:
	.loc 1 3433 13 is_stmt 1 view .LVU3593
	.loc 1 3433 90 is_stmt 0 view .LVU3594
	ldr	r3, [sp, #28]
.LBB2112:
.LBB2096:
	.loc 1 3364 21 view .LVU3595
	ldr	r1, [sp, #8]
.LBE2096:
.LBE2112:
	.loc 1 3433 90 view .LVU3596
	lsl	r3, r3, #2
	.loc 1 3433 18 view .LVU3597
	ldr	fp, [r0, r5, lsl #2]
	.loc 1 3433 90 view .LVU3598
	str	r3, [sp, #36]
.LVL793:
.LBB2113:
.LBI2093:
	.loc 1 3361 62 is_stmt 1 view .LVU3599
.LBB2097:
	.loc 1 3363 5 view .LVU3600
	.loc 1 3363 21 is_stmt 0 view .LVU3601
	ldr	r3, [sp, #32]
	.loc 1 3364 21 view .LVU3602
	ldr	lr, [r1, fp, lsl #2]
	.loc 1 3363 21 view .LVU3603
	ldr	r2, [r3]
	ldr	r3, [sp, #12]
.LBE2097:
.LBE2113:
	.loc 1 3433 106 view .LVU3604
	lsl	r1, r5, #2
.LBB2114:
.LBB2098:
	.loc 1 3363 21 view .LVU3605
	add	r2, r3, r2
.LVL794:
	.loc 1 3364 5 is_stmt 1 view .LVU3606
	.loc 1 3364 21 is_stmt 0 view .LVU3607
	add	lr, r3, lr
.LVL795:
	.loc 1 3365 5 is_stmt 1 view .LVU3608
	.loc 1 3365 13 is_stmt 0 view .LVU3609
	ldrh	r4, [r2, #28]	@ unaligned
.LVL796:
	.loc 1 3365 176 view .LVU3610
	ldrh	r3, [lr, #28]	@ unaligned
	.loc 1 3367 8 view .LVU3611
	add	r2, r2, #46
.LVL797:
	.loc 1 3369 8 view .LVU3612
	cmp	r4, r3
	addls	r6, r2, r4
	addhi	r6, r2, r3
	.loc 1 3370 15 view .LVU3613
	cmp	r2, r6
	.loc 1 3365 176 view .LVU3614
	str	r3, [sp, #28]
.LVL798:
	.loc 1 3366 5 is_stmt 1 view .LVU3615
	.loc 1 3367 5 view .LVU3616
	.loc 1 3368 5 view .LVU3617
	.loc 1 3369 5 view .LVU3618
	.loc 1 3370 5 view .LVU3619
	.loc 1 3370 15 view .LVU3620
.LBE2098:
.LBE2114:
	.loc 1 3433 106 is_stmt 0 view .LVU3621
	str	r1, [sp, #40]
.LBB2115:
.LBB2099:
	.loc 1 3370 15 view .LVU3622
	bcs	.L723
	add	lr, lr, #45
.LVL799:
	.loc 1 3370 15 view .LVU3623
	b	.L727
.LVL800:
.L832:
	.loc 1 3370 15 view .LVU3624
	cmp	r6, r2
	beq	.L831
.LVL801:
.L727:
	.loc 1 3374 9 is_stmt 1 view .LVU3625
	mov	r7, r2
.LVL802:
	.loc 1 3372 9 view .LVU3626
	.loc 1 3372 22 is_stmt 0 view .LVU3627
	ldrb	r1, [r2], #1	@ zero_extendqisi2
.LVL803:
	.loc 1 3375 9 is_stmt 1 view .LVU3628
	.loc 1 3370 15 view .LVU3629
	.loc 1 3372 16 is_stmt 0 view .LVU3630
	sub	r3, r1, #65
	cmp	r3, #25
	.loc 1 3372 98 view .LVU3631
	ldrb	r3, [lr, #1]!	@ zero_extendqisi2
	.loc 1 3372 16 view .LVU3632
	add	ip, r1, #32
	uxtbls	r1, ip
.LVL804:
	.loc 1 3372 92 view .LVU3633
	sub	ip, r3, #65
	cmp	ip, #25
	addls	r3, r3, #32
	uxtbls	r3, r3
.LVL805:
	.loc 1 3372 12 view .LVU3634
	cmp	r1, r3
	beq	.L832
.L726:
	.loc 1 3377 5 is_stmt 1 view .LVU3635
	.loc 1 3377 41 is_stmt 0 view .LVU3636
	cmp	r6, r7
	beq	.L728
.LVL806:
	.loc 1 3377 41 view .LVU3637
.LBE2099:
.LBE2115:
	.loc 1 3433 16 view .LVU3638
	cmp	r1, r3
	bcs	.L808
.L731:
	.loc 1 3435 13 is_stmt 1 view .LVU3639
.LBB2116:
	.loc 1 3435 18 view .LVU3640
.LVL807:
	.loc 1 3435 48 view .LVU3641
	.loc 1 3435 63 is_stmt 0 view .LVU3642
	ldr	r3, [sp, #36]
.LBE2116:
	.loc 1 3430 32 view .LVU3643
	adds	r4, r5, r5
.LBB2117:
	.loc 1 3435 63 view .LVU3644
	str	fp, [r0, r3]
	.loc 1 3435 82 is_stmt 1 view .LVU3645
.LBE2117:
	.loc 1 3430 32 is_stmt 0 view .LVU3646
	adc	r10, r10, r10
.LBB2118:
	.loc 1 3435 98 view .LVU3647
	ldr	r3, [sp, #40]
.LBE2118:
	.loc 1 3430 24 view .LVU3648
	adds	r6, r4, #1
.LBB2119:
	.loc 1 3435 98 view .LVU3649
	ldr	r2, [sp, #44]
.LBE2119:
	.loc 1 3430 24 view .LVU3650
	adc	fp, r10, #0
	.loc 1 3430 16 view .LVU3651
	cmp	r6, r9
.LBB2120:
	.loc 1 3435 98 view .LVU3652
	str	r2, [r0, r3]
.LBE2120:
	.loc 1 3435 16 is_stmt 1 view .LVU3653
	.loc 1 3436 13 view .LVU3654
	.loc 1 3428 9 view .LVU3655
	.loc 1 3427 12 view .LVU3656
	.loc 1 3428 9 view .LVU3657
	.loc 1 3430 13 view .LVU3658
	.loc 1 3430 16 is_stmt 0 view .LVU3659
	sbcs	r3, fp, r8
	.loc 1 3430 32 view .LVU3660
	mov	lr, r10
	.loc 1 3430 16 view .LVU3661
	bcs	.L808
	.loc 1 3436 18 view .LVU3662
	str	r5, [sp, #28]
	b	.L732
.LVL808:
.L831:
.LBB2121:
.LBB2100:
	.loc 1 3374 11 view .LVU3663
	mov	r7, r6
	b	.L726
.LVL809:
.L830:
	.loc 1 3374 11 view .LVU3664
.LBE2100:
.LBE2121:
	.loc 1 3432 47 view .LVU3665
	add	r3, r0, r3
.LBB2122:
.LBB2107:
	.loc 1 3364 113 view .LVU3666
	ldr	r3, [r3, #4]
	.loc 1 3367 8 view .LVU3667
	add	r5, r4, #46
	.loc 1 3364 21 view .LVU3668
	ldr	lr, [r2, r3, lsl #2]
.LVL810:
	.loc 1 3364 21 view .LVU3669
.LBE2107:
.LBI2103:
	.loc 1 3361 62 is_stmt 1 view .LVU3670
.LBB2108:
	.loc 1 3363 5 view .LVU3671
	.loc 1 3364 5 view .LVU3672
	.loc 1 3365 5 view .LVU3673
	.loc 1 3366 5 view .LVU3674
	.loc 1 3367 5 view .LVU3675
	.loc 1 3368 5 view .LVU3676
	.loc 1 3369 5 view .LVU3677
	.loc 1 3364 21 is_stmt 0 view .LVU3678
	ldr	r3, [sp, #12]
	add	lr, r3, lr
.LVL811:
	.loc 1 3365 176 view .LVU3679
	ldrh	r10, [lr, #28]	@ unaligned
	.loc 1 3369 46 view .LVU3680
	cmp	r10, r7
	movcc	r3, r10
	movcs	r3, r7
	.loc 1 3369 8 view .LVU3681
	add	r3, r3, #46
	add	r4, r4, r3
.LVL812:
	.loc 1 3370 5 is_stmt 1 view .LVU3682
	.loc 1 3370 15 view .LVU3683
	cmp	r4, r5
	bls	.L750
	mov	r1, r5
	add	lr, lr, #45
	b	.L720
.LVL813:
.L834:
	.loc 1 3370 15 is_stmt 0 view .LVU3684
	cmp	r1, r4
	beq	.L833
.LVL814:
.L720:
	.loc 1 3374 9 is_stmt 1 view .LVU3685
	mov	r5, r1
.LVL815:
	.loc 1 3372 9 view .LVU3686
	.loc 1 3372 22 is_stmt 0 view .LVU3687
	ldrb	r3, [r1], #1	@ zero_extendqisi2
.LVL816:
	.loc 1 3375 9 is_stmt 1 view .LVU3688
	.loc 1 3370 15 view .LVU3689
	.loc 1 3372 16 is_stmt 0 view .LVU3690
	sub	r2, r3, #65
	cmp	r2, #25
	.loc 1 3372 98 view .LVU3691
	ldrb	r2, [lr, #1]!	@ zero_extendqisi2
	.loc 1 3372 16 view .LVU3692
	add	ip, r3, #32
	uxtbls	r3, ip
.LVL817:
	.loc 1 3372 92 view .LVU3693
	sub	ip, r2, #65
	cmp	ip, #25
	addls	r2, r2, #32
	uxtbls	r2, r2
.LVL818:
	.loc 1 3372 12 view .LVU3694
	cmp	r3, r2
	beq	.L834
.LVL819:
.L717:
	.loc 1 3377 5 is_stmt 1 view .LVU3695
	.loc 1 3377 41 is_stmt 0 view .LVU3696
	cmp	r4, r5
	beq	.L835
	.loc 1 3377 46 view .LVU3697
	cmp	r3, r2
	movcs	r3, #0
.LVL820:
	.loc 1 3377 46 view .LVU3698
	movcc	r3, #1
.L722:
.LVL821:
	.loc 1 3377 46 view .LVU3699
.LBE2108:
.LBE2122:
	.loc 1 3432 19 view .LVU3700
	adds	r5, r3, r6
	adc	r10, fp, #0
	b	.L716
.LVL822:
.L723:
.LBB2123:
.LBB2101:
	.loc 1 3377 5 is_stmt 1 view .LVU3701
	.loc 1 3377 41 is_stmt 0 view .LVU3702
	bne	.L808
.LVL823:
.L728:
	.loc 1 3377 41 view .LVU3703
.LBE2101:
.LBE2123:
	.loc 1 3433 16 view .LVU3704
	ldr	r3, [sp, #28]
	cmp	r4, r3
	bcc	.L731
.LVL824:
.L808:
	.loc 1 3433 16 view .LVU3705
	ldr	r3, [sp, #20]
	ldr	r7, [sp, #16]
	ldr	r1, [sp, #24]
	.loc 1 3438 9 is_stmt 1 view .LVU3706
.LVL825:
	.loc 1 3438 9 is_stmt 0 view .LVU3707
.LBE2129:
	.loc 1 3424 16 is_stmt 1 view .LVU3708
.LBB2130:
	.loc 1 3426 9 view .LVU3709
	.loc 1 3427 9 view .LVU3710
.LBB2124:
	.loc 1 3427 14 view .LVU3711
.LBE2124:
	.loc 1 3430 16 is_stmt 0 view .LVU3712
	subs	r4, r3, #1
.LBB2125:
	.loc 1 3427 24 view .LVU3713
	ldr	ip, [r7, #-4]!
.LVL826:
	.loc 1 3427 43 is_stmt 1 view .LVU3714
	.loc 1 3427 67 is_stmt 0 view .LVU3715
	ldr	r5, [r0]
.LBE2125:
	.loc 1 3430 16 view .LVU3716
	sbc	lr, r1, #0
	orrs	r6, r4, lr
.LBB2126:
	.loc 1 3427 57 view .LVU3717
	str	r5, [r7]
	.loc 1 3427 72 is_stmt 1 view .LVU3718
.LBE2126:
	.loc 1 3430 45 is_stmt 0 view .LVU3719
	mov	r9, r3
	mov	r8, r1
.LBB2127:
	.loc 1 3427 84 view .LVU3720
	str	ip, [r0]
	.loc 1 3427 84 view .LVU3721
.LBE2127:
	.loc 1 3427 12 is_stmt 1 view .LVU3722
	.loc 1 3428 9 view .LVU3723
	.loc 1 3430 13 view .LVU3724
.LVL827:
	.loc 1 3430 16 is_stmt 0 view .LVU3725
	beq	.L679
	mov	r3, r4
.LVL828:
	.loc 1 3430 16 view .LVU3726
	mov	r1, lr
	b	.L733
.LVL829:
.L833:
.LBB2128:
.LBB2109:
	.loc 1 3374 11 view .LVU3727
	mov	r5, r4
	b	.L717
.LVL830:
.L835:
	.loc 1 3377 32 view .LVU3728
	cmp	r10, r7
	movls	r3, #0
.LVL831:
	.loc 1 3377 32 view .LVU3729
	movhi	r3, #1
	b	.L722
.LVL832:
.L750:
	.loc 1 3366 21 view .LVU3730
	mov	r2, #0
.LVL833:
	.loc 1 3366 14 view .LVU3731
	mov	r3, r2
	b	.L717
.LVL834:
.L818:
	.loc 1 3366 14 view .LVU3732
.LBE2109:
.LBE2128:
.LBE2130:
.LBE2131:
.LBE2052:
.LBB2132:
	mov	r5, r9
	b	.L687
.LVL835:
.L819:
.LBB2046:
.LBB2038:
.LBB2037:
.LBB2036:
	.loc 1 3666 53 view .LVU3733
	ldr	r3, [sp, #12]
	.loc 1 3666 29 is_stmt 1 view .LVU3734
	.loc 1 3667 29 view .LVU3735
	.loc 1 3666 53 is_stmt 0 view .LVU3736
	str	r8, [lr, #52]	@ unaligned
.LVL836:
	.loc 1 3666 53 view .LVU3737
	str	r8, [lr, #56]	@ unaligned
	.loc 1 3668 29 is_stmt 1 view .LVU3738
	b	.L691
.LVL837:
.L744:
	.loc 1 3668 29 is_stmt 0 view .LVU3739
.LBE2036:
.LBE2037:
.LBE2038:
	mov	r3, #5
.LVL838:
	.loc 1 3668 29 view .LVU3740
	b	.L651
.L837:
	.align	2
.L836:
	.word	101010256
	.word	65556
	.word	117853008
	.word	101075792
	.word	4093
	.word	-4093
	.word	4092
	.word	65535
	.word	33639248
.LBE2046:
.LBE2132:
	.cfi_endproc
.LFE75:
	.size	mz_zip_reader_read_central_dir, .-mz_zip_reader_read_central_dir
	.section	.text.mz_adler32,"ax",%progbits
	.align	2
	.global	mz_adler32
	.syntax unified
	.arm
	.type	mz_adler32, %function
mz_adler32:
.LVL839:
.LFB3:
	.loc 1 40 1 is_stmt 1 view -0
	.cfi_startproc
	@ args = 0, pretend = 0, frame = 0
	@ frame_needed = 0, uses_anonymous_args = 0
	.loc 1 41 5 view .LVU3742
	.loc 1 40 1 is_stmt 0 view .LVU3743
	push	{r4, r5, r6, r7, r8, r9, r10, lr}
	.cfi_def_cfa_offset 32
	.cfi_offset 4, -32
	.cfi_offset 5, -28
	.cfi_offset 6, -24
	.cfi_offset 7, -20
	.cfi_offset 8, -16
	.cfi_offset 9, -12
	.cfi_offset 10, -8
	.cfi_offset 14, -4
	.loc 1 43 8 view .LVU3744
	subs	r4, r1, #0
.LVL840:
	.loc 1 42 5 is_stmt 1 view .LVU3745
	.loc 1 43 5 view .LVU3746
	.loc 1 43 8 is_stmt 0 view .LVU3747
	beq	.L846
	.loc 1 45 12 view .LVU3748
	cmp	r2, #0
	uxth	r7, r0
.LVL841:
	.loc 1 45 12 view .LVU3749
	mov	r6, r2
	lsr	r0, r0, #16
.LVL842:
	.loc 1 45 12 is_stmt 1 view .LVU3750
	beq	.L840
	.loc 1 42 12 is_stmt 0 view .LVU3751
	ldr	r5, .L855
	umull	r3, r5, r5, r2
	ldr	r3, .L855+4
	lsr	r5, r5, #11
	mul	r3, r3, r5
	sub	r5, r2, r3
.LVL843:
	.loc 1 47 27 is_stmt 1 view .LVU3752
	cmp	r5, #7
	bls	.L847
.LVL844:
.L845:
	.loc 1 47 27 is_stmt 0 view .LVU3753
	sub	r2, r5, #8
	add	lr, r4, #16
	bic	r3, r2, #7
	add	r1, r4, #8
	lsr	ip, r2, #3
	add	lr, lr, r3
.L842:
.LVL845:
	.loc 1 49 13 is_stmt 1 discriminator 3 view .LVU3754
	.loc 1 49 22 is_stmt 0 discriminator 3 view .LVU3755
	ldrb	r3, [r1, #-8]	@ zero_extendqisi2
	.loc 1 50 22 discriminator 3 view .LVU3756
	ldrb	r9, [r1, #-7]	@ zero_extendqisi2
	.loc 1 51 22 discriminator 3 view .LVU3757
	ldrb	r8, [r1, #-6]	@ zero_extendqisi2
	.loc 1 49 16 discriminator 3 view .LVU3758
	add	r3, r3, r7
.LVL846:
	.loc 1 50 13 is_stmt 1 discriminator 3 view .LVU3759
	.loc 1 50 16 is_stmt 0 discriminator 3 view .LVU3760
	add	r9, r9, r3
.LVL847:
	.loc 1 51 13 is_stmt 1 discriminator 3 view .LVU3761
	.loc 1 52 22 is_stmt 0 discriminator 3 view .LVU3762
	ldrb	r7, [r1, #-5]	@ zero_extendqisi2
	.loc 1 53 22 discriminator 3 view .LVU3763
	ldrb	r10, [r1, #-4]	@ zero_extendqisi2
	.loc 1 51 16 discriminator 3 view .LVU3764
	add	r8, r8, r9
.LVL848:
	.loc 1 52 13 is_stmt 1 discriminator 3 view .LVU3765
	.loc 1 47 27 is_stmt 0 discriminator 3 view .LVU3766
	add	r1, r1, #8
.LVL849:
	.loc 1 56 30 discriminator 3 view .LVU3767
	add	r3, r3, r9
.LVL850:
	.loc 1 52 16 discriminator 3 view .LVU3768
	add	r7, r7, r8
.LVL851:
	.loc 1 53 13 is_stmt 1 discriminator 3 view .LVU3769
	.loc 1 56 30 is_stmt 0 discriminator 3 view .LVU3770
	add	r3, r3, r8
.LVL852:
	.loc 1 54 22 discriminator 3 view .LVU3771
	ldrb	r9, [r1, #-11]	@ zero_extendqisi2
	.loc 1 53 16 discriminator 3 view .LVU3772
	add	r10, r10, r7
.LVL853:
	.loc 1 54 13 is_stmt 1 discriminator 3 view .LVU3773
	.loc 1 56 30 is_stmt 0 discriminator 3 view .LVU3774
	add	r3, r3, r7
	.loc 1 55 22 discriminator 3 view .LVU3775
	ldrb	r8, [r1, #-10]	@ zero_extendqisi2
	.loc 1 54 16 discriminator 3 view .LVU3776
	add	r9, r9, r10
.LVL854:
	.loc 1 55 13 is_stmt 1 discriminator 3 view .LVU3777
	.loc 1 56 22 is_stmt 0 discriminator 3 view .LVU3778
	ldrb	r7, [r1, #-9]	@ zero_extendqisi2
	.loc 1 56 30 discriminator 3 view .LVU3779
	add	r3, r3, r10
	.loc 1 55 16 discriminator 3 view .LVU3780
	add	r8, r8, r9
.LVL855:
	.loc 1 56 13 is_stmt 1 discriminator 3 view .LVU3781
	.loc 1 56 30 is_stmt 0 discriminator 3 view .LVU3782
	add	r3, r3, r9
	.loc 1 56 16 discriminator 3 view .LVU3783
	add	r7, r7, r8
.LVL856:
	.loc 1 56 30 discriminator 3 view .LVU3784
	add	r3, r3, r8
	add	r3, r3, r7
	.loc 1 47 27 discriminator 3 view .LVU3785
	cmp	lr, r1
	.loc 1 56 30 discriminator 3 view .LVU3786
	add	r0, r0, r3
.LVL857:
	.loc 1 47 46 is_stmt 1 discriminator 3 view .LVU3787
	.loc 1 47 27 discriminator 3 view .LVU3788
	bne	.L842
	.loc 1 47 42 is_stmt 0 view .LVU3789
	bic	r2, r2, #7
	.loc 1 47 52 view .LVU3790
	add	ip, ip, #1
	.loc 1 47 42 view .LVU3791
	add	r2, r2, #8
	.loc 1 47 52 view .LVU3792
	add	ip, r4, ip, lsl #3
.LVL858:
.L841:
	.loc 1 58 18 is_stmt 1 view .LVU3793
	cmp	r2, r5
	bcs	.L848
	.loc 1 58 18 is_stmt 0 view .LVU3794
	sub	r2, r5, r2
	add	r4, ip, r2
.L844:
	.loc 1 59 13 is_stmt 1 discriminator 2 view .LVU3795
.LVL859:
	.loc 1 59 19 is_stmt 0 discriminator 2 view .LVU3796
	ldrb	r3, [ip], #1	@ zero_extendqisi2
.LVL860:
	.loc 1 59 16 discriminator 2 view .LVU3797
	add	r7, r7, r3
.LVL861:
	.loc 1 58 18 discriminator 2 view .LVU3798
	cmp	ip, r4
	.loc 1 59 30 discriminator 2 view .LVU3799
	add	r0, r0, r7
.LVL862:
	.loc 1 58 31 is_stmt 1 discriminator 2 view .LVU3800
	.loc 1 58 18 discriminator 2 view .LVU3801
	bne	.L844
.L843:
	.loc 1 60 9 view .LVU3802
	.loc 1 60 12 is_stmt 0 view .LVU3803
	ldr	r3, .L855+8
	.loc 1 61 17 view .LVU3804
	sub	r6, r6, r5
	.loc 1 60 12 view .LVU3805
	umull	r1, r2, r3, r7
	.loc 1 60 26 view .LVU3806
	umull	r1, r3, r3, r0
	.loc 1 60 12 view .LVU3807
	lsr	r2, r2, #15
	.loc 1 60 26 view .LVU3808
	lsr	r3, r3, #15
	.loc 1 60 12 view .LVU3809
	rsb	ip, r2, r2, lsl #12
.LVL863:
	.loc 1 60 26 view .LVU3810
	rsb	r1, r3, r3, lsl #12
	.loc 1 60 12 view .LVU3811
	add	r2, r2, ip, lsl #4
	.loc 1 60 26 view .LVU3812
	add	r3, r3, r1, lsl #4
	.loc 1 45 12 view .LVU3813
	cmp	r6, #0
	.loc 1 62 19 view .LVU3814
	ldr	r5, .L855+4
	.loc 1 60 12 view .LVU3815
	sub	r7, r7, r2
.LVL864:
	.loc 1 60 26 view .LVU3816
	sub	r0, r0, r3
.LVL865:
	.loc 1 61 9 is_stmt 1 view .LVU3817
	.loc 1 62 9 view .LVU3818
	.loc 1 45 12 view .LVU3819
	bne	.L845
.LVL866:
.L840:
	.loc 1 64 5 view .LVU3820
	.loc 1 64 23 is_stmt 0 view .LVU3821
	add	r0, r7, r0, lsl #16
.LVL867:
	.loc 1 64 23 view .LVU3822
	pop	{r4, r5, r6, r7, r8, r9, r10, pc}
.LVL868:
.L848:
	.loc 1 58 18 view .LVU3823
	mov	r4, ip
	b	.L843
.LVL869:
.L847:
	.loc 1 47 27 view .LVU3824
	mov	ip, r4
	.loc 1 47 16 view .LVU3825
	mov	r2, #0
.LVL870:
	.loc 1 47 16 view .LVU3826
	b	.L841
.LVL871:
.L846:
	.loc 1 44 16 view .LVU3827
	mov	r0, #1
.LVL872:
	.loc 1 65 1 view .LVU3828
	pop	{r4, r5, r6, r7, r8, r9, r10, pc}
.L856:
	.align	2
.L855:
	.word	1584310703
	.word	5552
	.word	-2146992015
	.cfi_endproc
.LFE3:
	.size	mz_adler32, .-mz_adler32
	.section	.text.mz_crc32,"ax",%progbits
	.align	2
	.global	mz_crc32
	.syntax unified
	.arm
	.type	mz_crc32, %function
mz_crc32:
.LVL873:
.LFB4:
	.loc 1 89 1 is_stmt 1 view -0
	.cfi_startproc
	@ args = 0, pretend = 0, frame = 0
	@ frame_needed = 0, uses_anonymous_args = 0
	.loc 1 134 20 is_stmt 0 view .LVU3830
	cmp	r2, #3
	.loc 1 131 15 view .LVU3831
	mvn	r0, r0
.LVL874:
	.loc 1 90 5 is_stmt 1 view .LVU3832
	.loc 1 131 5 view .LVU3833
	.loc 1 132 5 view .LVU3834
	.loc 1 134 5 view .LVU3835
	.loc 1 134 20 view .LVU3836
	.loc 1 89 1 is_stmt 0 view .LVU3837
	push	{r4, r5, r6, r7, lr}
	.cfi_def_cfa_offset 20
	.cfi_offset 4, -20
	.cfi_offset 5, -16
	.cfi_offset 6, -12
	.cfi_offset 7, -8
	.cfi_offset 14, -4
	.loc 1 134 20 view .LVU3838
	bls	.L858
	sub	r6, r2, #4
	bic	r5, r6, #3
	add	r3, r1, #8
	ldr	r4, .L868
	add	lr, r1, #4
	lsr	r6, r6, #2
	add	r5, r5, r3
.LVL875:
.L859:
	.loc 1 136 9 is_stmt 1 view .LVU3839
	.loc 1 136 71 is_stmt 0 view .LVU3840
	ldrb	ip, [lr, #-4]	@ zero_extendqisi2
	.loc 1 137 71 view .LVU3841
	ldrb	r3, [lr, #-3]	@ zero_extendqisi2
	.loc 1 136 60 view .LVU3842
	eor	ip, ip, r0
	.loc 1 136 76 view .LVU3843
	uxtb	ip, ip
	.loc 1 136 49 view .LVU3844
	add	ip, r4, ip, lsl #2
	ldr	r7, [ip, #2240]
	.loc 1 138 71 view .LVU3845
	ldrb	ip, [lr, #-2]	@ zero_extendqisi2
	.loc 1 136 18 view .LVU3846
	eor	r7, r7, r0, lsr #8
.LVL876:
	.loc 1 137 9 is_stmt 1 view .LVU3847
	.loc 1 137 60 is_stmt 0 view .LVU3848
	eor	r3, r3, r7
	.loc 1 137 76 view .LVU3849
	uxtb	r3, r3
	.loc 1 137 49 view .LVU3850
	add	r3, r4, r3, lsl #2
	ldr	r0, [r3, #2240]
	.loc 1 139 71 view .LVU3851
	ldrb	r3, [lr, #-1]	@ zero_extendqisi2
	.loc 1 137 18 view .LVU3852
	eor	r0, r0, r7, lsr #8
.LVL877:
	.loc 1 138 9 is_stmt 1 view .LVU3853
	.loc 1 138 60 is_stmt 0 view .LVU3854
	eor	ip, ip, r0
	.loc 1 138 76 view .LVU3855
	uxtb	ip, ip
	.loc 1 138 49 view .LVU3856
	add	ip, r4, ip, lsl #2
	ldr	ip, [ip, #2240]
	.loc 1 134 20 view .LVU3857
	add	lr, lr, #4
.LVL878:
	.loc 1 138 18 view .LVU3858
	eor	ip, ip, r0, lsr #8
.LVL879:
	.loc 1 139 9 is_stmt 1 view .LVU3859
	.loc 1 139 60 is_stmt 0 view .LVU3860
	eor	r3, r3, ip
	.loc 1 139 76 view .LVU3861
	uxtb	r3, r3
	.loc 1 139 49 view .LVU3862
	add	r3, r4, r3, lsl #2
	ldr	r0, [r3, #2240]
	.loc 1 134 20 view .LVU3863
	cmp	r5, lr
	.loc 1 139 18 view .LVU3864
	eor	r0, r0, ip, lsr #8
.LVL880:
	.loc 1 140 9 is_stmt 1 view .LVU3865
	.loc 1 141 9 view .LVU3866
	.loc 1 134 20 view .LVU3867
	bne	.L859
	.loc 1 140 19 is_stmt 0 view .LVU3868
	add	r6, r6, #1
	add	r1, r1, r6, lsl #2
.LVL881:
	.loc 1 141 17 view .LVU3869
	and	r2, r2, #3
.LVL882:
.L858:
	.loc 1 144 12 is_stmt 1 view .LVU3870
	cmp	r2, #0
	beq	.L860
	.loc 1 144 12 is_stmt 0 view .LVU3871
	ldr	r4, .L868
	add	r2, r1, r2
.L861:
	.loc 1 146 9 is_stmt 1 view .LVU3872
	.loc 1 146 71 is_stmt 0 view .LVU3873
	ldrb	r3, [r1], #1	@ zero_extendqisi2
.LVL883:
	.loc 1 146 60 view .LVU3874
	eor	r3, r3, r0
	.loc 1 146 76 view .LVU3875
	uxtb	r3, r3
	.loc 1 146 49 view .LVU3876
	add	r3, r4, r3, lsl #2
	ldr	r3, [r3, #2240]
	.loc 1 144 12 view .LVU3877
	cmp	r1, r2
	.loc 1 146 18 view .LVU3878
	eor	r0, r3, r0, lsr #8
.LVL884:
	.loc 1 147 9 is_stmt 1 view .LVU3879
	.loc 1 148 9 view .LVU3880
	.loc 1 144 12 view .LVU3881
	bne	.L861
.L860:
	.loc 1 151 5 view .LVU3882
	.loc 1 152 1 is_stmt 0 view .LVU3883
	mvn	r0, r0
.LVL885:
	.loc 1 152 1 view .LVU3884
	pop	{r4, r5, r6, r7, pc}
.L869:
	.align	2
.L868:
	.word	.LANCHOR0
	.cfi_endproc
.LFE4:
	.size	mz_crc32, .-mz_crc32
	.section	.text.mz_zip_compute_crc32_callback,"ax",%progbits
	.align	2
	.syntax unified
	.arm
	.type	mz_zip_compute_crc32_callback, %function
mz_zip_compute_crc32_callback:
.LVL886:
.LFB113:
	.loc 1 5089 1 is_stmt 1 view -0
	.cfi_startproc
	@ args = 8, pretend = 0, frame = 0
	@ frame_needed = 0, uses_anonymous_args = 0
	.loc 1 5090 5 view .LVU3886
	.loc 1 5089 1 is_stmt 0 view .LVU3887
	push	{r4, r5, r6, lr}
	.cfi_def_cfa_offset 16
	.cfi_offset 4, -16
	.cfi_offset 5, -12
	.cfi_offset 6, -8
	.cfi_offset 14, -4
	.loc 1 5089 1 view .LVU3888
	ldr	r5, [sp, #20]
	mov	r4, r0
.LVL887:
	.loc 1 5091 5 is_stmt 1 view .LVU3889
	.loc 1 5092 5 view .LVU3890
	.loc 1 5092 21 is_stmt 0 view .LVU3891
	mov	r2, r5
.LVL888:
	.loc 1 5092 21 view .LVU3892
	ldr	r0, [r0]
.LVL889:
	.loc 1 5092 21 view .LVU3893
	ldr	r1, [sp, #16]
	bl	mz_crc32
.LVL890:
	mov	r3, r0
	.loc 1 5094 1 view .LVU3894
	mov	r0, r5
	.loc 1 5092 8 view .LVU3895
	str	r3, [r4]
	.loc 1 5093 5 is_stmt 1 view .LVU3896
	.loc 1 5094 1 is_stmt 0 view .LVU3897
	pop	{r4, r5, r6, pc}
	.cfi_endproc
.LFE113:
	.size	mz_zip_compute_crc32_callback, .-mz_zip_compute_crc32_callback
	.section	.text.mz_free,"ax",%progbits
	.align	2
	.global	mz_free
	.syntax unified
	.arm
	.type	mz_free, %function
mz_free:
.LVL891:
.LFB5:
	.loc 1 156 1 is_stmt 1 view -0
	.cfi_startproc
	@ args = 0, pretend = 0, frame = 0
	@ frame_needed = 0, uses_anonymous_args = 0
	@ link register save eliminated.
	.loc 1 157 5 view .LVU3899
	b	free
.LVL892:
	.loc 1 157 5 is_stmt 0 view .LVU3900
	.cfi_endproc
.LFE5:
	.size	mz_free, .-mz_free
	.section	.rodata.str1.4
	.align	2
.LC10:
	.ascii	"10.0.1\000"
	.section	.text.mz_version,"ax",%progbits
	.align	2
	.global	mz_version
	.syntax unified
	.arm
	.type	mz_version, %function
mz_version:
.LFB9:
	.loc 1 177 1 is_stmt 1 view -0
	.cfi_startproc
	@ args = 0, pretend = 0, frame = 0
	@ frame_needed = 0, uses_anonymous_args = 0
	@ link register save eliminated.
	.loc 1 178 5 view .LVU3902
	.loc 1 179 1 is_stmt 0 view .LVU3903
	ldr	r0, .L874
	bx	lr
.L875:
	.align	2
.L874:
	.word	.LC10
	.cfi_endproc
.LFE9:
	.size	mz_version, .-mz_version
	.section	.text.mz_deflateEnd,"ax",%progbits
	.align	2
	.global	mz_deflateEnd
	.syntax unified
	.arm
	.type	mz_deflateEnd, %function
mz_deflateEnd:
.LVL893:
.LFB14:
	.loc 1 292 1 is_stmt 1 view -0
	.cfi_startproc
	@ args = 0, pretend = 0, frame = 0
	@ frame_needed = 0, uses_anonymous_args = 0
	.loc 1 293 5 view .LVU3905
	.loc 1 292 1 is_stmt 0 view .LVU3906
	push	{r4, lr}
	.cfi_def_cfa_offset 8
	.cfi_offset 4, -8
	.cfi_offset 14, -4
	.loc 1 293 8 view .LVU3907
	subs	r4, r0, #0
	beq	.L880
	.loc 1 295 5 is_stmt 1 view .LVU3908
	.loc 1 295 16 is_stmt 0 view .LVU3909
	ldr	r1, [r4, #28]
	.loc 1 295 8 view .LVU3910
	cmp	r1, #0
	beq	.L879
	.loc 1 297 9 is_stmt 1 view .LVU3911
	ldr	r3, [r4, #36]
	ldr	r0, [r4, #40]
.LVL894:
	.loc 1 297 9 is_stmt 0 view .LVU3912
	blx	r3
.LVL895:
	.loc 1 298 9 is_stmt 1 view .LVU3913
	.loc 1 298 24 is_stmt 0 view .LVU3914
	mov	r3, #0
	str	r3, [r4, #28]
.L879:
	.loc 1 300 12 view .LVU3915
	mov	r0, #0
	pop	{r4, pc}
.LVL896:
.L880:
	.loc 1 294 16 view .LVU3916
	mvn	r0, #1
.LVL897:
	.loc 1 301 1 view .LVU3917
	pop	{r4, pc}
	.cfi_endproc
.LFE14:
	.size	mz_deflateEnd, .-mz_deflateEnd
	.section	.text.mz_deflateBound,"ax",%progbits
	.align	2
	.global	mz_deflateBound
	.syntax unified
	.arm
	.type	mz_deflateBound, %function
mz_deflateBound:
.LVL898:
.LFB15:
	.loc 1 304 1 is_stmt 1 view -0
	.cfi_startproc
	@ args = 0, pretend = 0, frame = 0
	@ frame_needed = 0, uses_anonymous_args = 0
	@ link register save eliminated.
	.loc 1 305 5 view .LVU3919
	.loc 1 307 5 view .LVU3920
	.loc 1 307 82 is_stmt 0 view .LVU3921
	ldr	ip, .L883
	.loc 1 307 33 view .LVU3922
	rsb	r3, r1, r1, lsl #3
	.loc 1 307 40 view .LVU3923
	ldr	r2, .L883+4
	.loc 1 307 82 view .LVU3924
	lsr	r0, r1, #10
.LVL899:
	.loc 1 307 33 view .LVU3925
	rsb	r3, r1, r3, lsl #3
	.loc 1 307 82 view .LVU3926
	umull	ip, r0, ip, r0
	.loc 1 307 33 view .LVU3927
	lsl	r3, r3, #1
	.loc 1 307 40 view .LVU3928
	umull	r2, r3, r2, r3
	.loc 1 307 102 view .LVU3929
	add	r0, r0, #1
	.loc 1 307 67 view .LVU3930
	add	r1, r1, #128
.LVL900:
	.loc 1 307 102 view .LVU3931
	add	r0, r0, r0, lsl #2
	.loc 1 307 40 view .LVU3932
	lsr	r3, r3, #5
	.loc 1 307 67 view .LVU3933
	add	r0, r0, r1
	.loc 1 307 19 view .LVU3934
	add	r3, r3, #128
	.loc 1 308 1 view .LVU3935
	cmp	r0, r3
	movcc	r0, r3
	bx	lr
.L884:
	.align	2
.L883:
	.word	138547365
	.word	1374389535
	.cfi_endproc
.LFE15:
	.size	mz_deflateBound, .-mz_deflateBound
	.section	.text.mz_compressBound,"ax",%progbits
	.align	2
	.global	mz_compressBound
	.syntax unified
	.arm
	.type	mz_compressBound, %function
mz_compressBound:
.LVL901:
.LFB18:
	.loc 1 346 1 is_stmt 1 view -0
	.cfi_startproc
	@ args = 0, pretend = 0, frame = 0
	@ frame_needed = 0, uses_anonymous_args = 0
	@ link register save eliminated.
	.loc 1 347 5 view .LVU3937
.LBB2133:
.LBB2134:
	.loc 1 307 82 is_stmt 0 view .LVU3938
	ldr	ip, .L886
	.loc 1 307 33 view .LVU3939
	rsb	r3, r0, r0, lsl #3
	.loc 1 307 40 view .LVU3940
	ldr	r1, .L886+4
.LVL902:
	.loc 1 307 40 view .LVU3941
.LBE2134:
.LBI2133:
	.loc 1 303 10 is_stmt 1 view .LVU3942
.LBB2135:
	.loc 1 305 5 view .LVU3943
	.loc 1 307 5 view .LVU3944
	.loc 1 307 82 is_stmt 0 view .LVU3945
	lsr	r2, r0, #10
	.loc 1 307 33 view .LVU3946
	rsb	r3, r0, r3, lsl #3
	.loc 1 307 82 view .LVU3947
	umull	ip, r2, ip, r2
	.loc 1 307 33 view .LVU3948
	lsl	r3, r3, #1
	.loc 1 307 40 view .LVU3949
	umull	r1, r3, r1, r3
	.loc 1 307 67 view .LVU3950
	add	r1, r0, #128
	.loc 1 307 102 view .LVU3951
	add	r0, r2, #1
.LVL903:
	.loc 1 307 102 view .LVU3952
	add	r0, r0, r0, lsl #2
	.loc 1 307 40 view .LVU3953
	lsr	r3, r3, #5
	.loc 1 307 67 view .LVU3954
	add	r0, r0, r1
	.loc 1 307 19 view .LVU3955
	add	r3, r3, #128
.LBE2135:
.LBE2133:
	.loc 1 348 1 view .LVU3956
	cmp	r0, r3
	movcc	r0, r3
	bx	lr
.L887:
	.align	2
.L886:
	.word	138547365
	.word	1374389535
	.cfi_endproc
.LFE18:
	.size	mz_compressBound, .-mz_compressBound
	.section	.text.mz_inflateInit2,"ax",%progbits
	.align	2
	.global	mz_inflateInit2
	.syntax unified
	.arm
	.type	mz_inflateInit2, %function
mz_inflateInit2:
.LVL904:
.LFB19:
	.loc 1 360 1 is_stmt 1 view -0
	.cfi_startproc
	@ args = 0, pretend = 0, frame = 0
	@ frame_needed = 0, uses_anonymous_args = 0
	.loc 1 361 5 view .LVU3958
	.loc 1 362 5 view .LVU3959
	.loc 1 360 1 is_stmt 0 view .LVU3960
	push	{r4, r5, r6, lr}
	.cfi_def_cfa_offset 16
	.cfi_offset 4, -16
	.cfi_offset 5, -12
	.cfi_offset 6, -8
	.cfi_offset 14, -4
	.loc 1 362 8 view .LVU3961
	subs	r4, r0, #0
	beq	.L892
	.loc 1 364 5 is_stmt 1 view .LVU3962
	.loc 1 364 8 is_stmt 0 view .LVU3963
	cmp	r1, #15
	cmnne	r1, #15
	mov	r6, r1
	movne	r3, #1
	moveq	r3, #0
	bne	.L893
	.loc 1 367 5 is_stmt 1 view .LVU3964
	.loc 1 373 17 is_stmt 0 view .LVU3965
	ldr	r5, [r4, #32]
	.loc 1 367 24 view .LVU3966
	str	r3, [r4, #44]
	.loc 1 368 5 is_stmt 1 view .LVU3967
	.loc 1 369 5 view .LVU3968
	.loc 1 373 8 is_stmt 0 view .LVU3969
	cmp	r5, #0
	.loc 1 369 18 view .LVU3970
	str	r3, [r4, #24]
	.loc 1 370 5 is_stmt 1 view .LVU3971
	.loc 1 370 23 is_stmt 0 view .LVU3972
	str	r3, [r4, #8]
	.loc 1 371 5 is_stmt 1 view .LVU3973
	.loc 1 371 24 is_stmt 0 view .LVU3974
	str	r3, [r4, #20]
	.loc 1 372 5 is_stmt 1 view .LVU3975
	.loc 1 368 20 is_stmt 0 view .LVU3976
	str	r3, [r4, #48]	@ unaligned
	str	r3, [r4, #52]	@ unaligned
	.loc 1 373 5 is_stmt 1 view .LVU3977
	.loc 1 374 9 view .LVU3978
	.loc 1 374 25 is_stmt 0 view .LVU3979
	ldreq	r3, .L896
	.loc 1 378 32 view .LVU3980
	mov	r1, #1
.LVL905:
	.loc 1 374 25 view .LVU3981
	moveq	r5, r3
