	.arch armv6k
	.fpu vfp
	.eabi_attribute 28, 1
	.eabi_attribute 20, 1
	.eabi_attribute 21, 1
	.eabi_attribute 23, 3
	.eabi_attribute 24, 1
	.eabi_attribute 25, 1
	.eabi_attribute 26, 1
	.eabi_attribute 30, 2
	.eabi_attribute 34, 1
	.eabi_attribute 18, 4
	.file	"PlayerController.c"
	.text
.Ltext0:
	.cfi_sections	.debug_frame
	.file 1 "/Users/blackout/Desktop/Craftus-Rehabilitated/source/entity/PlayerController.c"
	.section	.rodata.str1.4,"aMS",%progbits,1
	.align	2
.LC1:
	.ascii	"%s\000"
	.align	2
.LC2:
	.ascii	"forward\000"
	.align	2
.LC3:
	.ascii	"controls\000"
	.align	2
.LC4:
	.ascii	"backward\000"
	.align	2
.LC5:
	.ascii	"strafeLeft\000"
	.align	2
.LC6:
	.ascii	"strafeRight\000"
	.align	2
.LC7:
	.ascii	"lookLeft\000"
	.align	2
.LC8:
	.ascii	"lookRight\000"
	.align	2
.LC9:
	.ascii	"lookUp\000"
	.align	2
.LC10:
	.ascii	"lookDown\000"
	.align	2
.LC11:
	.ascii	"placeBlock\000"
	.align	2
.LC12:
	.ascii	"breakBlock\000"
	.align	2
.LC13:
	.ascii	"jump\000"
	.align	2
.LC14:
	.ascii	"switchBlockLeft\000"
	.align	2
.LC15:
	.ascii	"switchBlockRight\000"
	.align	2
.LC16:
	.ascii	"openCmd\000"
	.align	2
.LC17:
	.ascii	"crouch\000"
	.align	2
.LC18:
	.ascii	"%d\000"
	.align	2
.LC19:
	.ascii	"auto_jumping\000"
	.align	2
.LC20:
	.ascii	"w\000"
	.align	2
.LC21:
	.ascii	"[controls]\012\000"
	.align	2
.LC22:
	.ascii	"; The allowed key values are: \012; \000"
	.align	2
.LC23:
	.ascii	"%s, \000"
	.align	2
.LC24:
	.ascii	"\012 ; \000"
	.align	2
.LC25:
	.ascii	"%s\012\012\000"
	.align	2
.LC26:
	.ascii	"forward=%s\012\000"
	.align	2
.LC27:
	.ascii	"backward=%s\012\000"
	.align	2
.LC28:
	.ascii	"strafeLeft=%s\012\000"
	.align	2
.LC29:
	.ascii	"strafeRight=%s\012\000"
	.align	2
.LC30:
	.ascii	"lookLeft=%s\012\000"
	.align	2
.LC31:
	.ascii	"lookRight=%s\012\000"
	.align	2
.LC32:
	.ascii	"lookUp=%s\012\000"
	.align	2
.LC33:
	.ascii	"lookDown=%s\012\000"
	.align	2
.LC34:
	.ascii	"placeBlock=%s\012\000"
	.align	2
.LC35:
	.ascii	"breakBlock=%s\012\000"
	.align	2
.LC36:
	.ascii	"jump=%s\012\000"
	.align	2
.LC37:
	.ascii	"switchBlockLeft=%s\012\000"
	.align	2
.LC38:
	.ascii	"switchBlockRight=%s\012\000"
	.align	2
.LC39:
	.ascii	"openCmd=%s\012\000"
	.align	2
.LC40:
	.ascii	"crouch=%s\012\000"
	.align	2
.LC41:
	.ascii	"; 0 = disabled, 1 = enabled default: 1 for O3ds, 0 "
	.ascii	"for N3ds\012autojump=%d\012\000"
	.align	2
.LC0:
	.ascii	"sdmc:/craftus_redesigned/options.ini\000"
	.section	.text.PlayerController_Init,"ax",%progbits
	.align	2
	.global	PlayerController_Init
	.syntax unified
	.arm
	.type	PlayerController_Init, %function
PlayerController_Init:
.LVL0:
.LFB146:
	.loc 1 137 68 view -0
	.cfi_startproc
	@ args = 0, pretend = 0, frame = 112
	@ frame_needed = 0, uses_anonymous_args = 0
	.loc 1 138 2 view .LVU1
	.loc 1 137 68 is_stmt 0 view .LVU2
	push	{r4, r5, r6, r7, r8, r9, r10, fp, lr}
	.cfi_def_cfa_offset 36
	.cfi_offset 4, -36
	.cfi_offset 5, -32
	.cfi_offset 6, -28
	.cfi_offset 7, -24
	.cfi_offset 8, -20
	.cfi_offset 9, -16
	.cfi_offset 10, -12
	.cfi_offset 11, -8
	.cfi_offset 14, -4
	.loc 1 138 26 view .LVU3
	mov	r3, #0
	.loc 1 137 68 view .LVU4
	mov	r7, r0
	.loc 1 141 6 view .LVU5
	mov	r4, #0
	.loc 1 137 68 view .LVU6
	sub	sp, sp, #124
	.cfi_def_cfa_offset 160
	.loc 1 138 26 view .LVU7
	str	r3, [r7, #64]	@ float
	.loc 1 139 2 is_stmt 1 view .LVU8
	.loc 1 142 2 is_stmt 0 view .LVU9
	add	r0, sp, #15
.LVL1:
	.loc 1 139 15 view .LVU10
	str	r1, [r7]
	.loc 1 141 1 is_stmt 1 view .LVU11
	.loc 1 142 2 view .LVU12
	.loc 1 137 68 is_stmt 0 view .LVU13
	mov	r10, r1
	.loc 1 141 6 view .LVU14
	strb	r4, [sp, #15]
	.loc 1 142 2 view .LVU15
	bl	APT_CheckNew3DS
.LVL2:
	.loc 1 143 2 is_stmt 1 view .LVU16
	.loc 1 143 5 is_stmt 0 view .LVU17
	ldrb	r3, [sp, #15]	@ zero_extendqisi2
	cmp	r3, r4
	beq	.L2
	.loc 1 144 3 is_stmt 1 view .LVU18
	.loc 1 144 23 is_stmt 0 view .LVU19
	ldr	lr, .L111
	add	ip, r7, #4
	.loc 1 145 33 view .LVU20
	ldr	r5, [r7]
	.loc 1 144 23 view .LVU21
	ldmia	lr!, {r0, r1, r2, r3}
	stmia	ip!, {r0, r1, r2, r3}
	ldmia	lr!, {r0, r1, r2, r3}
	stmia	ip!, {r0, r1, r2, r3}
	ldmia	lr!, {r0, r1, r2, r3}
	stmia	ip!, {r0, r1, r2, r3}
	ldm	lr, {r0, r1, r2}
	stm	ip, {r0, r1, r2}
	.loc 1 145 3 is_stmt 1 view .LVU22
	.loc 1 145 33 is_stmt 0 view .LVU23
	strb	r4, [r5, #56]
.L3:
	.loc 1 151 2 is_stmt 1 view .LVU24
	.loc 1 151 18 is_stmt 0 view .LVU25
	mov	r4, #0
	.loc 1 155 13 view .LVU26
	ldr	lr, .L111+4
	add	ip, sp, #16
	ldmia	lr!, {r0, r1, r2, r3}
	stmia	ip!, {r0, r1, r2, r3}
	ldmia	lr!, {r0, r1, r2, r3}
	stmia	ip!, {r0, r1, r2, r3}
	ldm	lr, {r0, r1}
	str	r0, [ip], #4
	strb	r1, [ip]
	.loc 1 151 18 view .LVU27
	strb	r4, [r7, #68]
	.loc 1 153 1 is_stmt 1 view .LVU28
.LVL3:
	.loc 1 155 2 view .LVU29
	.loc 1 156 2 view .LVU30
	.loc 1 156 6 is_stmt 0 view .LVU31
	mov	r1, r4
	add	r0, sp, #16
	bl	access
.LVL4:
	.loc 1 156 5 view .LVU32
	cmn	r0, #1
	beq	.L5
.LBB111:
	.loc 1 157 3 is_stmt 1 view .LVU33
	.loc 1 157 16 is_stmt 0 view .LVU34
	add	r0, sp, #16
	bl	ini_load
.LVL5:
	.loc 1 172 7 view .LVU35
	add	r3, sp, #56
	str	r3, [sp]
	ldr	r2, .L111+8
	ldr	r3, .L111+12
	ldr	r1, .L111+16
	.loc 1 157 16 view .LVU36
	mov	r5, r0
.LVL6:
	.loc 1 159 3 is_stmt 1 view .LVU37
	.loc 1 172 3 view .LVU38
	.loc 1 172 7 is_stmt 0 view .LVU39
	bl	ini_sget
.LVL7:
	.loc 1 172 6 view .LVU40
	cmp	r0, r4
	.loc 1 172 204 view .LVU41
	moveq	r6, #1
	.loc 1 172 6 view .LVU42
	beq	.L6
	ldr	r6, .L111+20
	b	.L9
.LVL8:
.L7:
.LBB112:
	.loc 1 172 86 discriminator 5 view .LVU43
	add	r4, r4, #1
.LVL9:
	.loc 1 172 79 is_stmt 1 discriminator 5 view .LVU44
	cmp	r4, #23
	beq	.L8
.LVL10:
.L9:
	.loc 1 172 92 discriminator 7 view .LVU45
	.loc 1 172 97 is_stmt 0 discriminator 7 view .LVU46
	ldr	r0, [r6, #4]!
	add	r1, sp, #56
	bl	strcmp
.LVL11:
	.loc 1 172 86 is_stmt 1 discriminator 7 view .LVU47
	.loc 1 172 95 is_stmt 0 discriminator 7 view .LVU48
	cmp	r0, #0
	bne	.L7
	.loc 1 172 138 is_stmt 1 discriminator 4 view .LVU49
	.loc 1 172 166 is_stmt 0 discriminator 4 view .LVU50
	str	r4, [r7, #4]
	.loc 1 172 171 is_stmt 1 discriminator 4 view .LVU51
.L8:
	.loc 1 172 171 is_stmt 0 discriminator 4 view .LVU52
.LBE112:
.LBE111:
	.loc 1 153 6 view .LVU53
	mov	r6, #0
.LVL12:
.L6:
.LBB127:
	.loc 1 172 3 is_stmt 1 discriminator 8 view .LVU54
	.loc 1 173 3 discriminator 8 view .LVU55
	.loc 1 173 7 is_stmt 0 discriminator 8 view .LVU56
	add	r3, sp, #56
	str	r3, [sp]
	mov	r0, r5
	ldr	r3, .L111+12
	ldr	r2, .L111+24
	ldr	r1, .L111+16
	bl	ini_sget
.LVL13:
	.loc 1 173 6 discriminator 8 view .LVU57
	cmp	r0, #0
	.loc 1 173 206 discriminator 8 view .LVU58
	moveq	r6, #1
.LVL14:
	.loc 1 173 6 discriminator 8 view .LVU59
	beq	.L10
.LBB113:
	.loc 1 173 71 view .LVU60
	mov	r4, #0
	ldr	r8, .L111+20
	b	.L13
.LVL15:
.L11:
	.loc 1 173 87 discriminator 5 view .LVU61
	add	r4, r4, #1
.LVL16:
	.loc 1 173 80 is_stmt 1 discriminator 5 view .LVU62
	cmp	r4, #23
	beq	.L10
.LVL17:
.L13:
	.loc 1 173 93 discriminator 7 view .LVU63
	.loc 1 173 98 is_stmt 0 discriminator 7 view .LVU64
	ldr	r0, [r8, #4]!
	add	r1, sp, #56
	bl	strcmp
.LVL18:
	.loc 1 173 87 is_stmt 1 discriminator 7 view .LVU65
	.loc 1 173 96 is_stmt 0 discriminator 7 view .LVU66
	cmp	r0, #0
	bne	.L11
	.loc 1 173 139 is_stmt 1 discriminator 4 view .LVU67
	.loc 1 173 168 is_stmt 0 discriminator 4 view .LVU68
	str	r4, [r7, #8]
	.loc 1 173 173 is_stmt 1 discriminator 4 view .LVU69
.LVL19:
.L10:
	.loc 1 173 173 is_stmt 0 discriminator 4 view .LVU70
.LBE113:
	.loc 1 173 3 is_stmt 1 discriminator 8 view .LVU71
	.loc 1 174 3 discriminator 8 view .LVU72
	.loc 1 174 7 is_stmt 0 discriminator 8 view .LVU73
	add	r3, sp, #56
	str	r3, [sp]
	mov	r0, r5
	ldr	r3, .L111+12
	ldr	r2, .L111+28
	ldr	r1, .L111+16
	bl	ini_sget
.LVL20:
	.loc 1 174 6 discriminator 8 view .LVU74
	cmp	r0, #0
	.loc 1 174 210 discriminator 8 view .LVU75
	moveq	r6, #1
.LVL21:
	.loc 1 174 6 discriminator 8 view .LVU76
	beq	.L14
.LBB114:
	.loc 1 174 73 view .LVU77
	mov	r4, #0
	ldr	r8, .L111+20
	b	.L17
.LVL22:
.L15:
	.loc 1 174 89 discriminator 5 view .LVU78
	add	r4, r4, #1
.LVL23:
	.loc 1 174 82 is_stmt 1 discriminator 5 view .LVU79
	cmp	r4, #23
	beq	.L14
.LVL24:
.L17:
	.loc 1 174 95 discriminator 7 view .LVU80
	.loc 1 174 100 is_stmt 0 discriminator 7 view .LVU81
	ldr	r0, [r8, #4]!
	add	r1, sp, #56
	bl	strcmp
.LVL25:
	.loc 1 174 89 is_stmt 1 discriminator 7 view .LVU82
	.loc 1 174 98 is_stmt 0 discriminator 7 view .LVU83
	cmp	r0, #0
	bne	.L15
	.loc 1 174 141 is_stmt 1 discriminator 4 view .LVU84
	.loc 1 174 172 is_stmt 0 discriminator 4 view .LVU85
	str	r4, [r7, #12]
	.loc 1 174 177 is_stmt 1 discriminator 4 view .LVU86
.LVL26:
.L14:
	.loc 1 174 177 is_stmt 0 discriminator 4 view .LVU87
.LBE114:
	.loc 1 174 3 is_stmt 1 discriminator 8 view .LVU88
	.loc 1 175 3 discriminator 8 view .LVU89
	.loc 1 175 7 is_stmt 0 discriminator 8 view .LVU90
	add	r3, sp, #56
	str	r3, [sp]
	mov	r0, r5
	ldr	r3, .L111+12
	ldr	r2, .L111+32
	ldr	r1, .L111+16
	bl	ini_sget
.LVL27:
	.loc 1 175 6 discriminator 8 view .LVU91
	cmp	r0, #0
	.loc 1 175 212 discriminator 8 view .LVU92
	moveq	r6, #1
.LVL28:
	.loc 1 175 6 discriminator 8 view .LVU93
	beq	.L18
.LBB115:
	.loc 1 175 74 view .LVU94
	mov	r4, #0
	ldr	r8, .L111+20
	b	.L21
.LVL29:
.L19:
	.loc 1 175 90 discriminator 5 view .LVU95
	add	r4, r4, #1
.LVL30:
	.loc 1 175 83 is_stmt 1 discriminator 5 view .LVU96
	cmp	r4, #23
	beq	.L18
.LVL31:
.L21:
	.loc 1 175 96 discriminator 7 view .LVU97
	.loc 1 175 101 is_stmt 0 discriminator 7 view .LVU98
	ldr	r0, [r8, #4]!
	add	r1, sp, #56
	bl	strcmp
.LVL32:
	.loc 1 175 90 is_stmt 1 discriminator 7 view .LVU99
	.loc 1 175 99 is_stmt 0 discriminator 7 view .LVU100
	cmp	r0, #0
	bne	.L19
	.loc 1 175 142 is_stmt 1 discriminator 4 view .LVU101
	.loc 1 175 174 is_stmt 0 discriminator 4 view .LVU102
	str	r4, [r7, #16]
	.loc 1 175 179 is_stmt 1 discriminator 4 view .LVU103
.LVL33:
.L18:
	.loc 1 175 179 is_stmt 0 discriminator 4 view .LVU104
.LBE115:
	.loc 1 175 3 is_stmt 1 discriminator 8 view .LVU105
	.loc 1 176 3 discriminator 8 view .LVU106
	.loc 1 176 7 is_stmt 0 discriminator 8 view .LVU107
	add	r3, sp, #56
	str	r3, [sp]
	mov	r0, r5
	ldr	r3, .L111+12
	ldr	r2, .L111+36
	ldr	r1, .L111+16
	bl	ini_sget
.LVL34:
	.loc 1 176 6 discriminator 8 view .LVU108
	cmp	r0, #0
	.loc 1 176 206 discriminator 8 view .LVU109
	moveq	r6, #1
.LVL35:
	.loc 1 176 6 discriminator 8 view .LVU110
	beq	.L22
.LBB116:
	.loc 1 176 71 view .LVU111
	mov	r4, #0
	ldr	r8, .L111+20
	b	.L25
.LVL36:
.L23:
	.loc 1 176 87 discriminator 5 view .LVU112
	add	r4, r4, #1
.LVL37:
	.loc 1 176 80 is_stmt 1 discriminator 5 view .LVU113
	cmp	r4, #23
	beq	.L22
.LVL38:
.L25:
	.loc 1 176 93 discriminator 7 view .LVU114
	.loc 1 176 98 is_stmt 0 discriminator 7 view .LVU115
	ldr	r0, [r8, #4]!
	add	r1, sp, #56
	bl	strcmp
.LVL39:
	.loc 1 176 87 is_stmt 1 discriminator 7 view .LVU116
	.loc 1 176 96 is_stmt 0 discriminator 7 view .LVU117
	cmp	r0, #0
	bne	.L23
	.loc 1 176 139 is_stmt 1 discriminator 4 view .LVU118
	.loc 1 176 168 is_stmt 0 discriminator 4 view .LVU119
	str	r4, [r7, #20]
	.loc 1 176 173 is_stmt 1 discriminator 4 view .LVU120
.LVL40:
.L22:
	.loc 1 176 173 is_stmt 0 discriminator 4 view .LVU121
.LBE116:
	.loc 1 176 3 is_stmt 1 discriminator 8 view .LVU122
	.loc 1 177 3 discriminator 8 view .LVU123
	.loc 1 177 7 is_stmt 0 discriminator 8 view .LVU124
	add	r3, sp, #56
	str	r3, [sp]
	mov	r0, r5
	ldr	r3, .L111+12
	ldr	r2, .L111+40
	ldr	r1, .L111+16
	bl	ini_sget
.LVL41:
	.loc 1 177 6 discriminator 8 view .LVU125
	cmp	r0, #0
	.loc 1 177 208 discriminator 8 view .LVU126
	moveq	r6, #1
.LVL42:
	.loc 1 177 6 discriminator 8 view .LVU127
	beq	.L26
.LBB117:
	.loc 1 177 72 view .LVU128
	mov	r4, #0
	ldr	r8, .L111+20
	b	.L29
.LVL43:
.L27:
	.loc 1 177 88 discriminator 5 view .LVU129
	add	r4, r4, #1
.LVL44:
	.loc 1 177 81 is_stmt 1 discriminator 5 view .LVU130
	cmp	r4, #23
	beq	.L26
.LVL45:
.L29:
	.loc 1 177 94 discriminator 7 view .LVU131
	.loc 1 177 99 is_stmt 0 discriminator 7 view .LVU132
	ldr	r0, [r8, #4]!
	add	r1, sp, #56
	bl	strcmp
.LVL46:
	.loc 1 177 88 is_stmt 1 discriminator 7 view .LVU133
	.loc 1 177 97 is_stmt 0 discriminator 7 view .LVU134
	cmp	r0, #0
	bne	.L27
	.loc 1 177 140 is_stmt 1 discriminator 4 view .LVU135
	.loc 1 177 170 is_stmt 0 discriminator 4 view .LVU136
	str	r4, [r7, #24]
	.loc 1 177 175 is_stmt 1 discriminator 4 view .LVU137
.LVL47:
.L26:
	.loc 1 177 175 is_stmt 0 discriminator 4 view .LVU138
.LBE117:
	.loc 1 177 3 is_stmt 1 discriminator 8 view .LVU139
	.loc 1 178 3 discriminator 8 view .LVU140
	.loc 1 178 7 is_stmt 0 discriminator 8 view .LVU141
	add	r3, sp, #56
	str	r3, [sp]
	mov	r0, r5
	ldr	r3, .L111+12
	ldr	r2, .L111+44
	ldr	r1, .L111+16
	bl	ini_sget
.LVL48:
	.loc 1 178 6 discriminator 8 view .LVU142
	cmp	r0, #0
	.loc 1 178 202 discriminator 8 view .LVU143
	moveq	r6, #1
.LVL49:
	.loc 1 178 6 discriminator 8 view .LVU144
	beq	.L30
.LBB118:
	.loc 1 178 69 view .LVU145
	mov	r4, #0
	ldr	r8, .L111+20
	b	.L33
.LVL50:
.L31:
	.loc 1 178 85 discriminator 5 view .LVU146
	add	r4, r4, #1
.LVL51:
	.loc 1 178 78 is_stmt 1 discriminator 5 view .LVU147
	cmp	r4, #23
	beq	.L30
.LVL52:
.L33:
	.loc 1 178 91 discriminator 7 view .LVU148
	.loc 1 178 96 is_stmt 0 discriminator 7 view .LVU149
	ldr	r0, [r8, #4]!
	add	r1, sp, #56
	bl	strcmp
.LVL53:
	.loc 1 178 85 is_stmt 1 discriminator 7 view .LVU150
	.loc 1 178 94 is_stmt 0 discriminator 7 view .LVU151
	cmp	r0, #0
	bne	.L31
	.loc 1 178 137 is_stmt 1 discriminator 4 view .LVU152
	.loc 1 178 164 is_stmt 0 discriminator 4 view .LVU153
	str	r4, [r7, #28]
	.loc 1 178 169 is_stmt 1 discriminator 4 view .LVU154
.LVL54:
.L30:
	.loc 1 178 169 is_stmt 0 discriminator 4 view .LVU155
.LBE118:
	.loc 1 178 3 is_stmt 1 discriminator 8 view .LVU156
	.loc 1 179 3 discriminator 8 view .LVU157
	.loc 1 179 7 is_stmt 0 discriminator 8 view .LVU158
	add	r3, sp, #56
	str	r3, [sp]
	mov	r0, r5
	ldr	r3, .L111+12
	ldr	r2, .L111+48
	ldr	r1, .L111+16
	bl	ini_sget
.LVL55:
	.loc 1 179 6 discriminator 8 view .LVU159
	cmp	r0, #0
	.loc 1 179 206 discriminator 8 view .LVU160
	moveq	r6, #1
.LVL56:
	.loc 1 179 6 discriminator 8 view .LVU161
	beq	.L34
.LBB119:
	.loc 1 179 71 view .LVU162
	mov	r4, #0
	ldr	r8, .L111+20
	b	.L37
.LVL57:
.L35:
	.loc 1 179 87 discriminator 5 view .LVU163
	add	r4, r4, #1
.LVL58:
	.loc 1 179 80 is_stmt 1 discriminator 5 view .LVU164
	cmp	r4, #23
	beq	.L34
.LVL59:
.L37:
	.loc 1 179 93 discriminator 7 view .LVU165
	.loc 1 179 98 is_stmt 0 discriminator 7 view .LVU166
	ldr	r0, [r8, #4]!
	add	r1, sp, #56
	bl	strcmp
.LVL60:
	.loc 1 179 87 is_stmt 1 discriminator 7 view .LVU167
	.loc 1 179 96 is_stmt 0 discriminator 7 view .LVU168
	cmp	r0, #0
	bne	.L35
	.loc 1 179 139 is_stmt 1 discriminator 4 view .LVU169
	.loc 1 179 168 is_stmt 0 discriminator 4 view .LVU170
	str	r4, [r7, #32]
	.loc 1 179 173 is_stmt 1 discriminator 4 view .LVU171
.LVL61:
.L34:
	.loc 1 179 173 is_stmt 0 discriminator 4 view .LVU172
.LBE119:
	.loc 1 179 3 is_stmt 1 discriminator 8 view .LVU173
	.loc 1 180 3 discriminator 8 view .LVU174
	.loc 1 180 7 is_stmt 0 discriminator 8 view .LVU175
	add	r3, sp, #56
	str	r3, [sp]
	mov	r0, r5
	ldr	r3, .L111+12
	ldr	r2, .L111+52
	ldr	r1, .L111+16
	bl	ini_sget
.LVL62:
	.loc 1 180 6 discriminator 8 view .LVU176
	cmp	r0, #0
	.loc 1 180 210 discriminator 8 view .LVU177
	moveq	r6, #1
.LVL63:
	.loc 1 180 6 discriminator 8 view .LVU178
	beq	.L38
.LBB120:
	.loc 1 180 73 view .LVU179
	mov	r4, #0
	ldr	r8, .L111+20
	b	.L41
.LVL64:
.L39:
	.loc 1 180 89 discriminator 5 view .LVU180
	add	r4, r4, #1
.LVL65:
	.loc 1 180 82 is_stmt 1 discriminator 5 view .LVU181
	cmp	r4, #23
	beq	.L38
.LVL66:
.L41:
	.loc 1 180 95 discriminator 7 view .LVU182
	.loc 1 180 100 is_stmt 0 discriminator 7 view .LVU183
	ldr	r0, [r8, #4]!
	add	r1, sp, #56
	bl	strcmp
.LVL67:
	.loc 1 180 89 is_stmt 1 discriminator 7 view .LVU184
	.loc 1 180 98 is_stmt 0 discriminator 7 view .LVU185
	cmp	r0, #0
	bne	.L39
	.loc 1 180 141 is_stmt 1 discriminator 4 view .LVU186
	.loc 1 180 172 is_stmt 0 discriminator 4 view .LVU187
	str	r4, [r7, #36]
	.loc 1 180 177 is_stmt 1 discriminator 4 view .LVU188
.LVL68:
.L38:
	.loc 1 180 177 is_stmt 0 discriminator 4 view .LVU189
.LBE120:
	.loc 1 180 3 is_stmt 1 discriminator 8 view .LVU190
	.loc 1 181 3 discriminator 8 view .LVU191
	.loc 1 181 7 is_stmt 0 discriminator 8 view .LVU192
	add	r3, sp, #56
	str	r3, [sp]
	mov	r0, r5
	ldr	r3, .L111+12
	ldr	r2, .L111+56
	ldr	r1, .L111+16
	bl	ini_sget
.LVL69:
	.loc 1 181 6 discriminator 8 view .LVU193
	cmp	r0, #0
	.loc 1 181 210 discriminator 8 view .LVU194
	moveq	r6, #1
.LVL70:
	.loc 1 181 6 discriminator 8 view .LVU195
	beq	.L42
.LBB121:
	.loc 1 181 73 view .LVU196
	mov	r4, #0
	ldr	r8, .L111+20
	b	.L45
.LVL71:
.L43:
	.loc 1 181 89 discriminator 5 view .LVU197
	add	r4, r4, #1
.LVL72:
	.loc 1 181 82 is_stmt 1 discriminator 5 view .LVU198
	cmp	r4, #23
	beq	.L42
.LVL73:
.L45:
	.loc 1 181 95 discriminator 7 view .LVU199
	.loc 1 181 100 is_stmt 0 discriminator 7 view .LVU200
	ldr	r0, [r8, #4]!
	add	r1, sp, #56
	bl	strcmp
.LVL74:
	.loc 1 181 89 is_stmt 1 discriminator 7 view .LVU201
	.loc 1 181 98 is_stmt 0 discriminator 7 view .LVU202
	cmp	r0, #0
	bne	.L43
	.loc 1 181 141 is_stmt 1 discriminator 4 view .LVU203
	.loc 1 181 172 is_stmt 0 discriminator 4 view .LVU204
	str	r4, [r7, #40]
	.loc 1 181 177 is_stmt 1 discriminator 4 view .LVU205
.LVL75:
.L42:
	.loc 1 181 177 is_stmt 0 discriminator 4 view .LVU206
.LBE121:
	.loc 1 181 3 is_stmt 1 discriminator 8 view .LVU207
	.loc 1 182 3 discriminator 8 view .LVU208
	.loc 1 182 7 is_stmt 0 discriminator 8 view .LVU209
	add	r3, sp, #56
	str	r3, [sp]
	mov	r0, r5
	ldr	r3, .L111+12
	ldr	r2, .L111+60
	ldr	r1, .L111+16
	bl	ini_sget
.LVL76:
	.loc 1 182 6 discriminator 8 view .LVU210
	cmp	r0, #0
	.loc 1 182 198 discriminator 8 view .LVU211
	moveq	r6, #1
.LVL77:
	.loc 1 182 6 discriminator 8 view .LVU212
	beq	.L46
.LBB122:
	.loc 1 182 67 view .LVU213
	mov	r4, #0
	ldr	r8, .L111+20
	b	.L49
.LVL78:
.L47:
	.loc 1 182 83 discriminator 5 view .LVU214
	add	r4, r4, #1
.LVL79:
	.loc 1 182 76 is_stmt 1 discriminator 5 view .LVU215
	cmp	r4, #23
	beq	.L46
.LVL80:
.L49:
	.loc 1 182 89 discriminator 7 view .LVU216
	.loc 1 182 94 is_stmt 0 discriminator 7 view .LVU217
	ldr	r0, [r8, #4]!
	add	r1, sp, #56
	bl	strcmp
.LVL81:
	.loc 1 182 83 is_stmt 1 discriminator 7 view .LVU218
	.loc 1 182 92 is_stmt 0 discriminator 7 view .LVU219
	cmp	r0, #0
	bne	.L47
	.loc 1 182 135 is_stmt 1 discriminator 4 view .LVU220
	.loc 1 182 160 is_stmt 0 discriminator 4 view .LVU221
	str	r4, [r7, #44]
	.loc 1 182 165 is_stmt 1 discriminator 4 view .LVU222
.LVL82:
.L46:
	.loc 1 182 165 is_stmt 0 discriminator 4 view .LVU223
.LBE122:
	.loc 1 182 3 is_stmt 1 discriminator 8 view .LVU224
	.loc 1 183 3 discriminator 8 view .LVU225
	.loc 1 183 7 is_stmt 0 discriminator 8 view .LVU226
	add	r3, sp, #56
	str	r3, [sp]
	mov	r0, r5
	ldr	r3, .L111+12
	ldr	r2, .L111+64
	ldr	r1, .L111+16
	bl	ini_sget
.LVL83:
	.loc 1 183 6 discriminator 8 view .LVU227
	cmp	r0, #0
	.loc 1 183 220 discriminator 8 view .LVU228
	moveq	r6, #1
.LVL84:
	.loc 1 183 6 discriminator 8 view .LVU229
	beq	.L50
.LBB123:
	.loc 1 183 78 view .LVU230
	mov	r4, #0
	ldr	r8, .L111+20
	b	.L53
.LVL85:
.L51:
	.loc 1 183 94 discriminator 5 view .LVU231
	add	r4, r4, #1
.LVL86:
	.loc 1 183 87 is_stmt 1 discriminator 5 view .LVU232
	cmp	r4, #23
	beq	.L50
.LVL87:
.L53:
	.loc 1 183 100 discriminator 7 view .LVU233
	.loc 1 183 105 is_stmt 0 discriminator 7 view .LVU234
	ldr	r0, [r8, #4]!
	add	r1, sp, #56
	bl	strcmp
.LVL88:
	.loc 1 183 94 is_stmt 1 discriminator 7 view .LVU235
	.loc 1 183 103 is_stmt 0 discriminator 7 view .LVU236
	cmp	r0, #0
	bne	.L51
	.loc 1 183 146 is_stmt 1 discriminator 4 view .LVU237
	.loc 1 183 182 is_stmt 0 discriminator 4 view .LVU238
	str	r4, [r7, #48]
	.loc 1 183 187 is_stmt 1 discriminator 4 view .LVU239
.LVL89:
.L50:
	.loc 1 183 187 is_stmt 0 discriminator 4 view .LVU240
.LBE123:
	.loc 1 183 3 is_stmt 1 discriminator 8 view .LVU241
	.loc 1 184 3 discriminator 8 view .LVU242
	.loc 1 184 7 is_stmt 0 discriminator 8 view .LVU243
	add	r3, sp, #56
	str	r3, [sp]
	mov	r0, r5
	ldr	r3, .L111+12
	ldr	r2, .L111+68
	ldr	r1, .L111+16
	bl	ini_sget
.LVL90:
	.loc 1 184 6 discriminator 8 view .LVU244
	cmp	r0, #0
	.loc 1 184 222 discriminator 8 view .LVU245
	moveq	r6, #1
.LVL91:
	.loc 1 184 6 discriminator 8 view .LVU246
	beq	.L54
.LBB124:
	.loc 1 184 79 view .LVU247
	mov	r4, #0
	ldr	r8, .L111+20
	b	.L57
.LVL92:
.L55:
	.loc 1 184 95 discriminator 5 view .LVU248
	add	r4, r4, #1
.LVL93:
	.loc 1 184 88 is_stmt 1 discriminator 5 view .LVU249
	cmp	r4, #23
	beq	.L54
.LVL94:
.L57:
	.loc 1 184 101 discriminator 7 view .LVU250
	.loc 1 184 106 is_stmt 0 discriminator 7 view .LVU251
	ldr	r0, [r8, #4]!
	add	r1, sp, #56
	bl	strcmp
.LVL95:
	.loc 1 184 95 is_stmt 1 discriminator 7 view .LVU252
	.loc 1 184 104 is_stmt 0 discriminator 7 view .LVU253
	cmp	r0, #0
	bne	.L55
	.loc 1 184 147 is_stmt 1 discriminator 4 view .LVU254
	.loc 1 184 184 is_stmt 0 discriminator 4 view .LVU255
	str	r4, [r7, #52]
	.loc 1 184 189 is_stmt 1 discriminator 4 view .LVU256
.LVL96:
.L54:
	.loc 1 184 189 is_stmt 0 discriminator 4 view .LVU257
.LBE124:
	.loc 1 184 3 is_stmt 1 discriminator 8 view .LVU258
	.loc 1 185 3 discriminator 8 view .LVU259
	.loc 1 185 7 is_stmt 0 discriminator 8 view .LVU260
	add	r3, sp, #56
	str	r3, [sp]
	mov	r0, r5
	ldr	r3, .L111+12
	ldr	r2, .L111+72
	ldr	r1, .L111+16
	bl	ini_sget
.LVL97:
	.loc 1 185 6 discriminator 8 view .LVU261
	cmp	r0, #0
	.loc 1 185 204 discriminator 8 view .LVU262
	moveq	r6, #1
.LVL98:
	.loc 1 185 6 discriminator 8 view .LVU263
	beq	.L58
.LBB125:
	.loc 1 185 70 view .LVU264
	mov	r4, #0
	ldr	r8, .L111+20
	b	.L61
.LVL99:
.L59:
	.loc 1 185 86 discriminator 5 view .LVU265
	add	r4, r4, #1
.LVL100:
	.loc 1 185 79 is_stmt 1 discriminator 5 view .LVU266
	cmp	r4, #23
	beq	.L58
.LVL101:
.L61:
	.loc 1 185 92 discriminator 7 view .LVU267
	.loc 1 185 97 is_stmt 0 discriminator 7 view .LVU268
	ldr	r0, [r8, #4]!
	add	r1, sp, #56
	bl	strcmp
.LVL102:
	.loc 1 185 86 is_stmt 1 discriminator 7 view .LVU269
	.loc 1 185 95 is_stmt 0 discriminator 7 view .LVU270
	cmp	r0, #0
	bne	.L59
	.loc 1 185 138 is_stmt 1 discriminator 4 view .LVU271
	.loc 1 185 166 is_stmt 0 discriminator 4 view .LVU272
	str	r4, [r7, #56]
	.loc 1 185 171 is_stmt 1 discriminator 4 view .LVU273
.LVL103:
.L58:
	.loc 1 185 171 is_stmt 0 discriminator 4 view .LVU274
.LBE125:
	.loc 1 185 3 is_stmt 1 discriminator 8 view .LVU275
	.loc 1 186 3 discriminator 8 view .LVU276
	.loc 1 186 7 is_stmt 0 discriminator 8 view .LVU277
	add	r3, sp, #56
	str	r3, [sp]
	mov	r0, r5
	ldr	r3, .L111+12
	ldr	r2, .L111+76
	ldr	r1, .L111+16
	bl	ini_sget
.LVL104:
	.loc 1 186 6 discriminator 8 view .LVU278
	cmp	r0, #0
	beq	.L62
.LBB126:
	.loc 1 186 69 view .LVU279
	mov	r4, #0
	ldr	r8, .L111+20
	b	.L65
.LVL105:
.L63:
	.loc 1 186 85 discriminator 5 view .LVU280
	add	r4, r4, #1
.LVL106:
	.loc 1 186 78 is_stmt 1 discriminator 5 view .LVU281
	cmp	r4, #23
	beq	.L64
.LVL107:
.L65:
	.loc 1 186 91 discriminator 7 view .LVU282
	.loc 1 186 96 is_stmt 0 discriminator 7 view .LVU283
	ldr	r0, [r8, #4]!
	add	r1, sp, #56
	bl	strcmp
.LVL108:
	.loc 1 186 85 is_stmt 1 discriminator 7 view .LVU284
	.loc 1 186 94 is_stmt 0 discriminator 7 view .LVU285
	cmp	r0, #0
	bne	.L63
	.loc 1 186 137 is_stmt 1 discriminator 4 view .LVU286
	.loc 1 186 164 is_stmt 0 discriminator 4 view .LVU287
	str	r4, [r7, #60]
	.loc 1 186 169 is_stmt 1 discriminator 4 view .LVU288
.L64:
	.loc 1 186 169 is_stmt 0 discriminator 4 view .LVU289
.LBE126:
	.loc 1 186 3 is_stmt 1 discriminator 8 view .LVU290
	.loc 1 189 3 discriminator 8 view .LVU291
	.loc 1 189 56 is_stmt 0 discriminator 8 view .LVU292
	ldr	r3, [r7]
	.loc 1 189 8 discriminator 8 view .LVU293
	mov	r0, r5
	.loc 1 189 56 discriminator 8 view .LVU294
	add	r3, r3, #56
	.loc 1 189 8 discriminator 8 view .LVU295
	str	r3, [sp]
	ldr	r2, .L111+80
	ldr	r3, .L111+84
	ldr	r1, .L111+16
	bl	ini_sget
.LVL109:
	.loc 1 189 6 discriminator 8 view .LVU296
	cmp	r0, #0
	beq	.L107
	.loc 1 191 3 is_stmt 1 view .LVU297
	mov	r0, r5
	bl	ini_free
.LVL110:
	.loc 1 191 3 is_stmt 0 view .LVU298
.LBE127:
	.loc 1 196 2 is_stmt 1 view .LVU299
	.loc 1 196 5 is_stmt 0 view .LVU300
	cmp	r6, #0
	beq	.L68
.LVL111:
.L5:
.LBB128:
	.loc 1 197 3 is_stmt 1 view .LVU301
	.loc 1 197 13 is_stmt 0 view .LVU302
	ldr	r1, .L111+88
	add	r0, sp, #16
	bl	fopen
.LVL112:
	mov	r6, r0
	.loc 1 199 3 view .LVU303
	mov	r2, #11
	mov	r3, r6
	mov	r1, #1
	ldr	r5, .L111+20
	ldr	r0, .L111+92
	bl	fwrite
.LVL113:
	.loc 1 200 3 view .LVU304
	mov	r3, r6
	mov	r2, #33
	mov	r1, #1
	ldr	r0, .L111+96
	.loc 1 201 7 view .LVU305
	mov	r4, #0
.LBB129:
	.loc 1 203 4 view .LVU306
	ldr	r9, .L111+100
	.loc 1 206 5 view .LVU307
	ldr	fp, .L111+104
	add	r8, r5, #88
.LVL114:
	.loc 1 206 5 view .LVU308
.LBE129:
	.loc 1 199 3 is_stmt 1 view .LVU309
	.loc 1 200 3 view .LVU310
	bl	fwrite
.LVL115:
	.loc 1 201 3 view .LVU311
	.loc 1 202 3 view .LVU312
.LBB130:
	.loc 1 202 8 view .LVU313
	.loc 1 202 21 view .LVU314
	b	.L70
.LVL116:
.L69:
	.loc 1 202 32 discriminator 2 view .LVU315
	.loc 1 202 21 discriminator 2 view .LVU316
	cmp	r5, r8
	beq	.L110
.LVL117:
.L70:
	.loc 1 203 4 view .LVU317
	mov	r1, r9
	mov	r0, r6
	ldr	r2, [r5, #4]!
	.loc 1 204 7 is_stmt 0 view .LVU318
	add	r4, r4, #1
.LVL118:
	.loc 1 203 4 view .LVU319
	bl	fprintf
.LVL119:
	.loc 1 204 4 is_stmt 1 view .LVU320
	.loc 1 204 7 is_stmt 0 view .LVU321
	cmp	r4, #5
	bne	.L69
	.loc 1 205 5 is_stmt 1 view .LVU322
.LVL120:
	.loc 1 206 5 view .LVU323
	mov	r3, r6
	mov	r2, #4
	mov	r1, #1
	mov	r0, fp
	bl	fwrite
.LVL121:
	.loc 1 202 21 is_stmt 0 view .LVU324
	cmp	r5, r8
	.loc 1 205 7 view .LVU325
	mov	r4, #0
.LVL122:
	.loc 1 202 32 is_stmt 1 view .LVU326
	.loc 1 202 21 view .LVU327
	bne	.L70
.L110:
	.loc 1 202 21 is_stmt 0 view .LVU328
.LBE130:
	.loc 1 209 3 is_stmt 1 view .LVU329
	ldr	r4, .L111+108
.LVL123:
	.loc 1 209 3 is_stmt 0 view .LVU330
	ldr	r1, .L111+112
	ldr	r2, [r4, #88]
	mov	r0, r6
	bl	fprintf
.LVL124:
	.loc 1 213 3 is_stmt 1 view .LVU331
	ldr	r3, [r7, #4]
	ldr	r1, .L111+116
	ldr	r2, [r4, r3, lsl #2]
	mov	r0, r6
	bl	fprintf
.LVL125:
	.loc 1 213 82 view .LVU332
	.loc 1 214 3 view .LVU333
	ldr	r3, [r7, #8]
	ldr	r1, .L111+120
	ldr	r2, [r4, r3, lsl #2]
	mov	r0, r6
	bl	fprintf
.LVL126:
	.loc 1 214 84 view .LVU334
	.loc 1 215 3 view .LVU335
	ldr	r3, [r7, #12]
	ldr	r1, .L111+124
	ldr	r2, [r4, r3, lsl #2]
	mov	r0, r6
	bl	fprintf
.LVL127:
	.loc 1 215 88 view .LVU336
	.loc 1 216 3 view .LVU337
	ldr	r3, [r7, #16]
	ldr	r1, .L111+128
	ldr	r2, [r4, r3, lsl #2]
	mov	r0, r6
	bl	fprintf
.LVL128:
	.loc 1 216 90 view .LVU338
	.loc 1 217 3 view .LVU339
	ldr	r3, [r7, #20]
	ldr	r1, .L111+132
	ldr	r2, [r4, r3, lsl #2]
	mov	r0, r6
	bl	fprintf
.LVL129:
	.loc 1 217 84 view .LVU340
	.loc 1 218 3 view .LVU341
	ldr	r3, [r7, #24]
	ldr	r1, .L111+136
	ldr	r2, [r4, r3, lsl #2]
	mov	r0, r6
	bl	fprintf
.LVL130:
	.loc 1 218 86 view .LVU342
	.loc 1 219 3 view .LVU343
	ldr	r3, [r7, #28]
	ldr	r1, .L111+140
	ldr	r2, [r4, r3, lsl #2]
	mov	r0, r6
	bl	fprintf
.LVL131:
	.loc 1 219 80 view .LVU344
	.loc 1 220 3 view .LVU345
	ldr	r3, [r7, #32]
	ldr	r1, .L111+144
	ldr	r2, [r4, r3, lsl #2]
	mov	r0, r6
	bl	fprintf
.LVL132:
	.loc 1 220 84 view .LVU346
	.loc 1 221 3 view .LVU347
	ldr	r3, [r7, #36]
	ldr	r1, .L111+148
	ldr	r2, [r4, r3, lsl #2]
	mov	r0, r6
	bl	fprintf
.LVL133:
	.loc 1 221 88 view .LVU348
	.loc 1 222 3 view .LVU349
	ldr	r3, [r7, #40]
	ldr	r1, .L111+152
	ldr	r2, [r4, r3, lsl #2]
	mov	r0, r6
	bl	fprintf
.LVL134:
	.loc 1 222 88 view .LVU350
	.loc 1 223 3 view .LVU351
	ldr	r3, [r7, #44]
	ldr	r1, .L111+156
	ldr	r2, [r4, r3, lsl #2]
	mov	r0, r6
	bl	fprintf
.LVL135:
	.loc 1 223 76 view .LVU352
	.loc 1 224 3 view .LVU353
	ldr	r3, [r7, #48]
	ldr	r1, .L111+160
	ldr	r2, [r4, r3, lsl #2]
	mov	r0, r6
	bl	fprintf
.LVL136:
	.loc 1 224 98 view .LVU354
	.loc 1 225 3 view .LVU355
	ldr	r3, [r7, #52]
	ldr	r1, .L111+164
	ldr	r2, [r4, r3, lsl #2]
	mov	r0, r6
	bl	fprintf
.LVL137:
	.loc 1 225 100 view .LVU356
	.loc 1 226 3 view .LVU357
	ldr	r3, [r7, #56]
	ldr	r1, .L111+168
	ldr	r2, [r4, r3, lsl #2]
	mov	r0, r6
	bl	fprintf
.LVL138:
	.loc 1 226 82 view .LVU358
	.loc 1 227 3 view .LVU359
	ldr	r3, [r7, #60]
	ldr	r1, .L111+172
	ldr	r2, [r4, r3, lsl #2]
	mov	r0, r6
	bl	fprintf
.LVL139:
	.loc 1 227 80 view .LVU360
	.loc 1 231 3 view .LVU361
	mov	r0, r6
	ldrb	r2, [r10, #56]	@ zero_extendqisi2
	ldr	r1, .L111+176
	bl	fprintf
.LVL140:
	.loc 1 233 3 view .LVU362
	mov	r0, r6
	bl	fclose
.LVL141:
.L68:
	.loc 1 233 3 is_stmt 0 view .LVU363
.LBE128:
	.loc 1 236 2 is_stmt 1 view .LVU364
	.loc 1 236 17 is_stmt 0 view .LVU365
	ldr	r3, .L111+180
	str	r3, [r7, #72]	@ float
	.loc 1 237 1 view .LVU366
	add	sp, sp, #124
	.cfi_remember_state
	.cfi_def_cfa_offset 36
	@ sp needed
	pop	{r4, r5, r6, r7, r8, r9, r10, fp, pc}
.LVL142:
.L62:
	.cfi_restore_state
.LBB131:
	.loc 1 186 3 is_stmt 1 view .LVU367
	.loc 1 189 3 view .LVU368
	.loc 1 189 56 is_stmt 0 view .LVU369
	ldr	r3, [r7]
	.loc 1 189 8 view .LVU370
	mov	r0, r5
	.loc 1 189 56 view .LVU371
	add	r3, r3, #56
	.loc 1 189 8 view .LVU372
	str	r3, [sp]
	ldr	r2, .L111+80
	ldr	r3, .L111+84
	ldr	r1, .L111+16
	bl	ini_sget
.LVL143:
.L107:
	.loc 1 191 3 is_stmt 1 view .LVU373
	mov	r0, r5
	bl	ini_free
.LVL144:
	.loc 1 191 3 is_stmt 0 view .LVU374
.LBE131:
	.loc 1 196 2 is_stmt 1 view .LVU375
	b	.L5
.LVL145:
.L2:
	.loc 1 147 3 view .LVU376
	.loc 1 148 33 is_stmt 0 view .LVU377
	mov	r5, #1
	.loc 1 147 23 view .LVU378
	ldr	lr, .L111+184
	add	ip, r7, #4
	.loc 1 148 33 view .LVU379
	ldr	r4, [r7]
	.loc 1 147 23 view .LVU380
	ldmia	lr!, {r0, r1, r2, r3}
	stmia	ip!, {r0, r1, r2, r3}
	ldmia	lr!, {r0, r1, r2, r3}
	stmia	ip!, {r0, r1, r2, r3}
	ldmia	lr!, {r0, r1, r2, r3}
	stmia	ip!, {r0, r1, r2, r3}
	ldm	lr, {r0, r1, r2}
	stm	ip, {r0, r1, r2}
	.loc 1 148 3 is_stmt 1 view .LVU381
	.loc 1 148 33 is_stmt 0 view .LVU382
	strb	r5, [r4, #56]
	b	.L3
.L112:
	.align	2
.L111:
	.word	.LANCHOR0
	.word	.LC0
	.word	.LC2
	.word	.LC1
	.word	.LC3
	.word	.LANCHOR1-4
	.word	.LC4
	.word	.LC5
	.word	.LC6
	.word	.LC7
	.word	.LC8
	.word	.LC9
	.word	.LC10
	.word	.LC11
	.word	.LC12
	.word	.LC13
	.word	.LC14
	.word	.LC15
	.word	.LC16
	.word	.LC17
	.word	.LC19
	.word	.LC18
	.word	.LC20
	.word	.LC21
	.word	.LC22
	.word	.LC23
	.word	.LC24
	.word	.LANCHOR1
	.word	.LC25
	.word	.LC26
	.word	.LC27
	.word	.LC28
	.word	.LC29
	.word	.LC30
	.word	.LC31
	.word	.LC32
	.word	.LC33
	.word	.LC34
	.word	.LC35
	.word	.LC36
	.word	.LC37
	.word	.LC38
	.word	.LC39
	.word	.LC40
	.word	.LC41
	.word	-1082130432
	.word	.LANCHOR0+60
	.cfi_endproc
.LFE146:
	.size	PlayerController_Init, .-PlayerController_Init
	.section	.text.PlayerController_Update,"ax",%progbits
	.align	2
	.global	PlayerController_Update
	.syntax unified
	.arm
	.type	PlayerController_Update, %function
PlayerController_Update:
.LVL146:
.LFB147:
	.loc 1 239 81 is_stmt 1 view -0
	.cfi_startproc
	@ args = 28, pretend = 16, frame = 152
	@ frame_needed = 0, uses_anonymous_args = 0
	.loc 1 239 81 is_stmt 0 view .LVU384
	sub	sp, sp, #16
	.cfi_def_cfa_offset 16
	push	{r4, r5, r6, r7, r8, r9, lr}
	.cfi_def_cfa_offset 44
	.cfi_offset 4, -44
	.cfi_offset 5, -40
	.cfi_offset 6, -36
	.cfi_offset 7, -32
	.cfi_offset 8, -28
	.cfi_offset 9, -24
	.cfi_offset 14, -20
	vpush.64	{d8, d9, d10, d11, d12, d13}
	.cfi_def_cfa_offset 92
	.cfi_offset 80, -92
	.cfi_offset 81, -88
	.cfi_offset 82, -84
	.cfi_offset 83, -80
	.cfi_offset 84, -76
	.cfi_offset 85, -72
	.cfi_offset 86, -68
	.cfi_offset 87, -64
	.cfi_offset 88, -60
	.cfi_offset 89, -56
	.cfi_offset 90, -52
	.cfi_offset 91, -48
	sub	sp, sp, #156
	.cfi_def_cfa_offset 248
	.loc 1 239 81 view .LVU385
	add	ip, sp, #236
	stm	ip, {r1, r2, r3}
.LBB207:
.LBB208:
	.loc 1 78 14 view .LVU386
	mov	r1, #0
	ldr	r3, [sp, #236]
.LVL147:
	.loc 1 78 14 view .LVU387
.LBE208:
.LBE207:
	.loc 1 240 2 is_stmt 1 view .LVU388
	.loc 1 239 81 is_stmt 0 view .LVU389
	mov	r4, r0
.LBB215:
.LBB209:
	.loc 1 81 56 view .LVU390
	ands	r0, r2, #1
.LVL148:
	.loc 1 78 14 view .LVU391
	strb	r1, [sp, #127]
	.loc 1 79 12 view .LVU392
	strb	r1, [sp, #104]
	.loc 1 81 76 view .LVU393
	andeq	r1, r3, #1
	vmoveq	s15, r1	@ int
	vldrne.32	s15, .L187
	.loc 1 81 20 view .LVU394
	vcvteq.f32.s32	s15, s15
	.loc 1 101 16 view .LVU395
	ldrsh	r1, [sp, #250]
	orr	r3, r3, r2
.LVL149:
	.loc 1 101 16 view .LVU396
	vmov	s11, r1	@ int
	.loc 1 100 16 view .LVU397
	ldrsh	r1, [sp, #248]
	.loc 1 81 18 view .LVU398
	vstr.32	s15, [sp, #16]
	.loc 1 100 16 view .LVU399
	vmov	s12, r1	@ int
	.loc 1 82 56 view .LVU400
	lsr	r1, r3, #1
	and	r1, r1, #1
	.loc 1 82 20 view .LVU401
	vmov	s15, r1	@ int
	.loc 1 83 56 view .LVU402
	lsr	r1, r3, #10
	and	r1, r1, #1
	.loc 1 82 20 view .LVU403
	vcvt.f32.s32	s13, s15
	.loc 1 83 20 view .LVU404
	vmov	s15, r1	@ int
	.loc 1 84 56 view .LVU405
	lsr	r1, r3, #11
	and	r1, r1, #1
	.loc 1 83 20 view .LVU406
	vcvt.f32.s32	s14, s15
	.loc 1 84 20 view .LVU407
	vmov	s15, r1	@ int
	vcvt.f32.s32	s15, s15
	.loc 1 86 56 view .LVU408
	lsr	r1, r3, #9
	and	r1, r1, #1
	.loc 1 100 8 view .LVU409
	vldr.32	s8, .L187+4
	.loc 1 100 16 view .LVU410
	vcvt.f32.s32	s12, s12
	.loc 1 84 20 view .LVU411
	vstr.32	s15, [sp, #28]
	.loc 1 86 20 view .LVU412
	vmov	s15, r1	@ int
	.loc 1 87 56 view .LVU413
	lsr	r1, r3, #8
	and	r1, r1, #1
	.loc 1 100 8 view .LVU414
	vdiv.f32	s10, s12, s8
	.loc 1 86 20 view .LVU415
	vcvt.f32.s32	s12, s15
	.loc 1 87 20 view .LVU416
	vmov	s15, r1	@ int
	.loc 1 89 64 view .LVU417
	lsr	r1, r3, #3
	and	r1, r1, #1
	.loc 1 82 20 view .LVU418
	vstr.32	s13, [sp, #20]
	.loc 1 87 20 view .LVU419
	vcvt.f32.s32	s13, s15
	.loc 1 89 24 view .LVU420
	vmov	s15, r1	@ int
	.loc 1 90 66 view .LVU421
	lsr	r1, r3, #2
	and	r1, r1, #1
	.loc 1 83 20 view .LVU422
	vstr.32	s14, [sp, #24]
	.loc 1 89 24 view .LVU423
	vcvt.f32.s32	s14, s15
	.loc 1 90 25 view .LVU424
	vmov	s15, r1	@ int
	vcvt.f32.s32	s15, s15
	.loc 1 92 60 view .LVU425
	lsr	r1, r3, #6
	and	r1, r1, #1
	.loc 1 101 16 view .LVU426
	vcvt.f32.s32	s11, s11
	.loc 1 90 25 view .LVU427
	vstr.32	s15, [sp, #44]
	.loc 1 92 22 view .LVU428
	vmov	s15, r1	@ int
	.loc 1 93 64 view .LVU429
	lsr	r1, r3, #7
	and	r1, r1, #1
	.loc 1 101 8 view .LVU430
	vdiv.f32	s9, s11, s8
	.loc 1 92 22 view .LVU431
	vcvt.f32.s32	s11, s15
	.loc 1 93 24 view .LVU432
	vmov	s15, r1	@ int
	.loc 1 94 64 view .LVU433
	lsr	r1, r3, #5
	and	r1, r1, #1
	.loc 1 86 20 view .LVU434
	vstr.32	s12, [sp, #32]
	.loc 1 93 24 view .LVU435
	vcvt.f32.s32	s12, s15
	.loc 1 94 24 view .LVU436
	vmov	s15, r1	@ int
	.loc 1 95 66 view .LVU437
	lsr	r1, r3, #4
	and	r1, r1, #1
	.loc 1 87 20 view .LVU438
	vstr.32	s13, [sp, #36]
	.loc 1 94 24 view .LVU439
	vcvt.f32.s32	s13, s15
	.loc 1 95 25 view .LVU440
	vmov	s15, r1	@ int
	.loc 1 97 58 view .LVU441
	lsr	r1, r3, #14
	and	r1, r1, #1
	.loc 1 89 24 view .LVU442
	vstr.32	s14, [sp, #40]
	.loc 1 95 25 view .LVU443
	vcvt.f32.s32	s14, s15
	.loc 1 97 21 view .LVU444
	vmov	s15, r1	@ int
	vcvt.f32.s32	s15, s15
	.loc 1 98 58 view .LVU445
	lsr	r1, r3, #15
	and	r1, r1, #1
	.loc 1 97 21 view .LVU446
	vstr.32	s15, [sp, #96]
	.loc 1 98 21 view .LVU447
	vmov	s15, r1	@ int
	.loc 1 77 11 view .LVU448
	mov	ip, #0
.LVL150:
	.loc 1 81 108 view .LVU449
	lsl	r1, r2, #7
	and	r1, r1, #256
	lsl	r7, r2, #6
	orr	r6, r1, r0
	.loc 1 98 21 view .LVU450
	vcvt.f32.s32	s15, s15
	.loc 1 81 108 view .LVU451
	and	r7, r7, #65536
	orr	r7, r7, r6
	and	r8, r2, #256
	lsl	r6, r2, #22
	orr	r8, r8, r6, lsr #31
	lsl	r6, r2, #13
	lsl	r0, r2, #1
	and	r6, r6, #65536
	orr	r6, r6, r8
	.loc 1 77 11 view .LVU452
	str	ip, [sp, #12]	@ float
	.loc 1 81 108 view .LVU453
	lsl	r8, r2, #25
	.loc 1 81 161 view .LVU454
	ldr	ip, [sp, #244]
	.loc 1 81 108 view .LVU455
	and	r0, r0, #256
	orr	r0, r0, r8, lsr #31
	lsl	r8, r2, #11
	.loc 1 81 154 view .LVU456
	lsl	lr, ip, #7
	.loc 1 81 108 view .LVU457
	and	r8, r8, #65536
	orr	r0, r0, r8
	.loc 1 81 154 view .LVU458
	and	lr, lr, #256
	and	r8, ip, #1
	orr	lr, lr, r8
	lsl	r8, ip, #6
	and	r8, r8, #65536
	orr	r8, r8, lr
	and	r9, ip, #256
	lsl	lr, ip, #22
	.loc 1 108 50 view .LVU459
	vcmpe.f32	s9, #0
	.loc 1 81 154 view .LVU460
	orr	r9, r9, lr, lsr #31
	lsl	lr, ip, #13
	lsl	r1, ip, #1
	and	lr, lr, #65536
	orr	lr, lr, r9
	and	r1, r1, #256
	lsl	r9, ip, #25
	orr	r1, r1, r9, lsr #31
	lsl	r9, ip, #11
	and	r9, r9, #65536
	orr	r1, r1, r9
	.loc 1 81 108 view .LVU461
	lsl	r9, r2, #13
	and	r9, r9, #16777216
	orr	r9, r9, r7
	lsl	r7, r2, #22
	and	r7, r7, #16777216
	orr	r7, r7, r6
	lsl	r6, r2, #20
	and	r6, r6, #16777216
	orr	r0, r6, r0
	str	r0, [sp, #136]
	.loc 1 81 154 view .LVU462
	lsl	r0, ip, #13
	and	r0, r0, #16777216
	orr	r0, r0, r8
	str	r0, [sp, #105]	@ unaligned
	lsl	r0, ip, #22
	and	r0, r0, #16777216
	orr	r0, r0, lr
	str	r0, [sp, #109]	@ unaligned
	lsl	r0, ip, #20
	and	r0, r0, #16777216
	orr	r1, r0, r1
.LBE209:
.LBE215:
	.loc 1 240 10 view .LVU463
	ldr	r5, [r4]
.LVL151:
	.loc 1 241 2 is_stmt 1 view .LVU464
	.loc 1 242 2 view .LVU465
.LBB216:
.LBI207:
	.loc 1 71 13 view .LVU466
.LBB210:
	.loc 1 77 2 view .LVU467
	.loc 1 78 2 view .LVU468
	.loc 1 79 2 view .LVU469
	.loc 1 81 2 view .LVU470
	.loc 1 81 89 view .LVU471
	.loc 1 81 137 view .LVU472
	.loc 1 82 2 view .LVU473
	.loc 1 82 89 view .LVU474
	.loc 1 82 137 view .LVU475
	.loc 1 83 2 view .LVU476
	.loc 1 83 89 view .LVU477
	.loc 1 83 137 view .LVU478
	.loc 1 84 2 view .LVU479
	.loc 1 84 89 view .LVU480
	.loc 1 84 137 view .LVU481
	.loc 1 86 2 view .LVU482
	.loc 1 86 89 view .LVU483
	.loc 1 86 137 view .LVU484
	.loc 1 87 2 view .LVU485
	.loc 1 87 89 view .LVU486
	.loc 1 87 137 view .LVU487
	.loc 1 89 2 view .LVU488
	.loc 1 89 101 view .LVU489
	.loc 1 89 157 view .LVU490
	.loc 1 90 2 view .LVU491
	.loc 1 90 104 view .LVU492
	.loc 1 90 162 view .LVU493
	.loc 1 92 2 view .LVU494
	.loc 1 92 95 view .LVU495
	.loc 1 92 147 view .LVU496
	.loc 1 93 2 view .LVU497
	.loc 1 93 101 view .LVU498
	.loc 1 93 157 view .LVU499
	.loc 1 94 2 view .LVU500
	.loc 1 94 101 view .LVU501
	.loc 1 94 157 view .LVU502
	.loc 1 95 2 view .LVU503
	.loc 1 95 104 view .LVU504
	.loc 1 95 162 view .LVU505
	.loc 1 92 22 is_stmt 0 view .LVU506
	vstr.32	s11, [sp, #48]
	.loc 1 93 24 view .LVU507
	vstr.32	s12, [sp, #52]
	.loc 1 94 24 view .LVU508
	vstr.32	s13, [sp, #56]
	.loc 1 95 25 view .LVU509
	vstr.32	s14, [sp, #60]
	.loc 1 98 21 view .LVU510
	vstr.32	s15, [sp, #100]
	.loc 1 81 108 view .LVU511
	str	r9, [sp, #128]
	str	r7, [sp, #132]
	.loc 1 81 154 view .LVU512
	str	r1, [sp, #113]	@ unaligned
	.loc 1 97 2 is_stmt 1 view .LVU513
	.loc 1 97 92 view .LVU514
	.loc 1 97 130 is_stmt 0 view .LVU515
	lsr	r1, r2, #14
	and	r1, r1, #1
	.loc 1 97 112 view .LVU516
	strb	r1, [sp, #148]
	.loc 1 97 142 is_stmt 1 view .LVU517
	.loc 1 97 176 is_stmt 0 view .LVU518
	lsr	r1, ip, #14
	and	r1, r1, #1
	.loc 1 97 160 view .LVU519
	strb	r1, [sp, #125]
	.loc 1 98 2 is_stmt 1 view .LVU520
	.loc 1 98 92 view .LVU521
	.loc 1 98 130 is_stmt 0 view .LVU522
	lsr	r1, r2, #15
	and	r1, r1, #1
	.loc 1 98 112 view .LVU523
	strb	r1, [sp, #149]
	.loc 1 98 142 is_stmt 1 view .LVU524
	.loc 1 98 176 is_stmt 0 view .LVU525
	lsr	r1, ip, #15
	and	r1, r1, #1
	.loc 1 98 160 view .LVU526
	strb	r1, [sp, #126]
	.loc 1 100 2 is_stmt 1 view .LVU527
.LVL152:
	.loc 1 101 2 view .LVU528
	.loc 1 108 2 view .LVU529
	.loc 1 108 103 is_stmt 0 view .LVU530
	lsr	r1, r3, #30
	and	r1, r1, #1
	vmov	s15, r1	@ int
	.loc 1 109 107 view .LVU531
	lsr	r1, r3, #31
	.loc 1 108 50 view .LVU532
	vmrs	APSR_nzcv, FPSCR
	.loc 1 109 107 view .LVU533
	vmov	s14, r1	@ int
	.loc 1 108 50 view .LVU534
	vnegmi.f32	s9, s9
.LVL153:
	.loc 1 109 65 view .LVU535
	vcvt.f32.s32	s14, s14
	.loc 1 108 63 view .LVU536
	vcvt.f32.s32	s15, s15
	.loc 1 108 183 view .LVU537
	lsr	r1, r2, #30
	and	r1, r1, #1
	.loc 1 108 165 view .LVU538
	strb	r1, [sp, #140]
	.loc 1 108 239 view .LVU539
	lsr	r1, ip, #30
	and	r1, r1, #1
	.loc 1 108 223 view .LVU540
	strb	r1, [sp, #117]
	.loc 1 109 191 view .LVU541
	lsr	r1, r2, #31
	.loc 1 109 173 view .LVU542
	strb	r1, [sp, #141]
	.loc 1 109 251 view .LVU543
	lsr	r1, ip, #31
	.loc 1 109 235 view .LVU544
	strb	r1, [sp, #118]
	.loc 1 114 18 view .LVU545
	add	r1, sp, #256
	add	r1, r1, #2
	.loc 1 110 52 view .LVU546
	vcmpe.f32	s10, #0
	.loc 1 109 63 view .LVU547
	vmul.f32	s14, s14, s9
	.loc 1 114 18 view .LVU548
	ldrsh	r1, [r1]
	.loc 1 108 61 view .LVU549
	vmul.f32	s15, s15, s9
	.loc 1 114 18 view .LVU550
	vmov	s13, r1	@ int
	.loc 1 110 107 view .LVU551
	lsr	r1, r3, #29
	and	r1, r1, #1
	.loc 1 110 52 view .LVU552
	vmrs	APSR_nzcv, FPSCR
	.loc 1 109 26 view .LVU553
	vstr.32	s14, [sp, #68]
	.loc 1 110 107 view .LVU554
	vmov	s14, r1	@ int
	.loc 1 111 109 view .LVU555
	lsr	r1, r3, #28
	and	r1, r1, #1
	.loc 1 113 8 view .LVU556
	vldr.32	s9, .L187+4
	.loc 1 108 24 view .LVU557
	vstr.32	s15, [sp, #64]
	.loc 1 108 140 is_stmt 1 view .LVU558
	.loc 1 108 200 view .LVU559
	.loc 1 109 2 view .LVU560
	.loc 1 109 146 view .LVU561
	.loc 1 109 210 view .LVU562
	.loc 1 110 2 view .LVU563
	.loc 1 114 18 is_stmt 0 view .LVU564
	vcvt.f32.s32	s13, s13
	.loc 1 111 109 view .LVU565
	vmov	s15, r1	@ int
	.loc 1 110 52 view .LVU566
	vnegmi.f32	s10, s10
.LVL154:
	.loc 1 110 65 view .LVU567
	vcvt.f32.s32	s14, s14
	.loc 1 114 8 view .LVU568
	vdiv.f32	s12, s13, s9
	.loc 1 111 66 view .LVU569
	vcvt.f32.s32	s15, s15
	.loc 1 113 18 view .LVU570
	add	r1, sp, #256
	.loc 1 110 63 view .LVU571
	vmul.f32	s14, s14, s10
	.loc 1 113 18 view .LVU572
	ldrsh	r1, [r1]
	.loc 1 116 56 view .LVU573
	vcmpe.f32	s12, #0
	.loc 1 111 64 view .LVU574
	vmul.f32	s15, s15, s10
	.loc 1 113 18 view .LVU575
	vmov	s11, r1	@ int
	.loc 1 110 191 view .LVU576
	lsr	r1, r2, #29
	and	r1, r1, #1
	.loc 1 110 173 view .LVU577
	strb	r1, [sp, #142]
	.loc 1 110 251 view .LVU578
	lsr	r1, ip, #29
	and	r1, r1, #1
	.loc 1 110 235 view .LVU579
	strb	r1, [sp, #119]
	.loc 1 111 195 view .LVU580
	lsr	r1, r2, #28
	and	r1, r1, #1
	.loc 1 111 177 view .LVU581
	strb	r1, [sp, #143]
	.loc 1 111 257 view .LVU582
	lsr	r1, ip, #28
	and	r1, r1, #1
	.loc 1 111 241 view .LVU583
	strb	r1, [sp, #120]
	.loc 1 116 113 view .LVU584
	lsr	r1, r3, #26
	and	r1, r1, #1
	.loc 1 110 26 view .LVU585
	vstr.32	s14, [sp, #72]
	.loc 1 110 146 is_stmt 1 view .LVU586
	.loc 1 110 210 view .LVU587
	.loc 1 111 2 view .LVU588
	.loc 1 116 113 is_stmt 0 view .LVU589
	vmov	s14, r1	@ int
	.loc 1 117 117 view .LVU590
	lsr	r1, r3, #27
	and	r1, r1, #1
	.loc 1 113 18 view .LVU591
	vcvt.f32.s32	s11, s11
	.loc 1 116 56 view .LVU592
	vmrs	APSR_nzcv, FPSCR
	.loc 1 111 27 view .LVU593
	vstr.32	s15, [sp, #76]
	.loc 1 111 149 is_stmt 1 view .LVU594
	.loc 1 111 215 view .LVU595
	.loc 1 113 2 view .LVU596
	.loc 1 117 117 is_stmt 0 view .LVU597
	vmov	s15, r1	@ int
	.loc 1 113 8 view .LVU598
	vdiv.f32	s13, s11, s9
.LVL155:
	.loc 1 114 2 is_stmt 1 view .LVU599
	.loc 1 116 2 view .LVU600
	.loc 1 116 56 is_stmt 0 view .LVU601
	vnegmi.f32	s12, s12
.LVL156:
	.loc 1 116 71 view .LVU602
	vcvt.f32.s32	s14, s14
	.loc 1 117 73 view .LVU603
	vcvt.f32.s32	s15, s15
	.loc 1 118 58 view .LVU604
	vcmpe.f32	s13, #0
	.loc 1 116 69 view .LVU605
	vmul.f32	s14, s14, s12
	.loc 1 117 71 view .LVU606
	vmul.f32	s15, s15, s12
	.loc 1 116 197 view .LVU607
	lsr	r1, r2, #26
	and	r1, r1, #1
	.loc 1 116 179 view .LVU608
	strb	r1, [sp, #144]
	.loc 1 116 257 view .LVU609
	lsr	r1, ip, #26
	and	r1, r1, #1
	.loc 1 116 241 view .LVU610
	strb	r1, [sp, #121]
	.loc 1 117 205 view .LVU611
	lsr	r1, r2, #27
	and	r1, r1, #1
	.loc 1 117 187 view .LVU612
	strb	r1, [sp, #145]
	.loc 1 117 269 view .LVU613
	lsr	r1, ip, #27
	and	r1, r1, #1
	.loc 1 117 253 view .LVU614
	strb	r1, [sp, #122]
	.loc 1 118 117 view .LVU615
	lsr	r1, r3, #25
	.loc 1 119 119 view .LVU616
	lsr	r3, r3, #24
	.loc 1 118 117 view .LVU617
	and	r1, r1, #1
	.loc 1 119 119 view .LVU618
	and	r3, r3, #1
	.loc 1 118 58 view .LVU619
	vmrs	APSR_nzcv, FPSCR
	.loc 1 116 26 view .LVU620
	vstr.32	s14, [sp, #80]
	.loc 1 116 152 is_stmt 1 view .LVU621
	.loc 1 116 216 view .LVU622
	.loc 1 117 2 view .LVU623
	.loc 1 117 28 is_stmt 0 view .LVU624
	vstr.32	s15, [sp, #84]
	b	.L188
.L189:
	.align	2
.L187:
	.word	1065353216
	.word	1125908480
	.word	0
	.word	1126170624
.L188:
	.loc 1 117 158 is_stmt 1 view .LVU625
	.loc 1 117 226 view .LVU626
	.loc 1 118 2 view .LVU627
	.loc 1 118 117 is_stmt 0 view .LVU628
	vmov	s14, r1	@ int
	.loc 1 119 74 view .LVU629
	vmov	s15, r3	@ int
	.loc 1 118 58 view .LVU630
	vnegmi.f32	s13, s13
.LVL157:
	.loc 1 118 73 view .LVU631
	vcvt.f32.s32	s14, s14
	.loc 1 119 74 view .LVU632
	vcvt.f32.s32	s15, s15
	.loc 1 118 71 view .LVU633
	vmul.f32	s14, s14, s13
	.loc 1 119 72 view .LVU634
	vmul.f32	s15, s15, s13
	.loc 1 119 209 view .LVU635
	lsr	r3, r2, #24
	.loc 1 118 205 view .LVU636
	lsr	r2, r2, #25
	and	r2, r2, #1
	.loc 1 118 187 view .LVU637
	strb	r2, [sp, #146]
	.loc 1 118 269 view .LVU638
	lsr	r2, ip, #25
	.loc 1 119 275 view .LVU639
	lsr	ip, ip, #24
.LBE210:
.LBE216:
	.loc 1 252 30 view .LVU640
	vldr.32	s21, [r5, #16]
.LBB217:
.LBB211:
	.loc 1 118 269 view .LVU641
	and	r2, r2, #1
	.loc 1 119 209 view .LVU642
	and	r3, r3, #1
	.loc 1 119 275 view .LVU643
	and	ip, ip, #1
.LBE211:
.LBE217:
.LBB218:
.LBB219:
	.loc 1 133 97 view .LVU644
	ldr	lr, [r4, #4]
.LBE219:
.LBE218:
.LBB223:
.LBB212:
	.loc 1 118 253 view .LVU645
	strb	r2, [sp, #123]
	.loc 1 119 191 view .LVU646
	strb	r3, [sp, #147]
.LBE212:
.LBE223:
.LBB224:
.LBB225:
	.loc 1 133 97 view .LVU647
	ldr	r2, [r4, #44]
.LBE225:
.LBE224:
.LBB230:
.LBB231:
	ldr	r3, [r4, #60]
.LBE231:
.LBE230:
.LBB235:
.LBB213:
	.loc 1 119 259 view .LVU648
	strb	ip, [sp, #124]
.LBE213:
.LBE235:
.LBB236:
.LBB237:
	.loc 1 133 97 view .LVU649
	ldr	ip, [r4, #8]
.LBE237:
.LBE236:
.LBB241:
.LBB214:
	.loc 1 118 28 view .LVU650
	vstr.32	s14, [sp, #88]
	.loc 1 118 158 is_stmt 1 view .LVU651
	.loc 1 118 226 view .LVU652
	.loc 1 119 2 view .LVU653
	.loc 1 119 29 is_stmt 0 view .LVU654
	vstr.32	s15, [sp, #92]
	.loc 1 119 161 is_stmt 1 view .LVU655
	.loc 1 119 231 view .LVU656
.LVL158:
	.loc 1 119 231 is_stmt 0 view .LVU657
.LBE214:
.LBE241:
	.loc 1 244 2 is_stmt 1 view .LVU658
.LBB242:
.LBI224:
	.loc 1 133 21 view .LVU659
.LBB226:
	.loc 1 133 79 view .LVU660
.LBE226:
.LBE242:
.LBB243:
.LBB244:
	.loc 1 133 97 is_stmt 0 view .LVU661
	ldr	r0, [r4, #12]
.LBE244:
.LBE243:
.LBB248:
.LBB227:
	add	r1, sp, #152
.LBE227:
.LBE248:
.LBB249:
.LBB232:
	add	r3, r1, r3, lsl #2
.LBE232:
.LBE249:
.LBB250:
.LBB228:
	add	r2, r1, r2, lsl #2
.LVL159:
	.loc 1 133 97 view .LVU662
.LBE228:
.LBE250:
.LBB251:
.LBB220:
	add	lr, r1, lr, lsl #2
.LBE220:
.LBE251:
.LBB252:
.LBB238:
	add	ip, r1, ip, lsl #2
.LBE238:
.LBE252:
.LBB253:
.LBB245:
	add	r0, r1, r0, lsl #2
.LBE245:
.LBE253:
.LBB254:
.LBB255:
	ldr	r1, [r4, #16]
	add	r6, sp, #152
	add	r1, r6, r1, lsl #2
.LBE255:
.LBE254:
	.loc 1 239 81 view .LVU663
	vmov.f32	s19, s0
	.loc 1 252 30 view .LVU664
	vmov.f32	s0, s21
.LVL160:
.LBB258:
.LBB221:
	.loc 1 133 97 view .LVU665
	vldr.32	s26, [lr, #-140]
.LBE221:
.LBE258:
.LBB259:
.LBB239:
	vldr.32	s24, [ip, #-140]
.LBE239:
.LBE259:
.LBB260:
.LBB246:
	vldr.32	s27, [r0, #-140]
.LBE246:
.LBE260:
.LBB261:
.LBB256:
	vldr.32	s25, [r1, #-140]
.LBE256:
.LBE261:
.LBB262:
.LBB233:
	vldr.32	s23, [r3, #-140]
.LBE233:
.LBE262:
.LBB263:
.LBB229:
	vldr.32	s20, [r2, #-140]
.LVL161:
	.loc 1 133 97 view .LVU666
.LBE229:
.LBE263:
	.loc 1 245 2 is_stmt 1 view .LVU667
.LBB264:
.LBI230:
	.loc 1 133 21 view .LVU668
.LBB234:
	.loc 1 133 79 view .LVU669
	.loc 1 133 79 is_stmt 0 view .LVU670
.LBE234:
.LBE264:
	.loc 1 247 2 is_stmt 1 view .LVU671
.LBB265:
.LBI218:
	.loc 1 133 21 view .LVU672
.LBB222:
	.loc 1 133 79 view .LVU673
	.loc 1 133 79 is_stmt 0 view .LVU674
.LBE222:
.LBE265:
	.loc 1 248 2 is_stmt 1 view .LVU675
.LBB266:
.LBI236:
	.loc 1 133 21 view .LVU676
.LBB240:
	.loc 1 133 79 view .LVU677
	.loc 1 133 79 is_stmt 0 view .LVU678
.LBE240:
.LBE266:
	.loc 1 249 2 is_stmt 1 view .LVU679
.LBB267:
.LBI243:
	.loc 1 133 21 view .LVU680
.LBB247:
	.loc 1 133 79 view .LVU681
	.loc 1 133 79 is_stmt 0 view .LVU682
.LBE247:
.LBE267:
	.loc 1 250 2 is_stmt 1 view .LVU683
.LBB268:
.LBI254:
	.loc 1 133 21 view .LVU684
.LBB257:
	.loc 1 133 79 view .LVU685
	.loc 1 133 79 is_stmt 0 view .LVU686
.LBE257:
.LBE268:
	.loc 1 252 2 is_stmt 1 view .LVU687
	.loc 1 252 30 is_stmt 0 view .LVU688
	bl	sinf
.LVL162:
	vmov.f32	s22, s0
	.loc 1 252 55 view .LVU689
	vmov.f32	s0, s21
	bl	cosf
.LVL163:
.LBB269:
.LBB270:
	.file 2 "/Users/blackout/Desktop/Craftus-Rehabilitated/include/misc/VecMath.h"
	.loc 2 21 51 view .LVU690
	vldr.32	s15, .L187+8
.LBE270:
.LBE269:
	.loc 1 252 22 view .LVU691
	vneg.f32	s22, s22
.LVL164:
.LBB275:
.LBB276:
	.loc 2 16 51 view .LVU692
	vmov.f32	s16, s15
.LBE276:
.LBE275:
.LBB282:
.LBB271:
	.loc 2 21 97 view .LVU693
	vmul.f32	s14, s22, s15
.LBE271:
.LBE282:
.LBB283:
.LBB277:
	.loc 2 16 51 view .LVU694
	vmla.f32	s16, s26, s15
.LBE277:
.LBE283:
.LBB284:
.LBB272:
	.loc 2 21 51 view .LVU695
	vnmla.f32	s14, s0, s15
.LBE272:
.LBE284:
.LBB285:
.LBB278:
	.loc 2 16 51 view .LVU696
	vmov.f32	s18, s15
.LBE278:
.LBE285:
.LBB286:
.LBB287:
	.loc 2 17 51 view .LVU697
	vmls.f32	s16, s24, s15
.LBE287:
.LBE286:
.LBB291:
.LBB279:
	.loc 2 16 51 view .LVU698
	vmla.f32	s18, s22, s26
	vmov.f32	s17, s15
.LBE279:
.LBE291:
.LBB292:
.LBB293:
	vmla.f32	s16, s14, s25
.LBE293:
.LBE292:
.LBB296:
.LBB273:
	.loc 2 21 51 view .LVU699
	vadd.f32	s13, s0, s15
.LBE273:
.LBE296:
.LBB297:
.LBB298:
	.loc 2 17 51 view .LVU700
	vmls.f32	s16, s14, s27
.LBE298:
.LBE297:
.LBB302:
.LBB288:
	vmls.f32	s18, s22, s24
.LBE288:
.LBE302:
.LBB303:
.LBB280:
	.loc 2 16 51 view .LVU701
	vmls.f32	s17, s0, s26
.LBE280:
.LBE303:
	.loc 1 260 5 view .LVU702
	ldrb	r3, [r5, #35]	@ zero_extendqisi2
.LBB304:
.LBB289:
	.loc 2 17 51 view .LVU703
	vmla.f32	s17, s0, s24
.LBE289:
.LBE304:
	.loc 1 260 5 view .LVU704
	cmp	r3, #0
.LVL165:
	.loc 1 253 2 is_stmt 1 view .LVU705
.LBB305:
.LBI269:
	.loc 2 21 15 view .LVU706
.LBB274:
	.loc 2 21 44 view .LVU707
	.loc 2 21 44 is_stmt 0 view .LVU708
.LBE274:
.LBE305:
	.loc 1 255 2 is_stmt 1 view .LVU709
	.loc 1 256 2 view .LVU710
.LBB306:
.LBI306:
	.loc 2 18 15 view .LVU711
.LBB307:
	.loc 2 18 43 view .LVU712
	.loc 2 18 43 is_stmt 0 view .LVU713
.LBE307:
.LBE306:
.LBB308:
.LBI275:
	.loc 2 16 15 is_stmt 1 view .LVU714
.LBB281:
	.loc 2 16 44 view .LVU715
	.loc 2 16 44 is_stmt 0 view .LVU716
.LBE281:
.LBE308:
	.loc 1 257 2 is_stmt 1 view .LVU717
.LBB309:
.LBI309:
	.loc 2 18 15 view .LVU718
.LBB310:
	.loc 2 18 43 view .LVU719
	.loc 2 18 43 is_stmt 0 view .LVU720
.LBE310:
.LBE309:
.LBB311:
.LBI286:
	.loc 2 17 15 is_stmt 1 view .LVU721
.LBB290:
	.loc 2 17 44 view .LVU722
	.loc 2 17 44 is_stmt 0 view .LVU723
.LBE290:
.LBE311:
	.loc 1 258 2 is_stmt 1 view .LVU724
.LBB312:
.LBI312:
	.loc 2 18 15 view .LVU725
.LBB313:
	.loc 2 18 43 view .LVU726
	.loc 2 18 43 is_stmt 0 view .LVU727
.LBE313:
.LBE312:
.LBB314:
.LBI292:
	.loc 2 16 15 is_stmt 1 view .LVU728
.LBB294:
	.loc 2 16 44 view .LVU729
	.loc 2 16 44 is_stmt 0 view .LVU730
.LBE294:
.LBE314:
	.loc 1 259 2 is_stmt 1 view .LVU731
.LBB315:
.LBI315:
	.loc 2 18 15 view .LVU732
.LBB316:
	.loc 2 18 43 view .LVU733
	.loc 2 18 43 is_stmt 0 view .LVU734
.LBE316:
.LBE315:
.LBB317:
.LBI297:
	.loc 2 17 15 is_stmt 1 view .LVU735
.LBB299:
	.loc 2 17 44 view .LVU736
.LBE299:
.LBE317:
.LBB318:
.LBB319:
	.loc 2 16 51 is_stmt 0 view .LVU737
	vaddne.f32	s16, s16, s20
.LBE319:
.LBE318:
.LBB322:
.LBB295:
	vmla.f32	s18, s13, s25
.LVL166:
	.loc 2 16 51 view .LVU738
	vmla.f32	s17, s22, s25
.LVL167:
	.loc 2 16 51 view .LVU739
.LBE295:
.LBE322:
.LBB323:
.LBB300:
	.loc 2 17 51 view .LVU740
	vmls.f32	s18, s13, s27
.LVL168:
	.loc 2 17 51 view .LVU741
.LBE300:
.LBE323:
.LBB324:
.LBB325:
	vsubne.f32	s16, s16, s23
.LBE325:
.LBE324:
.LBB327:
.LBB301:
	vmls.f32	s17, s22, s27
.LVL169:
	.loc 2 17 51 view .LVU742
.LBE301:
.LBE327:
	.loc 1 260 2 is_stmt 1 view .LVU743
	.loc 1 261 3 view .LVU744
.LBB328:
.LBI318:
	.loc 2 16 15 view .LVU745
.LBB320:
	.loc 2 16 44 view .LVU746
	.loc 2 16 51 is_stmt 0 view .LVU747
	vaddne.f32	s18, s18, s15
.LVL170:
	.loc 2 16 51 view .LVU748
.LBE320:
.LBE328:
.LBB329:
.LBB330:
.LBB331:
	.loc 2 20 66 view .LVU749
	vmul.f32	s22, s16, s16
.LVL171:
	.loc 2 20 66 view .LVU750
.LBE331:
.LBE330:
.LBE329:
.LBB334:
.LBB321:
	.loc 2 16 51 view .LVU751
	vaddne.f32	s17, s17, s15
.LVL172:
	.loc 2 16 51 view .LVU752
.LBE321:
.LBE334:
	.loc 1 262 3 is_stmt 1 view .LVU753
.LBB335:
.LBI324:
	.loc 2 17 15 view .LVU754
.LBB326:
	.loc 2 17 44 view .LVU755
	.loc 2 17 44 is_stmt 0 view .LVU756
.LBE326:
.LBE335:
	.loc 1 264 2 is_stmt 1 view .LVU757
.LBB336:
.LBI329:
	.loc 2 24 14 view .LVU758
	.loc 2 24 38 view .LVU759
.LBB333:
.LBI330:
	.loc 2 20 14 view .LVU760
.LBB332:
	.loc 2 20 43 view .LVU761
	.loc 2 20 60 is_stmt 0 view .LVU762
	vmla.f32	s22, s18, s18
	.loc 2 20 72 view .LVU763
	vmla.f32	s22, s17, s17
.LVL173:
	.loc 2 20 72 view .LVU764
.LBE332:
.LBE333:
.LBE336:
	.loc 1 264 5 view .LVU765
	vcmpe.f32	s22, #0
	vmrs	APSR_nzcv, FPSCR
	bgt	.L184
.LVL174:
.L124:
	.loc 1 270 2 is_stmt 1 view .LVU766
.LBB337:
.LBI337:
	.loc 1 133 21 view .LVU767
.LBB338:
	.loc 1 133 79 view .LVU768
	.loc 1 133 79 is_stmt 0 view .LVU769
.LBE338:
.LBE337:
	.loc 1 271 2 is_stmt 1 view .LVU770
.LBB340:
.LBI340:
	.loc 1 133 21 view .LVU771
.LBB341:
	.loc 1 133 79 view .LVU772
	.loc 1 133 79 is_stmt 0 view .LVU773
.LBE341:
.LBE340:
	.loc 1 272 2 is_stmt 1 view .LVU774
.LBB344:
.LBI344:
	.loc 1 133 21 view .LVU775
.LBB345:
	.loc 1 133 79 view .LVU776
.LBE345:
.LBE344:
.LBB348:
.LBB349:
	.loc 1 133 97 is_stmt 0 view .LVU777
	ldrd	r2, [r4, #28]
.LBE349:
.LBE348:
.LBB352:
.LBB346:
	add	r1, sp, #152
	add	r2, r1, r2, lsl #2
.LBE346:
.LBE352:
.LBB353:
.LBB350:
	add	r3, r1, r3, lsl #2
	vldr.32	s7, [r3, #-140]
.LBE350:
.LBE353:
.LBB354:
.LBB347:
	vldr.32	s14, [r2, #-140]
.LVL175:
	.loc 1 133 97 view .LVU778
.LBE347:
.LBE354:
	.loc 1 273 2 is_stmt 1 view .LVU779
.LBB355:
.LBI348:
	.loc 1 133 21 view .LVU780
.LBB351:
	.loc 1 133 79 view .LVU781
	.loc 1 133 79 is_stmt 0 view .LVU782
.LBE351:
.LBE355:
	.loc 1 275 2 is_stmt 1 view .LVU783
.LBB356:
.LBB342:
	.loc 1 133 97 is_stmt 0 view .LVU784
	ldrd	r2, [r4, #20]
.LBE342:
.LBE356:
.LBB357:
.LBB339:
	add	r2, r1, r2, lsl #2
.LBE339:
.LBE357:
.LBB358:
.LBB343:
	add	r3, r1, r3, lsl #2
.LBE343:
.LBE358:
	.loc 1 275 41 view .LVU785
	vldr.32	s15, .L187+12
	.loc 1 275 27 view .LVU786
	vldr.32	s13, [r3, #-140]
	.loc 1 276 30 view .LVU787
	vsub.f32	s14, s14, s7
.LVL176:
	.loc 1 275 27 view .LVU788
	vldr.32	s6, [r2, #-140]
	.loc 1 276 40 view .LVU789
	vmul.f32	s14, s14, s15
	.loc 1 275 27 view .LVU790
	vsub.f32	s6, s6, s13
	.loc 1 275 49 view .LVU791
	vldr.64	d4, .L190
	.loc 1 275 41 view .LVU792
	vmul.f32	s6, s6, s15
	.loc 1 276 8 view .LVU793
	vldr.32	s12, [r5, #12]
	.loc 1 276 40 view .LVU794
	vcvt.f64.f32	d7, s14
	.loc 1 275 65 view .LVU795
	vcvt.f64.f32	d5, s19
	.loc 1 276 48 view .LVU796
	vmul.f64	d7, d7, d4
	.loc 1 276 8 view .LVU797
	vcvt.f64.f32	d6, s12
	.loc 1 275 41 view .LVU798
	vcvt.f64.f32	d3, s6
	.loc 1 276 16 view .LVU799
	vmla.f64	d6, d7, d5
	.loc 1 275 8 view .LVU800
	vcvt.f64.f32	d0, s21
	.loc 1 275 49 view .LVU801
	vmul.f64	d3, d3, d4
	.loc 1 276 16 view .LVU802
	vcvt.f32.f64	s12, d6
	.loc 1 275 14 view .LVU803
	vmla.f64	d0, d3, d5
	.loc 1 277 28 view .LVU804
	vcvt.f64.f32	d7, s12
	.loc 1 277 43 view .LVU805
	vldr.64	d5, .L190+8
	vcmpe.f64	d7, d5
	.loc 1 275 14 view .LVU806
	vcvt.f32.f64	s0, d0
	.loc 1 277 43 view .LVU807
	vmrs	APSR_nzcv, FPSCR
	.loc 1 275 14 view .LVU808
	vstr.32	s0, [r5, #16]
	.loc 1 276 2 is_stmt 1 view .LVU809
	.loc 1 277 2 view .LVU810
	.loc 1 277 43 is_stmt 0 view .LVU811
	ble	.L181
	.loc 1 277 43 discriminator 1 view .LVU812
	vldr.64	d5, .L190+16
	vcmpe.f64	d7, d5
	vldr.32	s13, .L190+24
	vmrs	APSR_nzcv, FPSCR
	vmovpl.f32	s12, s13
.L132:
.LBB359:
.LBB360:
	.loc 1 133 97 discriminator 12 view .LVU813
	ldrd	r2, [r4, #36]
.LBE360:
.LBE359:
.LBB363:
.LBB364:
	add	r1, sp, #152
	.loc 1 133 97 discriminator 12 view .LVU814
	add	r2, r1, r2, lsl #2
.LBE364:
.LBE363:
	.loc 1 281 5 discriminator 12 view .LVU815
	vldr.32	s15, [r2, #-140]
	vcmpe.f32	s15, #0
	vmrs	APSR_nzcv, FPSCR
.LBB366:
.LBB361:
	.loc 1 133 97 discriminator 12 view .LVU816
	add	r3, r1, r3, lsl #2
	mov	r2, r1
.LBE361:
.LBE366:
	.loc 1 277 16 discriminator 12 view .LVU817
	vstr.32	s12, [r5, #12]
	.loc 1 279 2 is_stmt 1 discriminator 12 view .LVU818
.LVL177:
.LBB367:
.LBI363:
	.loc 1 133 21 discriminator 12 view .LVU819
.LBB365:
	.loc 1 133 79 discriminator 12 view .LVU820
	.loc 1 133 79 is_stmt 0 discriminator 12 view .LVU821
.LBE365:
.LBE367:
	.loc 1 280 2 is_stmt 1 discriminator 12 view .LVU822
.LBB368:
.LBI359:
	.loc 1 133 21 discriminator 12 view .LVU823
.LBB362:
	.loc 1 133 79 discriminator 12 view .LVU824
	.loc 1 133 97 is_stmt 0 discriminator 12 view .LVU825
	vldr.32	s21, [r3, #-140]
.LVL178:
	.loc 1 133 97 discriminator 12 view .LVU826
.LBE362:
.LBE368:
	.loc 1 281 2 is_stmt 1 discriminator 12 view .LVU827
	.loc 1 281 5 is_stmt 0 discriminator 12 view .LVU828
	ble	.L134
	.loc 1 281 24 is_stmt 1 discriminator 1 view .LVU829
	mov	r0, r5
	bl	Player_PlaceBlock
.LVL179:
.L134:
	.loc 1 282 2 view .LVU830
	.loc 1 282 5 is_stmt 0 view .LVU831
	vcmpe.f32	s21, #0
	vmrs	APSR_nzcv, FPSCR
	ble	.L136
	.loc 1 282 24 is_stmt 1 discriminator 1 view .LVU832
	mov	r0, r5
	bl	Player_BreakBlock
.LVL180:
.L136:
	.loc 1 284 2 view .LVU833
	.loc 1 284 5 is_stmt 0 view .LVU834
	vcmpe.f32	s20, #0
	vmrs	APSR_nzcv, FPSCR
	bgt	.L185
	.loc 1 286 1 is_stmt 1 view .LVU835
.LVL181:
.LBB369:
.LBI369:
	.loc 1 134 19 view .LVU836
.LBB370:
	.loc 1 134 82 view .LVU837
.LBE370:
.LBE369:
	.loc 1 287 10 is_stmt 0 view .LVU838
	vldr.32	s15, [r4, #72]
	.loc 1 287 5 view .LVU839
	vcmpe.f32	s15, #0
	vmrs	APSR_nzcv, FPSCR
.LBB374:
.LBB371:
	.loc 1 134 102 view .LVU840
	ldr	r3, [r4, #44]
	add	r3, r3, #152
	add	r3, sp, r3
	ldrb	r3, [r3, #-48]	@ zero_extendqisi2
.LVL182:
	.loc 1 134 102 view .LVU841
.LBE371:
.LBE374:
	.loc 1 287 2 is_stmt 1 view .LVU842
	.loc 1 287 5 is_stmt 0 view .LVU843
	blt	.L141
	.loc 1 288 3 is_stmt 1 view .LVU844
	.loc 1 296 39 is_stmt 0 view .LVU845
	ldrb	r3, [r5, #35]	@ zero_extendqisi2
.LVL183:
	.loc 1 296 39 view .LVU846
	eor	r3, r3, #1
.LVL184:
.L143:
	.loc 1 289 3 is_stmt 1 view .LVU847
	.loc 1 289 18 is_stmt 0 view .LVU848
	vadd.f32	s15, s19, s15
	.loc 1 290 3 is_stmt 1 view .LVU849
	.loc 1 290 6 is_stmt 0 view .LVU850
	vldr.32	s13, .L190+28
	vcmp.f32	s15, s13
	vldr.32	s14, .L190+32
	vmrs	APSR_nzcv, FPSCR
	vmovgt.f32	s15, s14
	.loc 1 290 46 view .LVU851
	vstr.32	s15, [r4, #72]
.L145:
	.loc 1 295 1 is_stmt 1 view .LVU852
.LVL185:
.LBB375:
.LBI375:
	.loc 1 134 19 view .LVU853
.LBB376:
	.loc 1 134 82 view .LVU854
	.loc 1 134 82 is_stmt 0 view .LVU855
.LBE376:
.LBE375:
	.loc 1 296 2 is_stmt 1 view .LVU856
.LBB380:
.LBB377:
	.loc 1 134 102 is_stmt 0 view .LVU857
	ldr	r1, [r4, #60]
.LBE377:
.LBE380:
.LBB381:
.LBB382:
	.loc 1 135 103 view .LVU858
	ldr	r2, [r4, #48]
.LBE382:
.LBE381:
.LBB386:
.LBB378:
	.loc 1 134 102 view .LVU859
	add	r1, r1, #152
.LBE378:
.LBE386:
.LBB387:
.LBB383:
	.loc 1 135 103 view .LVU860
	add	r2, r2, #152
.LBE383:
.LBE387:
.LBB388:
.LBB379:
	.loc 1 134 102 view .LVU861
	add	r1, sp, r1
.LBE379:
.LBE388:
.LBB389:
.LBB384:
	.loc 1 135 103 view .LVU862
	add	r2, sp, r2
.LBE384:
.LBE389:
	.loc 1 296 39 view .LVU863
	ldrb	r0, [r1, #-48]	@ zero_extendqisi2
	.loc 1 300 5 view .LVU864
	ldrb	r2, [r2, #-25]	@ zero_extendqisi2
	.loc 1 296 20 view .LVU865
	ldrb	r1, [r5, #36]	@ zero_extendqisi2
	.loc 1 300 5 view .LVU866
	cmp	r2, #0
	.loc 1 296 39 view .LVU867
	and	r3, r3, r0
.LBB390:
.LBB391:
	.loc 1 135 103 view .LVU868
	ldr	r2, [r4, #52]
.LBE391:
.LBE390:
	.loc 1 296 20 view .LVU869
	eor	r3, r3, r1
	strb	r3, [r5, #36]
	.loc 1 298 1 is_stmt 1 view .LVU870
.LVL186:
.LBB393:
.LBI381:
	.loc 1 135 19 view .LVU871
.LBB385:
	.loc 1 135 81 view .LVU872
	.loc 1 135 81 is_stmt 0 view .LVU873
.LBE385:
.LBE393:
	.loc 1 299 1 is_stmt 1 view .LVU874
.LBB394:
.LBI390:
	.loc 1 135 19 view .LVU875
.LBB392:
	.loc 1 135 81 view .LVU876
	.loc 1 135 103 is_stmt 0 view .LVU877
	add	r3, r2, #152
	add	r3, sp, r3
	ldrb	r2, [r3, #-25]	@ zero_extendqisi2
.LVL187:
	.loc 1 135 103 view .LVU878
.LBE392:
.LBE394:
	.loc 1 300 2 is_stmt 1 view .LVU879
	.loc 1 300 5 is_stmt 0 view .LVU880
	beq	.L148
	.loc 1 300 25 discriminator 1 view .LVU881
	ldr	r3, [r5, #204]
	sub	r3, r3, #1
	.loc 1 300 22 discriminator 1 view .LVU882
	cmn	r3, #1
	str	r3, [r5, #204]
	.loc 1 300 61 is_stmt 1 discriminator 1 view .LVU883
	.loc 1 300 118 is_stmt 0 discriminator 1 view .LVU884
	ldreq	r3, [r5, #200]
	subeq	r3, r3, #1
	.loc 1 300 88 discriminator 1 view .LVU885
	streq	r3, [r5, #204]
.L148:
	.loc 1 301 2 is_stmt 1 view .LVU886
	.loc 1 301 5 is_stmt 0 view .LVU887
	cmp	r2, #0
	beq	.L151
	.loc 1 301 23 discriminator 1 view .LVU888
	ldrd	r2, [r5, #200]
.LVL188:
	.loc 1 301 26 discriminator 1 view .LVU889
	add	r3, r3, #1
	.loc 1 301 23 discriminator 1 view .LVU890
	cmp	r3, r2
	str	r3, [r5, #204]
	.loc 1 301 87 is_stmt 1 discriminator 1 view .LVU891
	.loc 1 301 114 is_stmt 0 discriminator 1 view .LVU892
	moveq	r3, #0
	streq	r3, [r5, #204]
.L151:
	.loc 1 303 2 is_stmt 1 view .LVU893
	.loc 1 303 5 is_stmt 0 view .LVU894
	ldrb	r3, [r4, #68]	@ zero_extendqisi2
	cmp	r3, #0
	.loc 1 304 3 is_stmt 1 view .LVU895
.LVL189:
	.loc 1 305 3 view .LVU896
	.loc 1 305 19 is_stmt 0 view .LVU897
	movne	r3, #0
	strbne	r3, [r4, #68]
.LBB395:
.LBB396:
	.loc 1 135 103 view .LVU898
	ldr	r3, [r4, #56]
.LBE396:
.LBE395:
	.loc 1 304 6 view .LVU899
	vldrne.32	s19, .L190+36
.LVL190:
	.loc 1 308 2 is_stmt 1 view .LVU900
.LBB399:
.LBI395:
	.loc 1 135 19 view .LVU901
.LBB397:
	.loc 1 135 81 view .LVU902
	.loc 1 135 81 is_stmt 0 view .LVU903
.LBE397:
.LBE399:
	.loc 1 309 2 is_stmt 1 view .LVU904
.LBB400:
.LBB398:
	.loc 1 135 103 is_stmt 0 view .LVU905
	add	r3, r3, #152
.LVL191:
	.loc 1 135 103 view .LVU906
	add	r3, sp, r3
.LBE398:
.LBE400:
	.loc 1 309 5 view .LVU907
	ldrb	r3, [r3, #-25]	@ zero_extendqisi2
	cmp	r3, #0
	bne	.L186
.LVL192:
.L154:
	.loc 1 314 2 is_stmt 1 view .LVU908
	mov	r0, r5
	vmov.f32	s1, s18
	vmov.f32	s2, s16
	vmov.f32	s3, s17
	vmov.f32	s0, s19
	bl	Player_Move
.LVL193:
	.loc 1 315 2 view .LVU909
	mov	r0, r5
	.loc 1 316 1 is_stmt 0 view .LVU910
	add	sp, sp, #156
	.cfi_remember_state
	.cfi_def_cfa_offset 92
	@ sp needed
	vldm	sp!, {d8-d13}
	.cfi_restore 90
	.cfi_restore 91
	.cfi_restore 88
	.cfi_restore 89
	.cfi_restore 86
	.cfi_restore 87
	.cfi_restore 84
	.cfi_restore 85
	.cfi_restore 82
	.cfi_restore 83
	.cfi_restore 80
	.cfi_restore 81
	.cfi_def_cfa_offset 44
.LVL194:
	.loc 1 316 1 view .LVU911
	pop	{r4, r5, r6, r7, r8, r9, lr}
	.cfi_restore 14
	.cfi_restore 9
	.cfi_restore 8
	.cfi_restore 7
	.cfi_restore 6
	.cfi_restore 5
	.cfi_restore 4
	.cfi_def_cfa_offset 16
.LVL195:
	.loc 1 316 1 view .LVU912
	add	sp, sp, #16
	.cfi_def_cfa_offset 0
	.loc 1 315 2 view .LVU913
	b	Player_Update
.LVL196:
.L181:
	.cfi_restore_state
	.loc 1 277 43 view .LVU914
	vldr.32	s12, .L190+40
	b	.L132
.LVL197:
.L141:
	.loc 1 291 9 is_stmt 1 view .LVU915
	.loc 1 292 3 view .LVU916
	.loc 1 291 12 is_stmt 0 view .LVU917
	cmp	r3, #0
	.loc 1 292 18 view .LVU918
	movne	r2, #0
	.loc 1 296 39 view .LVU919
	ldrbne	r3, [r5, #35]	@ zero_extendqisi2
.LVL198:
	.loc 1 296 39 view .LVU920
	ldrbeq	r3, [r5, #35]	@ zero_extendqisi2
	eorne	r3, r3, #1
	eoreq	r3, r3, #1
	.loc 1 292 18 view .LVU921
	strne	r2, [r4, #72]	@ float
	b	.L145
.LVL199:
.L185:
	.loc 1 284 18 is_stmt 1 discriminator 1 view .LVU922
	vmov.f32	s0, s18
	vmov.f32	s1, s16
	vmov.f32	s2, s17
	mov	r0, r5
	vstr.32	s18, [sp]
	vstr.32	s16, [sp, #4]
	vstr.32	s17, [sp, #8]
	bl	Player_Jump
.LVL200:
	.loc 1 286 1 discriminator 1 view .LVU923
.LBB401:
	.loc 1 134 19 discriminator 1 view .LVU924
.LBB372:
	.loc 1 134 82 discriminator 1 view .LVU925
.LBE372:
.LBE401:
	.loc 1 287 10 is_stmt 0 discriminator 1 view .LVU926
	vldr.32	s15, [r4, #72]
	.loc 1 287 5 discriminator 1 view .LVU927
	vcmpe.f32	s15, #0
	vmrs	APSR_nzcv, FPSCR
.LBB402:
.LBB373:
	.loc 1 134 102 discriminator 1 view .LVU928
	ldr	r3, [r4, #44]
	add	r3, r3, #152
	add	r3, sp, r3
	ldrb	r3, [r3, #-48]	@ zero_extendqisi2
.LVL201:
	.loc 1 134 102 discriminator 1 view .LVU929
.LBE373:
.LBE402:
	.loc 1 287 2 is_stmt 1 discriminator 1 view .LVU930
	.loc 1 287 5 is_stmt 0 discriminator 1 view .LVU931
	blt	.L141
	.loc 1 288 19 is_stmt 1 discriminator 1 view .LVU932
	.loc 1 288 25 is_stmt 0 discriminator 1 view .LVU933
	ldrb	r3, [r5, #35]	@ zero_extendqisi2
.LVL202:
	.loc 1 288 34 discriminator 1 view .LVU934
	eor	r2, r3, #1
	strb	r2, [r5, #35]
	b	.L143
.LVL203:
.L184:
.LBB403:
	.loc 1 265 3 is_stmt 1 view .LVU935
	.loc 1 265 24 is_stmt 0 view .LVU936
	vsub.f32	s23, s20, s23
.LVL204:
	.loc 1 265 24 view .LVU937
	vsub.f32	s25, s25, s27
.LVL205:
.LBB404:
.LBB405:
.LBB406:
.LBB407:
	.loc 2 20 66 view .LVU938
	vmul.f32	s0, s23, s23
.LVL206:
	.loc 2 20 66 view .LVU939
.LBE407:
.LBE406:
.LBE405:
.LBE404:
	.loc 1 265 24 view .LVU940
	vsub.f32	s24, s24, s26
.LVL207:
.LBB412:
.LBI404:
	.loc 2 23 14 is_stmt 1 view .LVU941
.LBB410:
	.loc 2 23 35 view .LVU942
.LBB409:
.LBI406:
	.loc 2 20 14 view .LVU943
.LBB408:
	.loc 2 20 43 view .LVU944
	.loc 2 20 60 is_stmt 0 view .LVU945
	vmla.f32	s0, s25, s25
	.loc 2 20 72 view .LVU946
	vmla.f32	s0, s24, s24
.LVL208:
	.loc 2 20 72 view .LVU947
	vcmp.f32	s0, #0
	vmrs	APSR_nzcv, FPSCR
	bmi	.L179
.LBE408:
.LBE409:
	.loc 2 23 42 view .LVU948
	vsqrt.f32	s23, s0
.LVL209:
.L128:
	.loc 2 23 42 view .LVU949
.LBE410:
.LBE412:
	.loc 1 265 9 view .LVU950
	vldr.32	s13, .L190+44
	.loc 1 266 28 view .LVU951
	vldr.32	s14, .L190+48
	.loc 1 265 9 view .LVU952
	vmul.f32	s23, s23, s13
.LVL210:
	.loc 1 266 3 is_stmt 1 view .LVU953
	.loc 1 266 19 is_stmt 0 view .LVU954
	vldr.32	s15, [r5, #20]
	vcmp.f32	s22, #0
	.loc 1 266 28 view .LVU955
	vmul.f32	s14, s23, s14
	vmrs	APSR_nzcv, FPSCR
	.loc 1 266 19 view .LVU956
	vmla.f32	s15, s14, s19
	.loc 1 267 14 view .LVU957
	vstr.32	s18, [sp]
	vstr.32	s16, [sp, #4]
	vstr.32	s17, [sp, #8]
	.loc 1 266 19 view .LVU958
	vstr.32	s15, [r5, #20]
	.loc 1 267 3 is_stmt 1 view .LVU959
.LBB413:
.LBI413:
	.loc 2 25 15 view .LVU960
.LVL211:
.LBB414:
	.loc 2 26 2 view .LVU961
.LBB415:
.LBI415:
	.loc 2 23 14 view .LVU962
.LBB416:
	.loc 2 23 35 view .LVU963
	bmi	.L180
.LVL212:
	.loc 2 23 42 is_stmt 0 view .LVU964
	vsqrt.f32	s15, s22
.L131:
.LVL213:
	.loc 2 23 42 view .LVU965
.LBE416:
.LBE415:
	.loc 2 27 2 is_stmt 1 view .LVU966
	.loc 2 27 2 is_stmt 0 view .LVU967
.LBE414:
.LBE413:
.LBB421:
.LBI421:
	.loc 2 18 15 is_stmt 1 view .LVU968
.LBB422:
	.loc 2 18 43 view .LVU969
.LBE422:
.LBE421:
.LBB424:
.LBB419:
	.loc 2 27 9 is_stmt 0 view .LVU970
	vdiv.f32	s12, s18, s15
.LVL214:
	.loc 2 27 9 view .LVU971
	vdiv.f32	s13, s16, s15
.LVL215:
	.loc 2 27 9 view .LVU972
	vdiv.f32	s14, s17, s15
.LVL216:
	.loc 2 27 9 view .LVU973
.LBE419:
.LBE424:
.LBB425:
.LBB423:
	.loc 2 18 50 view .LVU974
	vmul.f32	s18, s12, s23
.LVL217:
	.loc 2 18 50 view .LVU975
	vmul.f32	s16, s13, s23
.LVL218:
	.loc 2 18 50 view .LVU976
	vmul.f32	s17, s14, s23
.LVL219:
	.loc 2 18 50 view .LVU977
	b	.L124
.LVL220:
.L186:
	.loc 2 18 50 view .LVU978
.LBE423:
.LBE425:
.LBE403:
	.loc 1 310 3 is_stmt 1 view .LVU979
	mov	r1, r5
	ldr	r0, [r5, #40]
	bl	CommandLine_Activate
.LVL221:
	.loc 1 311 3 view .LVU980
	.loc 1 311 19 is_stmt 0 view .LVU981
	mov	r3, #1
	strb	r3, [r4, #68]
	b	.L154
.LVL222:
.L179:
.LBB428:
.LBB426:
.LBB411:
	.loc 2 23 42 view .LVU982
	bl	sqrtf
.LVL223:
	.loc 2 23 42 view .LVU983
	vmov.f32	s23, s0
.LVL224:
	.loc 2 23 42 view .LVU984
	b	.L128
.LVL225:
.L180:
	.loc 2 23 42 view .LVU985
.LBE411:
.LBE426:
.LBB427:
.LBB420:
.LBB418:
.LBB417:
	vmov.f32	s0, s22
	bl	sqrtf
.LVL226:
	vmov.f32	s15, s0
	b	.L131
.L191:
	.align	3
.L190:
	.word	-1571644103
	.word	1066524486
	.word	1059675009
	.word	-1074193707
	.word	1059675009
	.word	1073289941
	.word	1070126762
	.word	1048576000
	.word	-1082130432
	.word	0
	.word	-1077356886
	.word	1082759578
	.word	1069547520
.LBE417:
.LBE418:
.LBE420:
.LBE427:
.LBE428:
	.cfi_endproc
.LFE147:
	.size	PlayerController_Update, .-PlayerController_Update
	.global	n3ds_default_scheme
	.global	platform_default_scheme
	.global	platform_key_names
	.section	.rodata.str1.4
	.align	2
.LC42:
	.ascii	"Not Set\000"
	.align	2
.LC43:
	.ascii	"A\000"
	.align	2
.LC44:
	.ascii	"B\000"
	.align	2
.LC45:
	.ascii	"X\000"
	.align	2
.LC46:
	.ascii	"Y\000"
	.align	2
.LC47:
	.ascii	"L\000"
	.align	2
.LC48:
	.ascii	"R\000"
	.align	2
.LC49:
	.ascii	"Start\000"
	.align	2
.LC50:
	.ascii	"Select\000"
	.align	2
.LC51:
	.ascii	"DUp\000"
	.align	2
.LC52:
	.ascii	"DDown\000"
	.align	2
.LC53:
	.ascii	"DLeft\000"
	.align	2
.LC54:
	.ascii	"DRight\000"
	.align	2
.LC55:
	.ascii	"CircUp\000"
	.align	2
.LC56:
	.ascii	"CircDown\000"
	.align	2
.LC57:
	.ascii	"CircLeft\000"
	.align	2
.LC58:
	.ascii	"CircRight\000"
	.align	2
.LC59:
	.ascii	"CStickUp\000"
	.align	2
.LC60:
	.ascii	"CStickDown\000"
	.align	2
.LC61:
	.ascii	"CStickLeft\000"
	.align	2
.LC62:
	.ascii	"CStickRight\000"
	.align	2
.LC63:
	.ascii	"ZL\000"
	.align	2
.LC64:
	.ascii	"ZR\000"
	.section	.rodata
	.align	2
	.set	.LANCHOR0,. + 0
	.type	n3ds_default_scheme, %object
	.size	n3ds_default_scheme, 60
n3ds_default_scheme:
	.word	13
	.word	14
	.word	15
	.word	16
	.word	19
	.word	20
	.word	17
	.word	18
	.word	21
	.word	22
	.word	1
	.word	1
	.word	1
	.word	8
	.word	1
	.type	platform_default_scheme, %object
	.size	platform_default_scheme, 60
platform_default_scheme:
	.word	13
	.word	14
	.word	15
	.word	16
	.word	4
	.word	1
	.word	3
	.word	2
	.word	5
	.word	6
	.word	9
	.word	11
	.word	12
	.word	8
	.word	10
	.data
	.align	2
	.set	.LANCHOR1,. + 0
	.type	platform_key_names, %object
	.size	platform_key_names, 92
platform_key_names:
	.word	.LC42
	.word	.LC43
	.word	.LC44
	.word	.LC45
	.word	.LC46
	.word	.LC47
	.word	.LC48
	.word	.LC49
	.word	.LC50
	.word	.LC51
	.word	.LC52
	.word	.LC53
	.word	.LC54
	.word	.LC55
	.word	.LC56
	.word	.LC57
	.word	.LC58
	.word	.LC59
	.word	.LC60
	.word	.LC61
	.word	.LC62
	.word	.LC63
	.word	.LC64
	.text
.Letext0:
	.file 3 "/opt/devkitpro/devkitARM/arm-none-eabi/include/machine/_default_types.h"
	.file 4 "/opt/devkitpro/devkitARM/arm-none-eabi/include/sys/_stdint.h"
	.file 5 "/Users/blackout/Desktop/Craftus-Rehabilitated/include/world/Direction.h"
	.file 6 "/Users/blackout/Desktop/Craftus-Rehabilitated/include/blocks/Block.h"
	.file 7 "/Users/blackout/Desktop/Craftus-Rehabilitated/include/misc/Xorshift.h"
	.file 8 "/opt/devkitpro/devkitARM/lib/gcc/arm-none-eabi/12.2.0/include/stddef.h"
	.file 9 "/opt/devkitpro/devkitARM/arm-none-eabi/include/machine/_types.h"
	.file 10 "/opt/devkitpro/devkitARM/arm-none-eabi/include/sys/_types.h"
	.file 11 "/opt/devkitpro/devkitARM/arm-none-eabi/include/sys/reent.h"
	.file 12 "/opt/devkitpro/devkitARM/arm-none-eabi/include/sys/lock.h"
	.file 13 "/opt/devkitpro/devkitARM/arm-none-eabi/include/stdio.h"
	.file 14 "/Users/blackout/Desktop/Craftus-Rehabilitated/include/rendering/VBOCache.h"
	.file 15 "/Users/blackout/Desktop/Craftus-Rehabilitated/include/world/Chunk.h"
	.file 16 "/opt/devkitPro//libctru/include/3ds/types.h"
	.file 17 "/opt/devkitPro//libctru/include/3ds/synchronization.h"
	.file 18 "/opt/devkitPro//libctru/include/3ds/services/csnd.h"
	.file 19 "/opt/devkitPro//libctru/include/3ds/services/hid.h"
	.file 20 "/opt/devkitPro//libctru/include/3ds/services/ndm.h"
	.file 21 "/opt/devkitPro//libctru/include/3ds/gpu/enums.h"
	.file 22 "/opt/devkitPro//libctru/include/3ds/ndsp/channel.h"
	.file 23 "/opt/devkitPro//libctru/include/3ds/applets/error.h"
	.file 24 "/Users/blackout/Desktop/Craftus-Rehabilitated/include/world/WorkQueue.h"
	.file 25 "/Users/blackout/Desktop/Craftus-Rehabilitated/include/world/World.h"
	.file 26 "/Users/blackout/Desktop/Craftus-Rehabilitated/include/inventory/ItemStack.h"
	.file 27 "/Users/blackout/Desktop/Craftus-Rehabilitated/include/misc/Raycast.h"
	.file 28 "/Users/blackout/Desktop/Craftus-Rehabilitated/include/entity/Player.h"
	.file 29 "/Users/blackout/Desktop/Craftus-Rehabilitated/include/misc/InputData.h"
	.file 30 "/Users/blackout/Desktop/Craftus-Rehabilitated/include/entity/PlayerController.h"
	.file 31 "/Users/blackout/Desktop/Craftus-Rehabilitated/dependencies/ini/ini.h"
	.file 32 "/Users/blackout/Desktop/Craftus-Rehabilitated/include/misc/CommandLine.h"
	.file 33 "/opt/devkitpro/devkitARM/arm-none-eabi/include/math.h"
	.file 34 "/opt/devkitpro/devkitARM/arm-none-eabi/include/string.h"
	.file 35 "/opt/devkitpro/devkitARM/arm-none-eabi/include/sys/unistd.h"
	.file 36 "/opt/devkitPro//libctru/include/3ds/services/apt.h"
	.file 37 "<built-in>"