	.arch armv6k
	.fpu vfp
	.eabi_attribute 28, 1
	.eabi_attribute 20, 1
	.eabi_attribute 21, 1
	.eabi_attribute 23, 3
	.eabi_attribute 24, 1
	.eabi_attribute 25, 1
	.eabi_attribute 26, 1
	.eabi_attribute 30, 2
	.eabi_attribute 34, 1
	.eabi_attribute 18, 4
	.file	"PolyGen.c"
	.text
.Ltext0:
	.cfi_sections	.debug_frame
	.file 1 "/Users/blackout/Desktop/Craftus-Rehabilitated/source/rendering/PolyGen.c"
	.section	.text.floodFill.part.0,"ax",%progbits
	.align	2
	.syntax unified
	.arm
	.type	floodFill.part.0, %function
floodFill.part.0:
.LVL0:
.LFB151:
	.loc 1 170 17 view -0
	.cfi_startproc
	@ args = 12, pretend = 0, frame = 32
	@ frame_needed = 0, uses_anonymous_args = 0
	.loc 1 173 2 view .LVU1
	.loc 1 170 17 is_stmt 0 view .LVU2
	push	{r4, r5, r6, r7, r8, r9, r10, fp, lr}
	.cfi_def_cfa_offset 36
	.cfi_offset 4, -36
	.cfi_offset 5, -32
	.cfi_offset 6, -28
	.cfi_offset 7, -24
	.cfi_offset 8, -20
	.cfi_offset 9, -16
	.cfi_offset 10, -12
	.cfi_offset 11, -8
	.cfi_offset 14, -4
	sub	sp, sp, #36
	.cfi_def_cfa_offset 72
	.loc 1 170 17 view .LVU3
	ldrb	r7, [sp, #72]	@ zero_extendqisi2
	mov	r4, r3
	.loc 1 174 5 view .LVU4
	cmp	r7, #6
	.loc 1 174 62 view .LVU5
	addne	r3, r7, #32
.LVL1:
	.loc 1 174 62 view .LVU6
	addne	r7, sp, r3
	.loc 1 173 10 view .LVU7
	mov	r8, #0
	.loc 1 174 62 view .LVU8
	movne	r3, #1
	.loc 1 170 17 view .LVU9
	ldrb	lr, [sp, #76]	@ zero_extendqisi2
	.loc 1 173 10 view .LVU10
	str	r8, [sp, #24]
	strh	r8, [sp, #28]	@ movhi
	.loc 1 174 2 is_stmt 1 view .LVU11
	.loc 1 174 39 view .LVU12
	.loc 1 174 62 is_stmt 0 view .LVU13
	strbne	r3, [r7, #-8]
	.loc 1 175 2 is_stmt 1 view .LVU14
	.loc 1 175 5 is_stmt 0 view .LVU15
	cmp	lr, #6
	.loc 1 175 39 is_stmt 1 view .LVU16
	.loc 1 175 62 is_stmt 0 view .LVU17
	addne	r3, lr, #32
	addne	lr, sp, r3
	movne	r3, #1
	.loc 1 170 17 view .LVU18
	ldrb	ip, [sp, #80]	@ zero_extendqisi2
	.loc 1 175 62 view .LVU19
	strbne	r3, [lr, #-8]
	.loc 1 176 2 is_stmt 1 view .LVU20
	.loc 1 176 5 is_stmt 0 view .LVU21
	cmp	ip, #6
	.loc 1 176 39 is_stmt 1 view .LVU22
	.loc 1 177 2 view .LVU23
	.loc 1 176 62 is_stmt 0 view .LVU24
	addne	r3, ip, #32
	addne	ip, sp, r3
	movne	r3, #1
	strbne	r3, [ip, #-8]
	.loc 1 177 30 view .LVU25
	mov	r3, #0
	ldr	r7, .L49
	.loc 1 170 17 view .LVU26
	str	r0, [sp, #8]
	.loc 1 177 30 view .LVU27
	str	r3, [r7, #4]
	.loc 1 178 2 is_stmt 1 view .LVU28
	.loc 1 170 17 is_stmt 0 view .LVU29
	mov	r6, r1
	mov	r5, r2
	.loc 1 178 4 view .LVU30
	mov	r3, #3
	mov	r0, r7
.LVL2:
	.loc 1 178 4 view .LVU31
	add	r2, r7, #8
.LVL3:
	.loc 1 178 4 view .LVU32
	add	r1, r7, #4
.LVL4:
	.loc 1 178 4 view .LVU33
	bl	vec_expand_
.LVL5:
	.loc 1 178 151 view .LVU34
	cmp	r0, #0
	bne	.L5
	.loc 1 178 197 view .LVU35
	ldr	r0, [r7, #4]
	.loc 1 178 172 view .LVU36
	ldr	r2, [r7]
	.loc 1 178 178 view .LVU37
	add	r1, r0, r0, lsl #1
	.loc 1 178 205 view .LVU38
	add	r3, r0, #1
	str	r3, [r7, #4]
	.loc 1 180 32 view .LVU39
	cmp	r3, #0
	.loc 1 178 209 view .LVU40
	strb	r6, [r2, r1]
	.loc 1 178 178 view .LVU41
	add	r2, r2, r1
	.loc 1 178 209 view .LVU42
	strb	r5, [r2, #1]
	strb	r4, [r2, #2]
	.loc 1 180 32 is_stmt 1 view .LVU43
	ble	.L19
.LVL6:
.L47:
.LBB84:
	.loc 1 181 3 view .LVU44
	.loc 1 181 41 is_stmt 0 view .LVU45
	ldr	r0, .L49
	.loc 1 181 48 view .LVU46
	sub	r3, r3, #1
	.loc 1 181 41 view .LVU47
	ldr	r1, [r0]
	.loc 1 181 16 view .LVU48
	str	r3, [r0, #4]
	.loc 1 181 47 view .LVU49
	add	r2, r3, r3, lsl #1
	add	r3, r1, r2
.LVL7:
	.loc 1 183 3 is_stmt 1 view .LVU50
.LBB85:
	.loc 1 183 8 view .LVU51
	.loc 1 183 21 view .LVU52
.LBB86:
	.loc 1 185 16 is_stmt 0 view .LVU53
	ldrsb	r2, [r1, r2]
	.loc 1 185 40 view .LVU54
	ldrsb	fp, [r3, #1]
	.loc 1 185 64 view .LVU55
	ldrsb	r10, [r3, #2]
	ldr	r4, .L49+4
	ldr	r9, .L49+8
	.loc 1 185 16 view .LVU56
	str	r2, [sp, #4]
	add	r8, sp, #24
.LVL8:
.L16:
	.loc 1 184 4 is_stmt 1 view .LVU57
	.loc 1 185 4 view .LVU58
	.loc 1 185 8 is_stmt 0 view .LVU59
	ldr	r3, [sp, #4]
	ldr	r7, [r4]
	.loc 1 185 32 view .LVU60
	ldr	r6, [r4, #4]
	.loc 1 185 56 view .LVU61
	ldr	r5, [r4, #8]
	.loc 1 185 8 view .LVU62
	add	r7, r3, r7
.LVL9:
	.loc 1 185 32 view .LVU63
	add	r6, fp, r6
.LVL10:
	.loc 1 185 56 view .LVU64
	add	r5, r10, r5
.LVL11:
	.loc 1 186 4 is_stmt 1 view .LVU65
	.loc 1 186 28 is_stmt 0 view .LVU66
	orr	r3, r7, r6
	orr	r3, r3, r5
	.loc 1 186 32 view .LVU67
	cmp	r3, #15
	.loc 1 187 19 view .LVU68
	movhi	r3, #1
	strbhi	r3, [r8]
	.loc 1 186 32 view .LVU69
	bhi	.L8
	.loc 1 189 5 is_stmt 1 view .LVU70
	.loc 1 189 77 is_stmt 0 view .LVU71
	ldr	r3, [sp, #8]
	add	r2, r6, r7, lsl #4
	add	r3, r3, r2, lsl #4
	add	r3, r3, r5
	lsl	r2, r2, #4
	str	r2, [sp, #12]
	add	r2, r3, #4096
	.loc 1 189 10 view .LVU72
	ldrb	r1, [r2, #4]	@ zero_extendqisi2
	ldrb	r0, [r3, #4]	@ zero_extendqisi2
	and	r1, r1, #15
	bl	Block_Opaque
.LVL12:
	.loc 1 189 77 view .LVU73
	lsl	r3, r7, #4
	.loc 1 189 8 view .LVU74
	cmp	r0, #0
	.loc 1 189 77 view .LVU75
	str	r3, [sp, #16]
	.loc 1 189 8 view .LVU76
	bne	.L10
	.loc 1 190 34 view .LVU77
	ldr	r2, [sp, #12]
	ldr	r3, .L49+12
	add	r3, r3, r2
	ldrb	r2, [r3, r5]	@ zero_extendqisi2
	.loc 1 189 88 view .LVU78
	tst	r2, #1
	beq	.L45
.L10:
	.loc 1 194 5 is_stmt 1 view .LVU79
	.loc 1 194 41 is_stmt 0 view .LVU80
	ldr	r3, [sp, #4]
	ldr	r2, [sp, #8]
	add	r3, fp, r3, lsl #4
	add	r3, r2, r3, lsl #4
	add	r3, r3, r10
	.loc 1 194 8 view .LVU81
	ldrb	r3, [r3, #4]	@ zero_extendqisi2
	cmp	r3, #0
	.loc 1 195 10 view .LVU82
	lsl	r3, r7, #4
	add	r3, r3, r6
	add	r3, r2, r3, lsl #4
	add	r3, r3, r5
	ldrb	r0, [r3, #4]	@ zero_extendqisi2
	.loc 1 194 8 view .LVU83
	bne	.L12
.L15:
	.loc 1 196 30 view .LVU84
	lsl	r3, r7, #4
	add	r2, r3, r6
	ldr	r3, [sp, #8]
	add	r2, r3, r2, lsl #4
	add	r2, r2, r5
	ldrb	r3, [r2, #4]	@ zero_extendqisi2
	.loc 1 195 89 view .LVU85
	cmp	r3, #0
	bne	.L46
.LVL13:
.L8:
	.loc 1 195 89 view .LVU86
.LBE86:
	.loc 1 183 27 is_stmt 1 view .LVU87
	.loc 1 183 21 view .LVU88
	ldr	r3, .L49+16
	add	r4, r4, #12
.LVL14:
	.loc 1 183 21 is_stmt 0 view .LVU89
	cmp	r3, r4
	add	r8, r8, #1
.LVL15:
	.loc 1 183 21 view .LVU90
	add	r9, r9, #1
	bne	.L16
.LVL16:
.L5:
	.loc 1 183 21 view .LVU91
.LBE85:
.LBE84:
	.loc 1 178 197 view .LVU92
	ldr	r3, .L49
	ldr	r3, [r3, #4]
	.loc 1 180 32 is_stmt 1 view .LVU93
	cmp	r3, #0
	bgt	.L47
.L19:
.LVL17:
.LBB101:
	.loc 1 205 20 view .LVU94
.LBE101:
	.loc 1 204 11 is_stmt 0 view .LVU95
	mov	r0, #0
.LBB110:
.LBB102:
.LBB103:
.LBB104:
	.file 2 "/Users/blackout/Desktop/Craftus-Rehabilitated/include/world/Chunk.h"
	.loc 2 65 73 view .LVU96
	mov	r5, #1
.LBE104:
.LBE103:
.LBE102:
	.loc 1 205 11 view .LVU97
	mov	r2, r0
	ldr	lr, .L49+20
	add	r4, sp, #23
	b	.L18
.LVL18:
.L20:
	.loc 1 205 26 is_stmt 1 view .LVU98
	add	r2, r2, #1
.LVL19:
	.loc 1 205 20 view .LVU99
	cmp	r2, #6
	add	lr, lr, #6
	beq	.L48
.LVL20:
.L18:
	.loc 1 206 3 view .LVU100
	.loc 1 206 6 is_stmt 0 view .LVU101
	ldrb	r3, [r4, #1]!	@ zero_extendqisi2
	cmp	r3, #0
	beq	.L20
.LBB109:
	.loc 1 207 13 view .LVU102
	mov	r3, #0
	add	r1, sp, #24
.L22:
.LVL21:
	.loc 1 208 5 is_stmt 1 view .LVU103
	.loc 1 208 8 is_stmt 0 view .LVU104
	cmp	r3, r2
	beq	.L21
	.loc 1 208 34 is_stmt 1 view .LVU105
.LVL22:
.LBB107:
.LBI103:
	.loc 2 65 17 view .LVU106
.LBB105:
	.loc 2 65 64 view .LVU107
	.loc 2 65 64 is_stmt 0 view .LVU108
.LBE105:
.LBE107:
	.loc 1 208 16 view .LVU109
	ldrb	ip, [r1]	@ zero_extendqisi2
	cmp	ip, #0
.LBB108:
.LBB106:
	.loc 2 65 76 view .LVU110
	ldrbne	ip, [lr, r3]	@ zero_extendqisi2
.LBE106:
.LBE108:
	.loc 1 208 44 view .LVU111
	orrne	r0, r0, r5, lsl ip
.LVL23:
	.loc 1 208 44 view .LVU112
	uxthne	r0, r0
.LVL24:
.L21:
	.loc 1 207 28 is_stmt 1 view .LVU113
	add	r3, r3, #1
.LVL25:
	.loc 1 207 22 view .LVU114
	cmp	r3, #6
	add	r1, r1, #1
	bne	.L22
	.loc 1 207 22 is_stmt 0 view .LVU115
.LBE109:
	.loc 1 205 26 is_stmt 1 view .LVU116
	add	r2, r2, #1
.LVL26:
	.loc 1 205 20 view .LVU117
	cmp	r2, #6
	add	lr, lr, #6
	bne	.L18
.LVL27:
.L48:
	.loc 1 205 20 is_stmt 0 view .LVU118
.LBE110:
	.loc 1 210 1 view .LVU119
	add	sp, sp, #36
	.cfi_remember_state
	.cfi_def_cfa_offset 36
	@ sp needed
	pop	{r4, r5, r6, r7, r8, r9, r10, fp, pc}
.LVL28:
.L12:
	.cfi_restore_state
.LBB111:
.LBB100:
.LBB99:
	.loc 1 195 77 view .LVU120
	add	r3, r3, #4096
	.loc 1 195 10 view .LVU121
	ldrb	r1, [r3, #4]	@ zero_extendqisi2
	and	r1, r1, #15
	bl	Block_Opaque
.LVL29:
	.loc 1 194 63 view .LVU122
	cmp	r0, #0
	bne	.L15
	b	.L8
.L46:
	.loc 1 197 6 is_stmt 1 view .LVU123
	.loc 1 198 35 is_stmt 0 view .LVU124
	add	r2, r2, #4096
	.loc 1 197 6 view .LVU125
	ldrb	r1, [r2, #4]	@ zero_extendqisi2
	.loc 1 199 8 view .LVU126
	mov	r0, r3
	str	r3, [sp, #16]
	.loc 1 197 6 view .LVU127
	ldrb	r3, [r9]	@ zero_extendqisi2
	and	r1, r1, #15
	.loc 1 199 8 view .LVU128
	str	r1, [sp, #20]
	.loc 1 197 6 view .LVU129
	str	r3, [sp, #12]
	.loc 1 199 8 view .LVU130
	bl	Block_Opaque
.LVL30:
	mov	r2, r0
.LBB87:
.LBB88:
.LBB89:
.LBB90:
	.loc 1 165 29 view .LVU131
	mov	lr, #0
	.loc 1 165 25 view .LVU132
	ldr	r1, .L49
	.loc 1 165 29 view .LVU133
	ldr	r3, .L49+24
	.loc 1 165 25 view .LVU134
	ldr	ip, [r1, #12]
	.loc 1 165 29 view .LVU135
	add	r0, r3, ip, lsl #3
	strb	r7, [r3, ip, lsl #3]
	ldr	r3, [sp, #12]
	.loc 1 166 20 view .LVU136
	ldr	r7, [r1, #16]
.LVL31:
	.loc 1 165 29 view .LVU137
	strb	r3, [r0, #3]
	ldr	r3, [sp, #16]
	ldr	r1, [sp, #20]
	strb	r3, [r0, #4]
.LBE90:
.LBE89:
.LBE88:
.LBE87:
	.loc 1 199 7 view .LVU138
	eor	r3, r2, #1
	uxtb	r3, r3
.LBB97:
.LBB95:
.LBB93:
.LBB91:
	.loc 1 165 29 view .LVU139
	strb	r1, [r0, #6]
	.loc 1 165 25 view .LVU140
	ldr	r1, .L49
	add	ip, ip, #1
	.loc 1 166 20 view .LVU141
	add	r7, r7, r3
	.loc 1 165 29 view .LVU142
	strb	r6, [r0, #1]
	strb	r5, [r0, #2]
.LVL32:
	.loc 1 165 29 view .LVU143
.LBE91:
.LBE93:
.LBE95:
.LBI87:
	.loc 1 163 20 is_stmt 1 view .LVU144
	.loc 1 164 2 view .LVU145
.LBB96:
.LBI88:
	.loc 1 163 20 view .LVU146
.LBB94:
.LBB92:
	.loc 1 165 3 view .LVU147
	.loc 1 165 25 is_stmt 0 view .LVU148
	str	ip, [r1, #12]
	.loc 1 165 29 view .LVU149
	strb	lr, [r0, #5]
	strb	r3, [r0, #7]
	.loc 1 166 3 is_stmt 1 view .LVU150
	.loc 1 166 20 is_stmt 0 view .LVU151
	str	r7, [r1, #16]
.LBE92:
	.loc 1 168 1 view .LVU152
	b	.L8
.LVL33:
.L45:
	.loc 1 168 1 view .LVU153
.LBE94:
.LBE96:
.LBE97:
.LBB98:
	.loc 1 191 6 is_stmt 1 view .LVU154
	.loc 1 191 33 is_stmt 0 view .LVU155
	orr	r2, r2, #1
	strb	r2, [r3, r5]
	.loc 1 192 6 is_stmt 1 view .LVU156
	.loc 1 192 8 is_stmt 0 view .LVU157
	ldr	r2, .L49+28
	mov	r3, #3
	sub	r1, r2, #4
	sub	r0, r2, #8
	bl	vec_expand_
.LVL34:
	.loc 1 192 155 view .LVU158
	cmp	r0, #0
	bne	.L10
	.loc 1 192 201 view .LVU159
	ldr	r0, .L49
	ldr	r2, [r0, #4]
	.loc 1 192 176 view .LVU160
	ldr	r3, [r0]
	.loc 1 192 182 view .LVU161
	add	r1, r2, r2, lsl #1
	.loc 1 192 209 view .LVU162
	add	r2, r2, #1
	str	r2, [r0, #4]
	.loc 1 192 213 view .LVU163
	strb	r7, [r3, r1]
	.loc 1 192 182 view .LVU164
	add	r3, r3, r1
	.loc 1 192 213 view .LVU165
	strb	r6, [r3, #1]
	strb	r5, [r3, #2]
	b	.L10
.L50:
	.align	2
.L49:
	.word	.LANCHOR0
	.word	DirectionToOffset
	.word	DirectionOpposite
	.word	floodfill_visited
	.word	DirectionToOffset+72
	.word	_seethroughTable
	.word	faceBuffer
	.word	.LANCHOR0+8
.LBE98:
.LBE99:
.LBE100:
.LBE111:
	.cfi_endproc
.LFE151:
	.size	floodFill.part.0, .-floodFill.part.0
	.section	.text.PolyGen_Init,"ax",%progbits
	.align	2
	.global	PolyGen_Init
	.syntax unified
	.arm
	.type	PolyGen_Init, %function
PolyGen_Init:
.LVL35:
.LFB144:
	.loc 1 112 51 is_stmt 1 view -0
	.cfi_startproc
	@ args = 0, pretend = 0, frame = 0
	@ frame_needed = 0, uses_anonymous_args = 0
	.loc 1 113 2 view .LVU167
	.loc 1 112 51 is_stmt 0 view .LVU168
	push	{r4, r5, r6, lr}
	.cfi_def_cfa_offset 16
	.cfi_offset 4, -16
	.cfi_offset 5, -12
	.cfi_offset 6, -8
	.cfi_offset 14, -4
	.loc 1 118 2 view .LVU169
	mov	r5, #0
	.loc 1 113 8 view .LVU170
	ldr	r4, .L53
	.loc 1 114 9 view .LVU171
	strd	r0, [r4, #20]
	.loc 1 116 2 is_stmt 1 view .LVU172
	bl	VBOCache_Init
.LVL36:
	.loc 1 118 2 view .LVU173
	.loc 1 120 2 is_stmt 0 view .LVU174
	add	r0, r4, #28
	.loc 1 118 2 view .LVU175
	str	r5, [r4]
	str	r5, [r4, #4]
	str	r5, [r4, #8]
	.loc 1 120 2 is_stmt 1 view .LVU176
	bl	LightLock_Init
.LVL37:
	.loc 1 122 2 view .LVU177
	str	r5, [r4, #32]
	str	r5, [r4, #36]
	str	r5, [r4, #40]
	.loc 1 123 1 is_stmt 0 view .LVU178
	pop	{r4, r5, r6, pc}
.L54:
	.align	2
.L53:
	.word	.LANCHOR0
	.cfi_endproc
.LFE144:
	.size	PolyGen_Init, .-PolyGen_Init
	.section	.text.PolyGen_Deinit,"ax",%progbits
	.align	2
	.global	PolyGen_Deinit
	.syntax unified
	.arm
	.type	PolyGen_Deinit, %function
PolyGen_Deinit:
.LFB145:
	.loc 1 124 23 is_stmt 1 view -0
	.cfi_startproc
	@ args = 0, pretend = 0, frame = 0
	@ frame_needed = 0, uses_anonymous_args = 0
	.loc 1 125 2 view .LVU180
	.loc 1 124 23 is_stmt 0 view .LVU181
	push	{r4, r5, r6, lr}
	.cfi_def_cfa_offset 16
	.cfi_offset 4, -16
	.cfi_offset 5, -12
	.cfi_offset 6, -8
	.cfi_offset 14, -4
	.loc 1 125 22 view .LVU182
	ldr	r4, .L57
	.loc 1 125 31 view .LVU183
	mov	r5, #0
	.loc 1 125 4 view .LVU184
	mov	r6, r4
	ldr	r0, [r6, #32]!
	bl	free
.LVL38:
	.loc 1 125 31 view .LVU185
	str	r5, [r4, #32]
	str	r5, [r6, #4]
	str	r5, [r6, #8]
	.loc 1 127 2 is_stmt 1 view .LVU186
	bl	VBOCache_Deinit
.LVL39:
	.loc 1 129 2 view .LVU187
	.loc 1 129 4 is_stmt 0 view .LVU188
	ldr	r0, [r4]
	bl	free
.LVL40:
	.loc 1 129 36 view .LVU189
	str	r5, [r4]
	str	r5, [r4, #4]
	str	r5, [r4, #8]
	.loc 1 130 1 view .LVU190
	pop	{r4, r5, r6, pc}
.L58:
	.align	2
.L57:
	.word	.LANCHOR0
	.cfi_endproc
.LFE145:
	.size	PolyGen_Deinit, .-PolyGen_Deinit
	.section	.rodata.str1.4,"aMS",%progbits,1
	.align	2
.LC0:
	.ascii	"VBOUpdates %d\000"
	.section	.text.PolyGen_Harvest,"ax",%progbits
	.align	2
	.global	PolyGen_Harvest
	.syntax unified
	.arm
	.type	PolyGen_Harvest, %function
PolyGen_Harvest:
.LFB146:
	.loc 1 132 24 is_stmt 1 view -0
	.cfi_startproc
	@ args = 0, pretend = 0, frame = 48
	@ frame_needed = 0, uses_anonymous_args = 0
	.loc 1 133 2 view .LVU192
	.loc 1 132 24 is_stmt 0 view .LVU193
	push	{r4, r5, r6, r7, r8, r9, r10, fp, lr}
	.cfi_def_cfa_offset 36
	.cfi_offset 4, -36
	.cfi_offset 5, -32
	.cfi_offset 6, -28
	.cfi_offset 7, -24
	.cfi_offset 8, -20
	.cfi_offset 9, -16
	.cfi_offset 10, -12
	.cfi_offset 11, -8
	.cfi_offset 14, -4
	.loc 1 133 6 view .LVU194
	ldr	r5, .L78
	.loc 1 132 24 view .LVU195
	sub	sp, sp, #52
	.cfi_def_cfa_offset 88
	.loc 1 133 6 view .LVU196
	add	r0, r5, #28
	bl	LightLock_TryLock
.LVL41:
	.loc 1 133 5 view .LVU197
	cmp	r0, #0
	beq	.L76
	.loc 1 156 1 view .LVU198
	add	sp, sp, #52
	.cfi_remember_state
	.cfi_def_cfa_offset 36
	@ sp needed
	pop	{r4, r5, r6, r7, r8, r9, r10, fp, pc}
.L76:
	.cfi_restore_state
	.loc 1 134 3 is_stmt 1 view .LVU199
	ldr	r1, [r5, #36]
	ldr	r0, .L78+4
	bl	DebugUI_Text
.LVL42:
	.loc 1 135 3 view .LVU200
	.loc 1 135 17 is_stmt 0 view .LVU201
	ldr	r2, [r5, #36]
	.loc 1 135 6 view .LVU202
	cmp	r2, #0
	ble	.L61
	.loc 1 136 4 is_stmt 1 view .LVU203
	.loc 1 136 18 is_stmt 0 view .LVU204
	ldr	r3, [r5, #32]
	.loc 1 136 26 view .LVU205
	ldrb	r1, [r3, #36]	@ zero_extendqisi2
	.loc 1 136 32 view .LVU206
	add	r0, r1, #1
	.loc 1 136 7 view .LVU207
	cmp	r1, #2
	.loc 1 136 32 view .LVU208
	strb	r0, [r3, #36]
	.loc 1 136 7 view .LVU209
	bls	.L61
	add	r8, sp, #8
	b	.L65
.LVL43:
.L63:
.LBB112:
	.loc 1 143 7 is_stmt 1 view .LVU210
	.loc 1 143 36 is_stmt 0 view .LVU211
	add	r3, r7, r4
	add	r3, r4, r3, lsl #1
	add	r3, fp, r3, lsl #4
	add	r3, r3, #8192
	.loc 1 143 10 view .LVU212
	ldr	r3, [r3, #60]
	cmp	r3, #0
	bne	.L77
.L64:
	.loc 1 145 7 is_stmt 1 view .LVU213
	.loc 1 145 37 is_stmt 0 view .LVU214
	ldm	r8, {r0, r1}
	add	r7, r7, r4
	add	r4, r4, r7, lsl #1
.LVL44:
	.loc 1 145 37 view .LVU215
	add	r4, fp, r4, lsl #4
	add	r4, r4, #8192
	.loc 1 147 48 view .LVU216
	add	r3, r6, r6, lsl #8
	add	r6, r6, r3, lsl #1
	.loc 1 145 37 view .LVU217
	add	r3, r4, #40
	stm	r3, {r0, r1}
	.loc 1 146 7 is_stmt 1 view .LVU218
	.loc 1 147 48 is_stmt 0 view .LVU219
	add	r3, sp, #16
	ldm	r3, {r0, r1}
	.loc 1 149 44 view .LVU220
	ldr	r3, [sp, #4]
	.loc 1 147 48 view .LVU221
	add	fp, fp, r6, lsl #4
.LVL45:
	.loc 1 146 42 view .LVU222
	str	r10, [r4, #56]
	.loc 1 147 7 is_stmt 1 view .LVU223
	.loc 1 147 48 is_stmt 0 view .LVU224
	stm	fp, {r0, r1}
	.loc 1 148 7 is_stmt 1 view .LVU225
	.loc 1 148 53 is_stmt 0 view .LVU226
	str	r9, [r4, #60]
	.loc 1 149 7 is_stmt 1 view .LVU227
	.loc 1 149 44 is_stmt 0 view .LVU228
	strh	r3, [r4, #32]	@ movhi
.L62:
.LVL46:
	.loc 1 149 44 view .LVU229
.LBE112:
	.loc 1 137 30 is_stmt 1 view .LVU230
	.loc 1 137 22 is_stmt 0 view .LVU231
	ldr	r2, [r5, #36]
	.loc 1 137 30 view .LVU232
	cmp	r2, #0
	ble	.L61
.LBB113:
	.loc 1 138 38 view .LVU233
	ldr	r3, [r5, #32]
.LVL47:
.L65:
	.loc 1 138 6 is_stmt 1 view .LVU234
	.loc 1 138 45 is_stmt 0 view .LVU235
	sub	r2, r2, #1
	.loc 1 138 44 view .LVU236
	add	r1, r2, r2, lsl #2
	add	fp, r3, r1, lsl #3
	.loc 1 138 16 view .LVU237
	mov	lr, fp
	mov	ip, r8
	ldrh	r3, [fp, #38]
	str	r2, [r5, #36]
	str	r3, [sp, #4]
	ldmia	lr!, {r0, r1, r2, r3}
	stmia	ip!, {r0, r1, r2, r3}
	ldmia	lr!, {r0, r1, r2, r3}
	stmia	ip!, {r0, r1, r2, r3}
	ldm	lr, {r0, r1}
	.loc 1 140 21 view .LVU238
	ldr	r2, [fp, #24]
	.loc 1 138 16 view .LVU239
	stm	ip, {r0, r1}
.LVL48:
	.loc 1 140 21 view .LVU240
	ldr	r1, [fp, #16]
	ldr	r0, [r5, #20]
	.loc 1 138 16 view .LVU241
	ldr	r4, [fp, #20]
.LVL49:
	.loc 1 138 16 view .LVU242
	ldr	r10, [fp, #28]
.LVL50:
	.loc 1 138 16 view .LVU243
	ldr	r9, [fp, #32]
	.loc 1 140 6 is_stmt 1 view .LVU244
	.loc 1 140 21 is_stmt 0 view .LVU245
	bl	World_GetChunk
.LVL51:
	.loc 1 142 7 is_stmt 1 view .LVU246
	.loc 1 141 6 view .LVU247
	.loc 1 142 36 is_stmt 0 view .LVU248
	add	r3, r4, r4, lsl #8
	add	r3, r4, r3, lsl #1
	.loc 1 141 9 view .LVU249
	subs	fp, r0, #0
	.loc 1 142 36 view .LVU250
	add	r3, fp, r3, lsl #4
	lsl	r7, r4, #8
	add	r6, r4, #1
	add	r3, r3, #8192
	.loc 1 141 9 view .LVU251
	beq	.L62
	.loc 1 142 10 view .LVU252
	ldr	r2, [r3, #56]
	cmp	r2, #0
	beq	.L63
	.loc 1 142 51 is_stmt 1 discriminator 1 view .LVU253
	add	r3, r3, #40
	ldm	r3, {r0, r1}
.LVL52:
	.loc 1 142 51 is_stmt 0 discriminator 1 view .LVU254
	bl	VBO_Free
.LVL53:
	b	.L63
.LVL54:
.L61:
	.loc 1 142 51 discriminator 1 view .LVU255
.LBE113:
	.loc 1 154 3 is_stmt 1 view .LVU256
	ldr	r0, .L78+8
	.loc 1 156 1 is_stmt 0 view .LVU257
	add	sp, sp, #52
	.cfi_remember_state
	.cfi_def_cfa_offset 36
	@ sp needed
	pop	{r4, r5, r6, r7, r8, r9, r10, fp, lr}
	.cfi_restore 14
	.cfi_restore 11
	.cfi_restore 10
	.cfi_restore 9
	.cfi_restore 8
	.cfi_restore 7
	.cfi_restore 6
	.cfi_restore 5
	.cfi_restore 4
	.cfi_def_cfa_offset 0
	.loc 1 154 3 view .LVU258
	b	LightLock_Unlock
.LVL55:
.L77:
	.cfi_restore_state
.LBB114:
	.loc 1 144 8 is_stmt 1 view .LVU259
	add	r6, r4, #1
	add	r3, r6, r6, lsl #8
	add	r3, r6, r3, lsl #1
	add	r3, fp, r3, lsl #4
	ldm	r3, {r0, r1}
	bl	VBO_Free
.LVL56:
	b	.L64
.L79:
	.align	2
.L78:
	.word	.LANCHOR0
	.word	.LC0
	.word	.LANCHOR0+28
.LBE114:
	.cfi_endproc
.LFE146:
	.size	PolyGen_Harvest, .-PolyGen_Harvest
	.section	.text.PolyGen_GeneratePolygons,"ax",%progbits
	.align	2
	.global	PolyGen_GeneratePolygons
	.syntax unified
	.arm
	.type	PolyGen_GeneratePolygons, %function
PolyGen_GeneratePolygons:
.LVL57:
.LFB149:
	.loc 1 212 78 view -0
	.cfi_startproc
	@ args = 4, pretend = 0, frame = 168
	@ frame_needed = 0, uses_anonymous_args = 0
	.loc 1 212 78 is_stmt 0 view .LVU261
	push	{r4, r5, r6, r7, r8, r9, r10, fp, lr}
	.cfi_def_cfa_offset 36
	.cfi_offset 4, -36
	.cfi_offset 5, -32
	.cfi_offset 6, -28
	.cfi_offset 7, -24
	.cfi_offset 8, -20
	.cfi_offset 9, -16
	.cfi_offset 10, -12
	.cfi_offset 11, -8
	.cfi_offset 14, -4
	mov	r10, r2
.LVL58:
	.loc 1 213 2 is_stmt 1 view .LVU262
.LBB193:
	.loc 1 213 7 view .LVU263
	.loc 1 213 20 view .LVU264
.LBE193:
	.loc 1 212 78 is_stmt 0 view .LVU265
	sub	sp, sp, #188
	.cfi_def_cfa_offset 224
	.loc 1 212 78 view .LVU266
	add	r0, sp, #108
.LVL59:
	.loc 1 212 78 view .LVU267
	stm	r0, {r1, r2, r3}
	mov	r3, #0
	add	r4, r10, #65536
	add	r1, r10, #44
.LBB388:
.LBB194:
.LBB195:
	.loc 1 220 16 view .LVU268
	ldr	r7, .L192
	add	r2, r2, #8192
.LVL60:
	.loc 1 220 16 view .LVU269
	str	r1, [sp, #52]
	add	r1, r4, #428
	add	r2, r2, #28
	str	r1, [sp, #68]
	.loc 1 379 6 view .LVU270
	add	r1, r7, #36
.LBE195:
.LBE194:
	.loc 1 213 11 view .LVU271
	str	r4, [sp, #88]
	mov	r9, r10
	mov	r4, r2
.LBE388:
	.loc 1 212 78 view .LVU272
	str	r3, [sp, #56]
.LBB389:
.LBB385:
.LBB380:
	.loc 1 379 6 view .LVU273
	str	r1, [sp, #84]
.LBE380:
.LBE385:
	.loc 1 213 11 view .LVU274
	str	r3, [sp, #48]
	b	.L138
.LVL61:
.L175:
.LBB386:
	.loc 1 216 49 discriminator 1 view .LVU275
	ldrb	r2, [r4, #40]	@ zero_extendqisi2
	cmp	r2, #0
	bne	.L81
.LVL62:
.L82:
	.loc 1 216 49 discriminator 1 view .LVU276
.LBE386:
	.loc 1 213 39 is_stmt 1 discriminator 2 view .LVU277
	.loc 1 213 20 is_stmt 0 discriminator 2 view .LVU278
	ldr	r3, [sp, #52]
	ldr	r1, [sp, #68]
	add	r3, r3, #8192
	add	r3, r3, #48
	ldr	r2, [sp, #56]
	str	r3, [sp, #52]
	cmp	r3, r1
	.loc 1 213 39 discriminator 2 view .LVU279
	ldr	r3, [sp, #48]
	.loc 1 213 20 discriminator 2 view .LVU280
	add	r2, r2, #8192
	.loc 1 213 39 discriminator 2 view .LVU281
	add	r3, r3, #1
	.loc 1 213 20 discriminator 2 view .LVU282
	add	r4, r4, #8192
	.loc 1 213 39 discriminator 2 view .LVU283
	str	r3, [sp, #48]
.LVL63:
	.loc 1 213 20 is_stmt 1 discriminator 2 view .LVU284
	add	r3, r2, #48
.LVL64:
	.loc 1 213 20 is_stmt 0 discriminator 2 view .LVU285
	str	r3, [sp, #56]
	add	r4, r4, #48
	beq	.L174
.LVL65:
.L138:
.LBB387:
	.loc 1 214 3 is_stmt 1 view .LVU286
	.loc 1 216 3 view .LVU287
	.loc 1 216 14 is_stmt 0 view .LVU288
	ldr	r3, [r4]
	.loc 1 216 6 view .LVU289
	ldr	r2, [r4, #36]
	cmp	r3, r2
	beq	.L175
.L81:
.LBB381:
	.loc 1 218 28 view .LVU290
	mov	r1, #0
	.loc 1 225 4 view .LVU291
	mov	r2, #4096
.LBE381:
	.loc 1 214 12 view .LVU292
	ldr	fp, [sp, #52]
.LBB382:
	.loc 1 217 25 view .LVU293
	str	r3, [r4, #36]
	.loc 1 225 4 view .LVU294
	ldr	r5, [sp, #56]
.LBE382:
	.loc 1 214 12 view .LVU295
	sub	r3, fp, #20
.LBB383:
	.loc 1 225 4 view .LVU296
	mov	r8, r1
.LBE383:
	.loc 1 214 12 view .LVU297
	str	r3, [sp, #24]
.LBB384:
	.loc 1 217 4 is_stmt 1 view .LVU298
	.loc 1 218 4 view .LVU299
	.loc 1 218 28 is_stmt 0 view .LVU300
	strb	r1, [r4, #40]
	.loc 1 220 4 is_stmt 1 view .LVU301
	add	r3, r9, r2
	.loc 1 225 4 is_stmt 0 view .LVU302
	ldr	r0, .L192+4
	str	r3, [sp, #80]
	.loc 1 220 16 view .LVU303
	str	r1, [r7, #12]
	.loc 1 221 4 is_stmt 1 view .LVU304
	.loc 1 221 21 is_stmt 0 view .LVU305
	str	r1, [r7, #16]
	.loc 1 223 4 is_stmt 1 view .LVU306
.LVL66:
	.loc 1 225 4 view .LVU307
	bl	memset
.LVL67:
	.loc 1 226 4 view .LVU308
.LBB196:
	.loc 1 226 9 view .LVU309
	.loc 1 226 22 view .LVU310
	str	r4, [sp, #92]
	mov	r4, r5
.LBE196:
	.loc 1 223 13 is_stmt 0 view .LVU311
	str	r8, [sp, #20]
	str	r8, [sp, #16]
.LVL68:
.L95:
.LBB246:
.LBB197:
	.loc 1 227 5 is_stmt 1 view .LVU312
	.loc 1 227 15 is_stmt 0 view .LVU313
	ldr	r3, [sp, #16]
.LBB198:
	.loc 1 228 14 view .LVU314
	mov	r10, #0
.LBE198:
	.loc 1 227 15 view .LVU315
	subs	r3, r3, #0
	movne	r3, #1
	str	r3, [sp, #32]
.LVL69:
	.loc 1 228 5 is_stmt 1 view .LVU316
.LBB245:
	.loc 1 228 10 view .LVU317
	.loc 1 228 23 view .LVU318
.LBB199:
	.loc 1 231 12 is_stmt 0 view .LVU319
	mov	r3, #4
	str	r3, [sp, #40]
	ldr	r3, [sp, #80]
	str	r8, [sp, #60]
	add	r3, r3, #28
	add	r3, r3, r4
	str	r3, [sp, #44]
	ldr	r3, .L192+4
	str	r4, [sp, #64]
	add	lr, r3, r8
	.loc 1 229 6 is_stmt 1 view .LVU320
.LVL70:
	.loc 1 230 6 view .LVU321
	mov	ip, lr
.LVL71:
.L83:
	.loc 1 234 6 view .LVU322
.LBB200:
	.loc 1 234 11 view .LVU323
	.loc 1 234 24 view .LVU324
	ldr	r3, [sp, #44]
	.loc 1 234 15 is_stmt 0 view .LVU325
	mov	r4, #0
.LBB201:
	.loc 1 237 13 view .LVU326
	mov	r6, #2
	add	r5, r3, r10
	.loc 1 235 7 is_stmt 1 view .LVU327
.LVL72:
	.loc 1 236 7 view .LVU328
	str	ip, [sp, #28]
	b	.L84
.LVL73:
.L178:
.LBB202:
.LBI202:
	.loc 1 92 21 view .LVU329
.LBB203:
	.loc 1 93 2 view .LVU330
	.loc 1 94 8 is_stmt 0 view .LVU331
	add	r1, r1, #1
	add	r3, r10, r3, lsl #4
	add	r2, r4, r2, lsl #4
	lsl	r1, r1, #4
	bl	World_GetBlock
.LVL74:
.LBE203:
.LBE202:
	.loc 1 243 21 view .LVU332
	mov	ip, #16
.LBB208:
.LBB204:
	.loc 1 94 8 view .LVU333
	mov	r6, r0
.LVL75:
	.loc 1 94 8 view .LVU334
.LBE204:
.LBE208:
	.loc 1 244 22 view .LVU335
	ldr	r0, [r7, #20]
.LVL76:
	.loc 1 244 7 is_stmt 1 view .LVU336
.LBB209:
.LBI209:
	.loc 1 97 23 view .LVU337
.LBB210:
	.loc 1 98 2 view .LVU338
.L141:
	.loc 1 99 91 is_stmt 0 view .LVU339
	ldr	r3, [r9, #20]
	.loc 1 99 68 view .LVU340
	ldr	r2, [fp, #-20]
	.loc 1 99 43 view .LVU341
	ldr	r1, [r9, #16]
	.loc 1 99 8 view .LVU342
	add	r3, r10, r3, lsl #4
	add	r1, ip, r1, lsl #4
	add	r2, r4, r2, lsl #4
	bl	World_GetMetadata
.LVL77:
	.loc 1 99 8 view .LVU343
	mov	r1, r0
.LVL78:
	.loc 1 99 8 view .LVU344
.LBE210:
.LBE209:
	.loc 1 245 7 is_stmt 1 view .LVU345
	.loc 1 245 12 is_stmt 0 view .LVU346
	mov	r0, r6
	bl	Block_Opaque
.LVL79:
	.loc 1 245 10 view .LVU347
	subs	r6, r0, #0
.LVL80:
	.loc 1 245 10 view .LVU348
	bne	.L88
	.loc 1 245 62 discriminator 1 view .LVU349
	ldrb	r8, [r8]	@ zero_extendqisi2
	.loc 1 245 38 discriminator 1 view .LVU350
	cmp	r8, #0
	bne	.L176
.L88:
.LBE201:
	.loc 1 234 33 is_stmt 1 discriminator 2 view .LVU351
	add	r4, r4, #1
.LVL81:
	.loc 1 234 24 discriminator 2 view .LVU352
	cmp	r4, #16
	add	r5, r5, #16
	beq	.L89
.L179:
.LBB241:
	.loc 1 235 7 view .LVU353
.LVL82:
	.loc 1 236 7 view .LVU354
	.loc 1 238 12 view .LVU355
	.loc 1 235 17 is_stmt 0 view .LVU356
	cmp	r4, #15
	moveq	r6, #3
	movne	r6, #6
.LVL83:
.L84:
	.loc 1 241 7 is_stmt 1 view .LVU357
	.loc 1 241 12 is_stmt 0 view .LVU358
	ldrb	r1, [r5]	@ zero_extendqisi2
	sub	r8, r5, #4096
	ldrb	r0, [r8]	@ zero_extendqisi2
	and	r1, r1, #15
	bl	Block_Opaque
.LVL84:
	.loc 1 241 10 view .LVU359
	cmp	r0, #0
	beq	.L177
.LVL85:
.L85:
	.loc 1 243 7 is_stmt 1 view .LVU360
	.loc 1 243 77 is_stmt 0 view .LVU361
	ldr	r3, [sp, #16]
	.loc 1 243 21 view .LVU362
	ldr	r0, [r7, #20]
	.loc 1 243 77 view .LVU363
	cmp	r3, #0
.LBB212:
.LBB205:
	.loc 1 94 36 view .LVU364
	ldr	r1, [r9, #16]
	.loc 1 94 61 view .LVU365
	ldr	r2, [fp, #-20]
	.loc 1 94 84 view .LVU366
	ldr	r3, [r9, #20]
.LBE205:
.LBE212:
	.loc 1 243 77 view .LVU367
	bne	.L178
.LBB213:
.LBB206:
	.loc 1 94 40 view .LVU368
	lsl	r1, r1, #4
	.loc 1 94 8 view .LVU369
	add	r3, r10, r3, lsl #4
	add	r2, r4, r2, lsl #4
	sub	r1, r1, #1
	bl	World_GetBlock
.LVL86:
.LBE206:
.LBE213:
	.loc 1 243 21 view .LVU370
	mvn	ip, #0
.LBB214:
.LBB207:
	.loc 1 94 8 view .LVU371
	mov	r6, r0
.LVL87:
	.loc 1 94 8 view .LVU372
.LBE207:
.LBE214:
	.loc 1 244 22 view .LVU373
	ldr	r0, [r7, #20]
.LVL88:
	.loc 1 244 7 is_stmt 1 view .LVU374
.LBB215:
	.loc 1 97 23 view .LVU375
.LBB211:
	.loc 1 98 2 view .LVU376
	b	.L141
.LVL89:
.L177:
	.loc 1 98 2 is_stmt 0 view .LVU377
.LBE211:
.LBE215:
	.loc 1 242 8 is_stmt 1 view .LVU378
.LBB216:
.LBI216:
	.loc 1 170 17 view .LVU379
.LBB217:
	.loc 1 172 2 view .LVU380
	.loc 1 172 5 is_stmt 0 view .LVU381
	ldr	r3, [sp, #28]
	ldrb	r3, [r3, r4, lsl #4]	@ zero_extendqisi2
	tst	r3, #1
	bne	.L85
	ldr	r3, [sp, #40]
	mov	r2, r4
	str	r3, [sp, #8]
	ldr	r3, [sp, #32]
	ldr	r1, [sp, #16]
	str	r3, [sp]
	ldr	r0, [sp, #24]
	mov	r3, r10
	str	r6, [sp, #4]
	bl	floodFill.part.0
.LVL90:
	.loc 1 172 5 view .LVU382
.LBE217:
.LBE216:
	.loc 1 242 19 view .LVU383
	ldr	r3, [sp, #20]
	orr	r0, r0, r3
	uxth	r3, r0
	str	r3, [sp, #20]
.LVL91:
	.loc 1 242 19 view .LVU384
	b	.L85
.LVL92:
.L176:
	.loc 1 246 8 is_stmt 1 view .LVU385
	ldrb	r1, [r5]	@ zero_extendqisi2
	.loc 1 249 13 is_stmt 0 view .LVU386
	mov	r0, r8
	.loc 1 246 8 view .LVU387
	and	r1, r1, #15
	.loc 1 249 13 view .LVU388
	str	r1, [sp, #36]
	bl	Block_Opaque
.LVL93:
.LBB218:
.LBB219:
.LBB220:
.LBB221:
	.loc 1 165 25 view .LVU389
	ldr	r2, [r7, #12]
	.loc 1 165 29 view .LVU390
	ldr	r3, .L192+8
	ldr	r1, [sp, #16]
	.loc 1 166 20 view .LVU391
	ldr	ip, [r7, #16]
	.loc 1 165 29 view .LVU392
	strb	r1, [r3, r2, lsl #3]
.LBE221:
.LBE220:
.LBE219:
.LBE218:
	.loc 1 249 12 view .LVU393
	eor	r0, r0, #1
.LBB237:
.LBB232:
.LBB227:
.LBB222:
	.loc 1 165 29 view .LVU394
	add	r3, r3, r2, lsl #3
	.loc 1 165 25 view .LVU395
	add	r2, r2, #1
.LBE222:
.LBE227:
.LBE232:
.LBE237:
	.loc 1 249 12 view .LVU396
	uxtb	r0, r0
.LBB238:
.LBB233:
.LBB228:
.LBB223:
	.loc 1 165 29 view .LVU397
	ldr	r1, [sp, #36]
	.loc 1 165 25 view .LVU398
	str	r2, [r7, #12]
	.loc 1 165 29 view .LVU399
	strb	r4, [r3, #1]
	ldr	r2, [sp, #32]
.LBE223:
.LBE228:
.LBE233:
.LBE238:
.LBE241:
	.loc 1 234 33 view .LVU400
	add	r4, r4, #1
.LBB242:
.LBB239:
.LBB234:
.LBB229:
.LBB224:
	.loc 1 166 20 view .LVU401
	add	ip, ip, r0
.LBE224:
.LBE229:
.LBE234:
.LBE239:
.LBE242:
	.loc 1 234 24 view .LVU402
	cmp	r4, #16
.LBB243:
.LBB240:
.LBB235:
.LBB230:
.LBB225:
	.loc 1 165 29 view .LVU403
	strb	r8, [r3, #4]
	strb	r6, [r3, #5]
.LVL94:
	.loc 1 165 29 view .LVU404
.LBE225:
.LBE230:
.LBE235:
.LBI218:
	.loc 1 163 20 is_stmt 1 view .LVU405
	.loc 1 164 2 view .LVU406
.LBB236:
.LBI219:
	.loc 1 163 20 view .LVU407
.LBB231:
.LBB226:
	.loc 1 165 3 view .LVU408
	.loc 1 165 29 is_stmt 0 view .LVU409
	strb	r1, [r3, #6]
	strb	r10, [r3, #2]
	strb	r2, [r3, #3]
	strb	r0, [r3, #7]
	.loc 1 166 3 is_stmt 1 view .LVU410
	.loc 1 166 20 is_stmt 0 view .LVU411
	str	ip, [r7, #16]
.LVL95:
	.loc 1 166 20 view .LVU412
.LBE226:
.LBE231:
.LBE236:
.LBE240:
.LBE243:
	.loc 1 234 33 is_stmt 1 view .LVU413
	.loc 1 234 24 view .LVU414
	add	r5, r5, #16
	bne	.L179
.L89:
	.loc 1 234 24 is_stmt 0 view .LVU415
.LBE200:
.LBE199:
	.loc 1 228 32 discriminator 2 view .LVU416
	ldr	ip, [sp, #28]
	.loc 1 228 32 is_stmt 1 discriminator 2 view .LVU417
	add	r10, r10, #1
.LVL96:
	.loc 1 228 23 discriminator 2 view .LVU418
	cmp	r10, #16
	add	ip, ip, #1
	beq	.L92
.LBB244:
	.loc 1 229 6 view .LVU419
.LVL97:
	.loc 1 230 6 view .LVU420
	.loc 1 232 11 view .LVU421
	.loc 1 229 16 is_stmt 0 view .LVU422
	cmp	r10, #15
	moveq	r3, #5
	movne	r3, #6
	str	r3, [sp, #40]
	b	.L83
.LVL98:
.L92:
	.loc 1 229 16 view .LVU423
.LBE244:
.LBE245:
.LBE197:
	.loc 1 226 22 discriminator 2 view .LVU424
	ldr	r3, [sp, #16]
	ldr	r8, [sp, #60]
	ldr	r4, [sp, #64]
.LVL99:
	.loc 1 226 32 is_stmt 1 discriminator 2 view .LVU425
	.loc 1 226 22 discriminator 2 view .LVU426
	cmp	r3, #15
	add	r8, r8, #3840
	add	r4, r4, #3840
	.loc 1 226 32 is_stmt 0 view .LVU427
	movne	r3, #15
.LVL100:
	.loc 1 226 32 view .LVU428
	strne	r3, [sp, #16]
.LVL101:
	.loc 1 226 32 view .LVU429
	bne	.L95
.LVL102:
.L180:
	.loc 1 226 32 view .LVU430
.LBE246:
.LBB247:
.LBB248:
	ldr	r10, [sp, #52]
.LVL103:
	.loc 1 255 44 view .LVU431
	mov	r3, #2
.LVL104:
	.loc 1 255 44 view .LVU432
	mov	r5, r10
.LBE248:
	.loc 1 254 13 view .LVU433
	mov	fp, #0
.LBB291:
	ldr	r4, [sp, #92]
.LVL105:
	.loc 1 255 5 is_stmt 1 view .LVU434
	.loc 1 255 44 is_stmt 0 view .LVU435
	str	r3, [sp, #28]
	str	r4, [sp, #64]
.LVL106:
.L109:
	.loc 1 256 5 is_stmt 1 discriminator 4 view .LVU436
.LBB249:
	.loc 1 256 10 discriminator 4 view .LVU437
	.loc 1 256 23 discriminator 4 view .LVU438
	.loc 1 256 14 is_stmt 0 discriminator 4 view .LVU439
	mov	r8, #0
.LBB250:
	.loc 1 259 12 discriminator 4 view .LVU440
	mov	lr, r5
	ldr	r2, .L192+4
	str	r8, [sp, #40]
	add	ip, r2, fp, lsl #4
	.loc 1 257 6 is_stmt 1 discriminator 4 view .LVU441
.LVL107:
	.loc 1 258 6 discriminator 4 view .LVU442
	.loc 1 259 12 is_stmt 0 discriminator 4 view .LVU443
	str	r5, [sp, #60]
.LVL108:
.L96:
	.loc 1 262 6 is_stmt 1 view .LVU444
.LBB251:
	.loc 1 262 11 view .LVU445
	.loc 1 262 24 view .LVU446
.LBB252:
	.loc 1 263 7 view .LVU447
	.loc 1 264 7 view .LVU448
	mov	r5, lr
.LBE252:
	.loc 1 262 15 is_stmt 0 view .LVU449
	mov	r4, #0
.LBB286:
	.loc 1 265 13 view .LVU450
	mov	r6, #5
	str	lr, [sp, #44]
	str	ip, [sp, #16]
	b	.L97
.LVL109:
.L168:
.LBB253:
.LBI253:
	.loc 1 92 21 is_stmt 1 view .LVU451
.LBB254:
	.loc 1 93 2 view .LVU452
	.loc 1 94 8 is_stmt 0 view .LVU453
	ldr	r2, [r10, #-20]
	.loc 1 94 88 view .LVU454
	ldr	r3, [r9, #20]
	.loc 1 94 40 view .LVU455
	ldr	r1, [r9, #16]
	.loc 1 94 8 view .LVU456
	add	r2, r2, #1
	add	r1, r8, r1, lsl #4
	lsl	r2, r2, #4
	add	r3, r4, r3, lsl #4
	bl	World_GetBlock
.LVL110:
.LBE254:
.LBE253:
	.loc 1 270 21 view .LVU457
	mov	r1, #16
.LBB258:
.LBB255:
	.loc 1 94 8 view .LVU458
	mov	r6, r0
.LVL111:
	.loc 1 94 8 view .LVU459
.LBE255:
.LBE258:
	.loc 1 271 22 view .LVU460
	ldr	r0, [r7, #20]
.LVL112:
	.loc 1 271 7 is_stmt 1 view .LVU461
.LBB259:
.LBI259:
	.loc 1 97 23 view .LVU462
.LBB260:
	.loc 1 98 2 view .LVU463
.L140:
	.loc 1 99 68 is_stmt 0 view .LVU464
	ldr	r2, [r10, #-20]
	.loc 1 99 91 view .LVU465
	ldr	r3, [r9, #20]
	.loc 1 99 8 view .LVU466
	add	r2, r1, r2, lsl #4
	.loc 1 99 43 view .LVU467
	ldr	r1, [r9, #16]
	.loc 1 99 8 view .LVU468
	add	r3, r4, r3, lsl #4
	add	r1, r8, r1, lsl #4
	bl	World_GetMetadata
.LVL113:
	.loc 1 99 8 view .LVU469
	mov	r1, r0
.LVL114:
	.loc 1 99 8 view .LVU470
.LBE260:
.LBE259:
	.loc 1 272 7 is_stmt 1 view .LVU471
	.loc 1 272 12 is_stmt 0 view .LVU472
	mov	r0, r6
	bl	Block_Opaque
.LVL115:
	.loc 1 272 10 view .LVU473
	subs	r6, r0, #0
.LVL116:
	.loc 1 272 10 view .LVU474
	bne	.L102
	.loc 1 272 62 discriminator 1 view .LVU475
	ldrb	r3, [r5, #-16]	@ zero_extendqisi2
	.loc 1 272 38 discriminator 1 view .LVU476
	cmp	r3, #0
	bne	.L181
.L102:
.LBE286:
	.loc 1 262 33 is_stmt 1 discriminator 2 view .LVU477
	add	r4, r4, #1
.LVL117:
	.loc 1 262 24 discriminator 2 view .LVU478
	cmp	r4, #16
	add	r5, r5, #1
	beq	.L103
.L183:
.LBB287:
	.loc 1 263 7 view .LVU479
.LVL118:
	.loc 1 264 7 view .LVU480
	.loc 1 266 12 view .LVU481
	.loc 1 263 17 is_stmt 0 view .LVU482
	cmp	r4, #15
	moveq	r6, #4
	movne	r6, #6
.LVL119:
.L97:
	.loc 1 268 7 is_stmt 1 view .LVU483
	.loc 1 268 12 is_stmt 0 view .LVU484
	ldrb	r1, [r5, #4080]	@ zero_extendqisi2
	ldrb	r0, [r5, #-16]	@ zero_extendqisi2
	and	r1, r1, #15
	bl	Block_Opaque
.LVL120:
	.loc 1 268 10 view .LVU485
	cmp	r0, #0
	beq	.L182
.LVL121:
.L98:
	.loc 1 270 7 is_stmt 1 view .LVU486
	.loc 1 270 80 is_stmt 0 view .LVU487
	cmp	fp, #0
	.loc 1 270 21 view .LVU488
	ldr	r0, [r7, #20]
	.loc 1 270 80 view .LVU489
	bne	.L168
.LBB262:
.LBB256:
	.loc 1 94 65 view .LVU490
	ldr	r2, [r10, #-20]
	.loc 1 94 88 view .LVU491
	ldr	r3, [r9, #20]
	.loc 1 94 40 view .LVU492
	ldr	r1, [r9, #16]
	.loc 1 94 65 view .LVU493
	lsl	r2, r2, #4
	.loc 1 94 8 view .LVU494
	add	r1, r8, r1, lsl #4
	sub	r2, r2, #1
	add	r3, r4, r3, lsl #4
	bl	World_GetBlock
.LVL122:
.LBE256:
.LBE262:
	.loc 1 271 22 view .LVU495
	mvn	r1, #0
.LBB263:
.LBB257:
	.loc 1 94 8 view .LVU496
	mov	r6, r0
.LVL123:
	.loc 1 94 8 view .LVU497
.LBE257:
.LBE263:
	.loc 1 271 22 view .LVU498
	ldr	r0, [r7, #20]
.LVL124:
	.loc 1 271 7 is_stmt 1 view .LVU499
.LBB264:
	.loc 1 97 23 view .LVU500
.LBB261:
	.loc 1 98 2 view .LVU501
	b	.L140
.LVL125:
.L182:
	.loc 1 98 2 is_stmt 0 view .LVU502
.LBE261:
.LBE264:
	.loc 1 269 8 is_stmt 1 view .LVU503
.LBB265:
.LBI265:
	.loc 1 170 17 view .LVU504
.LBB266:
	.loc 1 172 2 view .LVU505
	.loc 1 172 5 is_stmt 0 view .LVU506
	ldr	r3, [sp, #16]
	ldrb	r3, [r3, r4]	@ zero_extendqisi2
	tst	r3, #1
	bne	.L98
	ldr	r3, [sp, #28]
	mov	r2, fp
	str	r3, [sp, #4]
	ldr	r3, [sp, #40]
	mov	r1, r8
	str	r3, [sp]
	ldr	r0, [sp, #24]
	mov	r3, r4
	str	r6, [sp, #8]
	bl	floodFill.part.0
.LVL126:
	.loc 1 172 5 view .LVU507
.LBE266:
.LBE265:
	.loc 1 269 19 view .LVU508
	ldr	r3, [sp, #20]
	orr	r0, r3, r0
	uxth	r3, r0
	str	r3, [sp, #20]
.LVL127:
	.loc 1 269 19 view .LVU509
	b	.L98
.LVL128:
.L181:
	.loc 1 273 8 is_stmt 1 view .LVU510
	ldrb	r1, [r5, #4080]	@ zero_extendqisi2
	.loc 1 276 13 is_stmt 0 view .LVU511
	mov	r0, r3
	.loc 1 273 8 view .LVU512
	and	r1, r1, #15
	.loc 1 276 13 view .LVU513
	str	r1, [sp, #36]
	str	r3, [sp, #32]
	bl	Block_Opaque
.LVL129:
.LBB267:
.LBB268:
.LBB269:
.LBB270:
	.loc 1 165 25 view .LVU514
	ldr	ip, [r7, #12]
	.loc 1 165 29 view .LVU515
	ldr	r3, .L192+8
	.loc 1 166 20 view .LVU516
	ldr	lr, [r7, #16]
	.loc 1 165 29 view .LVU517
	add	r2, r3, ip, lsl #3
	strb	r8, [r3, ip, lsl #3]
	ldr	r3, [sp, #32]
.LBE270:
.LBE269:
.LBE268:
.LBE267:
	.loc 1 276 12 view .LVU518
	eor	r0, r0, #1
	uxtb	r0, r0
.LBB283:
.LBB279:
.LBB275:
.LBB271:
	.loc 1 165 29 view .LVU519
	ldr	r1, [sp, #36]
	strb	r3, [r2, #4]
	strb	r4, [r2, #2]
	ldr	r3, [sp, #28]
.LBE271:
.LBE275:
.LBE279:
.LBE283:
.LBE287:
	.loc 1 262 33 view .LVU520
	add	r4, r4, #1
.LBB288:
.LBB284:
.LBB280:
.LBB276:
.LBB272:
	.loc 1 165 25 view .LVU521
	add	ip, ip, #1
	.loc 1 166 20 view .LVU522
	add	lr, lr, r0
.LBE272:
.LBE276:
.LBE280:
.LBE284:
.LBE288:
	.loc 1 262 24 view .LVU523
	cmp	r4, #16
.LBB289:
.LBB285:
.LBB281:
.LBB277:
.LBB273:
	.loc 1 165 29 view .LVU524
	strb	r6, [r2, #5]
.LVL130:
	.loc 1 165 29 view .LVU525
.LBE273:
.LBE277:
.LBE281:
.LBI267:
	.loc 1 163 20 is_stmt 1 view .LVU526
	.loc 1 164 2 view .LVU527
.LBB282:
.LBI268:
	.loc 1 163 20 view .LVU528
.LBB278:
.LBB274:
	.loc 1 165 3 view .LVU529
	.loc 1 165 29 is_stmt 0 view .LVU530
	strb	r1, [r2, #6]
	.loc 1 165 25 view .LVU531
	str	ip, [r7, #12]
	.loc 1 165 29 view .LVU532
	strb	fp, [r2, #1]
	strb	r3, [r2, #3]
	strb	r0, [r2, #7]
	.loc 1 166 3 is_stmt 1 view .LVU533
	.loc 1 166 20 is_stmt 0 view .LVU534
	str	lr, [r7, #16]
.LVL131:
	.loc 1 166 20 view .LVU535
.LBE274:
.LBE278:
.LBE282:
.LBE285:
.LBE289:
	.loc 1 262 33 is_stmt 1 view .LVU536
	.loc 1 262 24 view .LVU537
	add	r5, r5, #1
	bne	.L183
.L103:
	.loc 1 262 24 is_stmt 0 view .LVU538
.LBE251:
.LBE250:
	.loc 1 256 32 discriminator 2 view .LVU539
	ldr	lr, [sp, #44]
	ldr	ip, [sp, #16]
	.loc 1 256 32 is_stmt 1 discriminator 2 view .LVU540
	add	r8, r8, #1
.LVL132:
	.loc 1 256 23 discriminator 2 view .LVU541
	cmp	r8, #16
	add	ip, ip, #256
	add	lr, lr, #256
	beq	.L106
.LBB290:
	.loc 1 257 6 view .LVU542
.LVL133:
	.loc 1 258 6 view .LVU543
	.loc 1 260 11 view .LVU544
	.loc 1 257 16 is_stmt 0 view .LVU545
	cmp	r8, #15
	moveq	r3, #1
	movne	r3, #6
	str	r3, [sp, #40]
	b	.L96
.LVL134:
.L106:
	.loc 1 257 16 view .LVU546
.LBE290:
.LBE249:
	.loc 1 255 44 discriminator 2 view .LVU547
	mov	r3, #3
.LBE291:
	.loc 1 254 22 discriminator 2 view .LVU548
	ldr	r5, [sp, #60]
	.loc 1 254 32 is_stmt 1 discriminator 2 view .LVU549
.LVL135:
	.loc 1 254 22 discriminator 2 view .LVU550
	cmp	fp, #15
	add	r5, r5, #240
.LBB292:
	.loc 1 255 44 is_stmt 0 discriminator 2 view .LVU551
	str	r3, [sp, #28]
.LVL136:
	.loc 1 255 44 discriminator 2 view .LVU552
.LBE292:
	.loc 1 254 22 discriminator 2 view .LVU553
	movne	fp, #15
.LVL137:
	.loc 1 254 22 discriminator 2 view .LVU554
	bne	.L109
.LVL138:
.L184:
	.loc 1 254 22 discriminator 2 view .LVU555
.LBE247:
.LBB293:
	.loc 1 281 13 view .LVU556
	mov	fp, #0
.LVL139:
.LBB294:
	.loc 1 282 43 view .LVU557
	mov	r3, #4
	mov	ip, fp
	ldr	r10, [sp, #52]
	str	r3, [sp, #32]
	add	r5, r10, #4080
	str	r5, [sp, #60]
.LVL140:
.L123:
	.loc 1 283 5 is_stmt 1 discriminator 4 view .LVU558
.LBB295:
	.loc 1 283 10 discriminator 4 view .LVU559
	.loc 1 283 23 discriminator 4 view .LVU560
	ldr	r3, [sp, #60]
	.loc 1 283 14 is_stmt 0 discriminator 4 view .LVU561
	mov	fp, #0
	add	r8, r3, ip
	ldr	r3, .L192+4
.LBB296:
	.loc 1 286 12 discriminator 4 view .LVU562
	str	fp, [sp, #44]
	add	r3, r3, ip
	str	r3, [sp, #28]
	.loc 1 284 6 is_stmt 1 discriminator 4 view .LVU563
.LVL141:
	.loc 1 285 6 discriminator 4 view .LVU564
	.loc 1 286 12 is_stmt 0 discriminator 4 view .LVU565
	mov	r3, r8
	mov	r8, fp
	mov	fp, r3
	str	ip, [sp, #16]
.LVL142:
.L110:
	.loc 1 289 6 is_stmt 1 view .LVU566
.LBB297:
	.loc 1 289 11 view .LVU567
	.loc 1 289 24 view .LVU568
	sub	r6, fp, #4096
	.loc 1 289 15 is_stmt 0 view .LVU569
	mov	r4, #0
.LBB298:
	.loc 1 292 13 view .LVU570
	mov	r5, #2
	sub	r6, r6, #28
	.loc 1 290 7 is_stmt 1 view .LVU571
.LVL143:
	.loc 1 291 7 view .LVU572
	b	.L111
.LVL144:
.L169:
.LBB299:
.LBI299:
	.loc 1 92 21 view .LVU573
.LBB300:
	.loc 1 93 2 view .LVU574
	.loc 1 94 8 is_stmt 0 view .LVU575
	ldr	r3, [r9, #20]
	.loc 1 94 65 view .LVU576
	ldr	r2, [r10, #-20]
	.loc 1 94 40 view .LVU577
	ldr	r1, [r9, #16]
	.loc 1 94 8 view .LVU578
	add	r3, r3, #1
	add	r2, r4, r2, lsl #4
	lsl	r3, r3, #4
	add	r1, r8, r1, lsl #4
	bl	World_GetBlock
.LVL145:
.LBE300:
.LBE299:
	.loc 1 297 21 view .LVU579
	mov	r2, #16
.LBB304:
.LBB301:
	.loc 1 94 8 view .LVU580
	mov	r5, r0
.LVL146:
	.loc 1 94 8 view .LVU581
.LBE301:
.LBE304:
	.loc 1 298 22 view .LVU582
	ldr	r0, [r7, #20]
.LVL147:
	.loc 1 298 7 is_stmt 1 view .LVU583
.LBB305:
.LBI305:
	.loc 1 97 23 view .LVU584
.LBB306:
	.loc 1 98 2 view .LVU585
.L139:
	.loc 1 99 91 is_stmt 0 view .LVU586
	ldr	r3, [r9, #20]
	.loc 1 99 43 view .LVU587
	ldr	r1, [r9, #16]
	.loc 1 99 8 view .LVU588
	add	r3, r2, r3, lsl #4
	.loc 1 99 68 view .LVU589
	ldr	r2, [r10, #-20]
	.loc 1 99 8 view .LVU590
	add	r1, r8, r1, lsl #4
	add	r2, r4, r2, lsl #4
	bl	World_GetMetadata
.LVL148:
	.loc 1 99 8 view .LVU591
.LBE306:
.LBE305:
	.loc 1 299 7 is_stmt 1 view .LVU592
	.loc 1 299 12 is_stmt 0 view .LVU593
	ldrb	r1, [fp, r4, lsl #4]	@ zero_extendqisi2
	mov	r0, r5
	and	r1, r1, #15
	bl	Block_Opaque
.LVL149:
	.loc 1 299 10 view .LVU594
	subs	r5, r0, #0
.LVL150:
	.loc 1 299 10 view .LVU595
	bne	.L116
	.loc 1 300 32 discriminator 1 view .LVU596
	ldrb	r3, [r6, #28]	@ zero_extendqisi2
	.loc 1 299 71 discriminator 1 view .LVU597
	cmp	r3, #0
	bne	.L185
.L116:
.LBE298:
	.loc 1 289 33 is_stmt 1 discriminator 2 view .LVU598
	add	r4, r4, #1
.LVL151:
	.loc 1 289 24 discriminator 2 view .LVU599
	cmp	r4, #16
	add	r6, r6, #16
	beq	.L117
.L187:
.LBB336:
	.loc 1 290 7 view .LVU600
.LVL152:
	.loc 1 291 7 view .LVU601
	.loc 1 293 12 view .LVU602
	.loc 1 290 17 is_stmt 0 view .LVU603
	cmp	r4, #15
	moveq	r5, #3
	movne	r5, #6
.LVL153:
.L111:
	.loc 1 295 7 is_stmt 1 view .LVU604
	.loc 1 295 12 is_stmt 0 view .LVU605
	ldrb	r1, [fp, r4, lsl #4]	@ zero_extendqisi2
	ldrb	r0, [r6, #28]	@ zero_extendqisi2
	and	r1, r1, #15
	bl	Block_Opaque
.LVL154:
	.loc 1 295 10 view .LVU606
	cmp	r0, #0
	beq	.L186
.LVL155:
.L112:
	.loc 1 297 7 is_stmt 1 view .LVU607
	.loc 1 297 83 is_stmt 0 view .LVU608
	ldr	r3, [sp, #16]
	.loc 1 297 21 view .LVU609
	ldr	r0, [r7, #20]
	.loc 1 297 83 view .LVU610
	cmp	r3, #0
	bne	.L169
.LBB308:
.LBB302:
	.loc 1 94 88 view .LVU611
	ldr	r3, [r9, #20]
	.loc 1 94 65 view .LVU612
	ldr	r2, [r10, #-20]
	.loc 1 94 40 view .LVU613
	ldr	r1, [r9, #16]
	.loc 1 94 88 view .LVU614
	lsl	r3, r3, #4
	.loc 1 94 8 view .LVU615
	add	r2, r4, r2, lsl #4
	sub	r3, r3, #1
	add	r1, r8, r1, lsl #4
	bl	World_GetBlock
.LVL156:
.LBE302:
.LBE308:
	.loc 1 297 21 view .LVU616
	mvn	r2, #0
.LBB309:
.LBB303:
	.loc 1 94 8 view .LVU617
	mov	r5, r0
.LVL157:
	.loc 1 94 8 view .LVU618
.LBE303:
.LBE309:
	.loc 1 298 22 view .LVU619
	ldr	r0, [r7, #20]
.LVL158:
	.loc 1 298 7 is_stmt 1 view .LVU620
.LBB310:
	.loc 1 97 23 view .LVU621
.LBB307:
	.loc 1 98 2 view .LVU622
	b	.L139
.LVL159:
.L186:
	.loc 1 98 2 is_stmt 0 view .LVU623
.LBE307:
.LBE310:
	.loc 1 296 8 is_stmt 1 view .LVU624
.LBB311:
.LBI311:
	.loc 1 170 17 view .LVU625
.LBB312:
	.loc 1 172 2 view .LVU626
	.loc 1 172 5 is_stmt 0 view .LVU627
	ldr	r3, [sp, #28]
	ldrb	r3, [r3, r4, lsl #4]	@ zero_extendqisi2
	tst	r3, #1
	bne	.L112
	ldr	r3, [sp, #32]
	mov	r2, r4
	str	r3, [sp, #8]
	ldr	r3, [sp, #44]
	mov	r1, r8
	str	r3, [sp]
	ldr	r0, [sp, #24]
	ldr	r3, [sp, #16]
	str	r5, [sp, #4]
	bl	floodFill.part.0
.LVL160:
	.loc 1 172 5 view .LVU628
.LBE312:
.LBE311:
	.loc 1 296 19 view .LVU629
	ldr	r3, [sp, #20]
	orr	r0, r3, r0
	uxth	r3, r0
	str	r3, [sp, #20]
.LVL161:
	.loc 1 296 19 view .LVU630
	b	.L112
.LVL162:
.L185:
	.loc 1 301 8 is_stmt 1 view .LVU631
	ldrb	r1, [fp, r4, lsl #4]	@ zero_extendqisi2
	.loc 1 304 13 is_stmt 0 view .LVU632
	mov	r0, r3
	.loc 1 301 8 view .LVU633
	and	r1, r1, #15
	.loc 1 304 13 view .LVU634
	str	r1, [sp, #40]
	str	r3, [sp, #36]
	bl	Block_Opaque
.LVL163:
.LBB313:
.LBB314:
.LBB315:
.LBB316:
	.loc 1 165 25 view .LVU635
	ldr	ip, [r7, #12]
	.loc 1 165 29 view .LVU636
	ldr	r3, .L192+8
	.loc 1 166 20 view .LVU637
	ldr	lr, [r7, #16]
	.loc 1 165 29 view .LVU638
	add	r2, r3, ip, lsl #3
	strb	r8, [r3, ip, lsl #3]
	ldr	r3, [sp, #36]
.LBE316:
.LBE315:
.LBE314:
.LBE313:
	.loc 1 304 12 view .LVU639
	eor	r0, r0, #1
.LBB332:
.LBB327:
.LBB322:
.LBB317:
	.loc 1 165 29 view .LVU640
	strb	r3, [r2, #4]
	ldr	r3, [sp, #16]
.LBE317:
.LBE322:
.LBE327:
.LBE332:
	.loc 1 304 12 view .LVU641
	uxtb	r0, r0
.LBB333:
.LBB328:
.LBB323:
.LBB318:
	.loc 1 165 29 view .LVU642
	ldr	r1, [sp, #40]
	strb	r4, [r2, #1]
	strb	r3, [r2, #2]
.LBE318:
.LBE323:
.LBE328:
.LBE333:
.LBE336:
	.loc 1 289 33 view .LVU643
	add	r4, r4, #1
.LBB337:
.LBB334:
.LBB329:
.LBB324:
.LBB319:
	.loc 1 165 29 view .LVU644
	ldr	r3, [sp, #32]
	.loc 1 165 25 view .LVU645
	add	ip, ip, #1
	.loc 1 166 20 view .LVU646
	add	lr, lr, r0
.LBE319:
.LBE324:
.LBE329:
.LBE334:
.LBE337:
	.loc 1 289 24 view .LVU647
	cmp	r4, #16
.LBB338:
.LBB335:
.LBB330:
.LBB325:
.LBB320:
	.loc 1 165 29 view .LVU648
	strb	r5, [r2, #5]
.LVL164:
	.loc 1 165 29 view .LVU649
.LBE320:
.LBE325:
.LBE330:
.LBI313:
	.loc 1 163 20 is_stmt 1 view .LVU650
	.loc 1 164 2 view .LVU651
.LBB331:
.LBI314:
	.loc 1 163 20 view .LVU652
.LBB326:
.LBB321:
	.loc 1 165 3 view .LVU653
	.loc 1 165 29 is_stmt 0 view .LVU654
	strb	r1, [r2, #6]
	.loc 1 165 25 view .LVU655
	str	ip, [r7, #12]
	.loc 1 165 29 view .LVU656
	strb	r3, [r2, #3]
	strb	r0, [r2, #7]
	.loc 1 166 3 is_stmt 1 view .LVU657
	.loc 1 166 20 is_stmt 0 view .LVU658
	str	lr, [r7, #16]
.LVL165:
	.loc 1 166 20 view .LVU659
.LBE321:
.LBE326:
.LBE331:
.LBE335:
.LBE338:
	.loc 1 289 33 is_stmt 1 view .LVU660
	.loc 1 289 24 view .LVU661
	add	r6, r6, #16
	bne	.L187
.L117:
	.loc 1 289 24 is_stmt 0 view .LVU662
.LBE297:
.LBE296:
	.loc 1 283 32 is_stmt 1 discriminator 2 view .LVU663
	.loc 1 283 23 is_stmt 0 discriminator 2 view .LVU664
	ldr	r3, [sp, #28]
	.loc 1 283 32 discriminator 2 view .LVU665
	add	r8, r8, #1
.LVL166:
	.loc 1 283 23 is_stmt 1 discriminator 2 view .LVU666
	add	r3, r3, #256
	cmp	r8, #16
	add	fp, fp, #256
	str	r3, [sp, #28]
	beq	.L120
.LBB339:
	.loc 1 284 6 view .LVU667
.LVL167:
	.loc 1 285 6 view .LVU668
	.loc 1 287 11 view .LVU669
	.loc 1 284 16 is_stmt 0 view .LVU670
	cmp	r8, #15
	moveq	r3, #1
	movne	r3, #6
	str	r3, [sp, #44]
	b	.L110
.LVL168:
.L120:
	.loc 1 284 16 view .LVU671
.LBE339:
.LBE295:
	.loc 1 282 43 discriminator 2 view .LVU672
	mov	r3, #5
.LBE294:
	.loc 1 281 22 discriminator 2 view .LVU673
	ldr	ip, [sp, #16]
	.loc 1 281 32 is_stmt 1 discriminator 2 view .LVU674
.LVL169:
	.loc 1 281 22 discriminator 2 view .LVU675
.LBB340:
	.loc 1 282 43 is_stmt 0 discriminator 2 view .LVU676
	str	r3, [sp, #32]
.LVL170:
	.loc 1 282 43 discriminator 2 view .LVU677
.LBE340:
	.loc 1 281 22 discriminator 2 view .LVU678
	cmp	ip, #15
	movne	ip, #15
.LVL171:
	.loc 1 281 22 discriminator 2 view .LVU679
	bne	.L123
.LVL172:
.L188:
	.loc 1 281 22 discriminator 2 view .LVU680
.LBE293:
	.loc 1 309 4 is_stmt 1 view .LVU681
	.loc 1 309 29 is_stmt 0 view .LVU682
	ldr	r0, [r7, #24]
	.loc 1 312 7 view .LVU683
	ldr	ip, [r9, #16]
.LVL173:
	.loc 1 309 13 view .LVU684
	vldr.32	s14, [r0]
.LVL174:
.LBB341:
.LBI341:
	.file 3 "/Users/blackout/Desktop/Craftus-Rehabilitated/include/misc/NumberUtils.h"
	.loc 3 26 19 is_stmt 1 view .LVU685
.LBB342:
	.loc 3 26 40 view .LVU686
	.loc 3 26 47 is_stmt 0 view .LVU687
	vcvt.s32.f32	s15, s14
	.loc 3 26 58 view .LVU688
	vcvt.f32.s32	s13, s15
	vcmpe.f32	s14, s13
	vmrs	APSR_nzcv, FPSCR
	.loc 3 26 56 view .LVU689
	vmov	r2, s15	@ int
	.loc 3 26 58 view .LVU690
	movmi	r3, #1
	movpl	r3, #0
	.loc 3 26 56 view .LVU691
	sub	r1, r2, r3
.LVL175:
	.loc 3 26 56 view .LVU692
.LBE342:
.LBE341:
	.loc 1 310 4 is_stmt 1 view .LVU693
.LBB343:
.LBI343:
	.loc 3 26 19 view .LVU694
.LBB344:
	.loc 3 26 40 view .LVU695
	.loc 3 26 40 is_stmt 0 view .LVU696
.LBE344:
.LBE343:
	.loc 1 311 4 is_stmt 1 view .LVU697
.LBB346:
.LBI346:
	.loc 3 26 19 view .LVU698
.LBB347:
	.loc 3 26 40 view .LVU699
	.loc 3 26 40 is_stmt 0 view .LVU700
.LBE347:
.LBE346:
	.loc 1 312 4 is_stmt 1 view .LVU701
.LBB349:
.LBI349:
	.file 4 "/Users/blackout/Desktop/Craftus-Rehabilitated/include/world/World.h"
	.loc 4 52 19 view .LVU702
.LBB350:
	.loc 4 52 46 view .LVU703
	.loc 4 52 56 is_stmt 0 view .LVU704
	add	r2, r1, r1, lsr #31
	.loc 4 52 72 view .LVU705
	cmp	r2, #0
	add	r3, r2, #15
	movge	r3, r2
	asr	r3, r3, #4
	.loc 4 52 79 view .LVU706
	sub	r3, r3, r1, lsr #31
.LVL176:
	.loc 4 52 79 view .LVU707
.LBE350:
.LBE349:
	.loc 1 312 7 view .LVU708
	cmp	ip, r3
	.loc 1 309 29 view .LVU709
	ldr	r4, [sp, #64]
.LVL177:
	.loc 1 312 7 view .LVU710
	beq	.L189
.LVL178:
.L124:
	.loc 1 318 4 is_stmt 1 view .LVU711
	.loc 1 319 37 is_stmt 0 view .LVU712
	ldr	r3, [r7, #12]
	.loc 1 318 47 view .LVU713
	ldr	r2, [r7, #16]
	.loc 1 322 7 view .LVU714
	cmp	r3, #0
	.loc 1 319 37 view .LVU715
	add	r3, r3, r3, lsl #1
	.loc 1 318 8 view .LVU716
	add	r1, r2, r2, lsl #1
	.loc 1 319 37 view .LVU717
	lsl	r3, r3, #1
	.loc 1 319 8 view .LVU718
	sub	r3, r3, r1, lsl #1
	str	r3, [sp, #80]
	.loc 1 318 8 view .LVU719
	lsl	r6, r1, #1
.LVL179:
	.loc 1 319 4 is_stmt 1 view .LVU720
	.loc 1 320 4 view .LVU721
	.loc 1 322 4 view .LVU722
	.loc 1 322 7 is_stmt 0 view .LVU723
	bne	.L190
.LVL180:
.L125:
	.loc 1 370 4 is_stmt 1 view .LVU724
	.loc 1 378 4 is_stmt 0 view .LVU725
	ldr	r0, .L192+12
	.loc 1 370 25 view .LVU726
	ldr	r5, [r9, #16]
.LVL181:
	.loc 1 371 4 is_stmt 1 view .LVU727
	.loc 1 372 4 view .LVU728
	.loc 1 372 25 is_stmt 0 view .LVU729
	ldr	fp, [r9, #20]
.LVL182:
	.loc 1 373 4 is_stmt 1 view .LVU730
	.loc 1 374 4 view .LVU731
	.loc 1 375 4 view .LVU732
	.loc 1 376 4 view .LVU733
	.loc 1 378 4 view .LVU734
	bl	LightLock_Lock
.LVL183:
	.loc 1 379 4 view .LVU735
	.loc 1 379 6 is_stmt 0 view .LVU736
	ldr	r2, .L192+16
	mov	r3, #40
	ldr	r1, [sp, #84]
	sub	r0, r2, #8
	bl	vec_expand_
.LVL184:
	.loc 1 379 133 view .LVU737
	cmp	r0, #0
	bne	.L137
	.loc 1 379 181 discriminator 1 view .LVU738
	ldr	r3, [sp, #20]
	.loc 1 379 149 discriminator 1 view .LVU739
	ldr	ip, [r7, #32]
	.loc 1 379 181 discriminator 1 view .LVU740
	strh	r3, [sp, #182]	@ movhi
	ldr	r3, [sp, #80]
	str	r6, [sp, #176]
	str	r3, [sp, #172]
	ldr	r3, [sp, #76]
	strb	r0, [sp, #180]
	str	r3, [sp, #148]
	ldr	r3, [sp, #72]
	str	r5, [sp, #160]
	str	r3, [sp, #156]
	ldr	r3, [sp, #48]
	str	fp, [sp, #168]
	str	r3, [sp, #164]
	.loc 1 379 169 discriminator 1 view .LVU741
	ldr	r3, [r7, #36]
	.loc 1 379 181 discriminator 1 view .LVU742
	add	lr, sp, #144
	add	r2, r3, r3, lsl #2
	add	ip, ip, r2, lsl #3
	.loc 1 379 177 discriminator 1 view .LVU743
	add	r3, r3, #1
	str	r3, [r7, #36]
	.loc 1 379 181 discriminator 1 view .LVU744
	ldmia	lr!, {r0, r1, r2, r3}
	stmia	ip!, {r0, r1, r2, r3}
	ldmia	lr!, {r0, r1, r2, r3}
	stmia	ip!, {r0, r1, r2, r3}
	ldm	lr, {r0, r1}
	stm	ip, {r0, r1}
.LVL185:
.L137:
	.loc 1 380 4 is_stmt 1 view .LVU745
	ldr	r0, .L192+12
	bl	LightLock_Unlock
.LVL186:
	.loc 1 380 4 is_stmt 0 view .LVU746
	b	.L82
.LVL187:
.L189:
	.loc 1 311 13 view .LVU747
	vldr.32	s14, [r0, #8]
.LBB351:
.LBB348:
	.loc 3 26 47 view .LVU748
	vcvt.s32.f32	s15, s14
	.loc 3 26 58 view .LVU749
	vcvt.f32.s32	s13, s15
	vcmpe.f32	s14, s13
	vmrs	APSR_nzcv, FPSCR
	.loc 3 26 56 view .LVU750
	vmov	r2, s15	@ int
	.loc 3 26 58 view .LVU751
	movmi	r3, #1
	movpl	r3, #0
	.loc 3 26 56 view .LVU752
	sub	r3, r2, r3
.LVL188:
	.loc 3 26 56 view .LVU753
.LBE348:
.LBE351:
.LBB352:
.LBI352:
	.loc 4 52 19 is_stmt 1 view .LVU754
.LBB353:
	.loc 4 52 46 view .LVU755
	.loc 4 52 56 is_stmt 0 view .LVU756
	add	lr, r3, r3, lsr #31
	.loc 4 52 72 view .LVU757
	cmp	lr, #0
	add	r2, lr, #15
	movge	r2, lr
.LBE353:
.LBE352:
	.loc 1 312 47 view .LVU758
	ldr	r5, [r9, #20]
.LBB355:
.LBB354:
	.loc 4 52 72 view .LVU759
	asr	r2, r2, #4
	.loc 4 52 79 view .LVU760
	sub	r2, r2, r3, lsr #31
.LVL189:
	.loc 4 52 79 view .LVU761
.LBE354:
.LBE355:
	.loc 1 312 47 view .LVU762
	cmp	r5, r2
	bne	.L124
	.loc 1 310 13 view .LVU763
	vldr.32	s14, [r0, #4]
.LBB356:
.LBB345:
	.loc 3 26 47 view .LVU764
	vcvt.s32.f32	s15, s14
	.loc 3 26 58 view .LVU765
	vcvt.f32.s32	s13, s15
	vcmpe.f32	s14, s13
	vmrs	APSR_nzcv, FPSCR
	.loc 3 26 56 view .LVU766
	vmov	r0, s15	@ int
.LVL190:
	.loc 3 26 58 view .LVU767
	movmi	r2, #1
	movpl	r2, #0
	.loc 3 26 56 view .LVU768
	sub	r2, r0, r2
.LVL191:
	.loc 3 26 56 view .LVU769
.LBE345:
.LBE356:
.LBB357:
.LBI357:
	.loc 4 52 19 is_stmt 1 view .LVU770
.LBB358:
	.loc 4 52 46 view .LVU771
	.loc 4 52 56 is_stmt 0 view .LVU772
	add	lr, r2, r2, lsr #31
	.loc 4 52 72 view .LVU773
	cmp	lr, #0
	add	r0, lr, #15
	movge	r0, lr
.LBE358:
.LBE357:
	.loc 1 312 89 view .LVU774
	ldr	lr, [sp, #48]
.LBB360:
.LBB359:
	.loc 4 52 72 view .LVU775
	asr	r0, r0, #4
	.loc 4 52 79 view .LVU776
	sub	r0, r0, r2, lsr #31
.LBE359:
.LBE360:
	.loc 1 312 89 view .LVU777
	cmp	r0, lr
	bne	.L124
	.loc 1 314 5 is_stmt 1 view .LVU778
.LVL192:
.LBB361:
.LBI361:
	.loc 4 53 19 view .LVU779
.LBB362:
	.loc 4 53 46 view .LVU780
	.loc 4 53 55 is_stmt 0 view .LVU781
	sub	r1, r1, ip, lsl #4
.LVL193:
	.loc 4 53 55 view .LVU782
.LBE362:
.LBE361:
.LBB363:
.LBI363:
	.loc 4 53 19 is_stmt 1 view .LVU783
.LBB364:
	.loc 4 53 46 view .LVU784
	.loc 4 53 55 is_stmt 0 view .LVU785
	sub	r2, r2, lr, lsl #4
.LVL194:
	.loc 4 53 55 view .LVU786
.LBE364:
.LBE363:
.LBB365:
.LBI365:
	.loc 4 53 19 is_stmt 1 view .LVU787
.LBB366:
	.loc 4 53 46 view .LVU788
	.loc 4 53 46 is_stmt 0 view .LVU789
.LBE366:
.LBE365:
.LBB368:
.LBB369:
	.loc 1 172 29 view .LVU790
	ldr	ip, .L192+4
	add	r0, r2, r1, lsl #4
.LBE369:
.LBE368:
.LBB371:
.LBB367:
	.loc 4 53 55 view .LVU791
	sub	r3, r3, r5, lsl #4
.LVL195:
	.loc 4 53 55 view .LVU792
.LBE367:
.LBE371:
.LBB372:
.LBI368:
	.loc 1 170 17 is_stmt 1 view .LVU793
.LBB370:
	.loc 1 172 2 view .LVU794
	.loc 1 172 29 is_stmt 0 view .LVU795
	add	r0, ip, r0, lsl #4
	.loc 1 172 5 view .LVU796
	ldrb	r0, [r0, r3]	@ zero_extendqisi2
	tst	r0, #1
	bne	.L124
	mov	ip, #6
	ldr	r0, [sp, #24]
	str	ip, [sp, #8]
.LVL196:
	.loc 1 172 5 view .LVU797
	str	ip, [sp, #4]
	str	ip, [sp]
	bl	floodFill.part.0
.LVL197:
	.loc 1 172 5 view .LVU798
	b	.L124
.LVL198:
.L190:
	.loc 1 172 5 view .LVU799
.LBE370:
.LBE372:
.LBB373:
	.loc 1 323 5 is_stmt 1 view .LVU800
	.loc 1 324 5 view .LVU801
	.loc 1 324 8 is_stmt 0 view .LVU802
	cmp	r3, #0
	.loc 1 324 39 view .LVU803
	add	r5, sp, #128
	.loc 1 324 8 view .LVU804
	ble	.L126
	.loc 1 324 28 is_stmt 1 discriminator 1 view .LVU805
	.loc 1 324 39 is_stmt 0 discriminator 1 view .LVU806
	ldr	r3, [sp, #80]
	mov	r0, r5
	lsl	r1, r3, #4
	bl	VBO_Alloc
.LVL199:
	.loc 1 324 39 discriminator 1 view .LVU807
	ldr	r3, [sp, #132]
	.loc 1 326 26 discriminator 1 view .LVU808
	ldr	r2, [r7, #16]
	.loc 1 324 39 discriminator 1 view .LVU809
	str	r3, [sp, #76]
.LVL200:
.L126:
	.loc 1 325 5 is_stmt 1 view .LVU810
	.loc 1 326 5 view .LVU811
	.loc 1 326 8 is_stmt 0 view .LVU812
	cmp	r2, #0
	.loc 1 326 48 view .LVU813
	add	r10, sp, #136
	.loc 1 326 8 view .LVU814
	ble	.L127
	.loc 1 326 31 is_stmt 1 discriminator 1 view .LVU815
	.loc 1 326 48 is_stmt 0 discriminator 1 view .LVU816
	mov	r0, r10
	lsl	r1, r6, #4
	bl	VBO_Alloc
.LVL201:
	ldr	r3, [sp, #140]
	str	r3, [sp, #72]
.LVL202:
.L127:
	.loc 1 328 5 is_stmt 1 view .LVU817
	.loc 1 329 5 view .LVU818
	.loc 1 330 5 view .LVU819
.LBB374:
	.loc 1 330 10 view .LVU820
	.loc 1 330 23 view .LVU821
	ldr	r3, [r7, #12]
	cmp	r3, #0
	ble	.L191
.LBE374:
	.loc 1 329 18 is_stmt 0 view .LVU822
	ldr	r3, [sp, #72]
	add	r2, sp, #144
	str	r3, [sp, #24]
	.loc 1 328 18 view .LVU823
	ldr	r3, [sp, #76]
	ldr	r8, .L192+8
.LVL203:
	.loc 1 328 18 view .LVU824
	str	r3, [sp, #16]
.LVL204:
.LBB379:
	.loc 1 330 14 view .LVU825
	mov	r3, #0
	str	r3, [sp, #28]
.LBB375:
	.loc 1 335 31 view .LVU826
	ldr	r3, [sp, #48]
.LBB376:
	.loc 1 353 68 view .LVU827
	ldr	fp, .L192+20
.LBE376:
	.loc 1 335 31 view .LVU828
	lsl	r3, r3, #4
	str	r3, [sp, #64]
	str	r4, [sp, #92]
	str	r6, [sp, #96]
	str	r5, [sp, #100]
	str	r10, [sp, #104]
	str	r2, [sp, #60]
.LVL205:
.L135:
	.loc 1 331 6 is_stmt 1 view .LVU829
	.loc 1 331 11 is_stmt 0 view .LVU830
	ldrb	r3, [r8, #7]	@ zero_extendqisi2
	.loc 1 340 61 view .LVU831
	ldr	r2, [sp, #16]
	cmp	r3, #0
	ldr	r6, [sp, #24]
	moveq	r6, r2
	.loc 1 331 11 view .LVU832
	str	r3, [sp, #44]
	.loc 1 333 43 view .LVU833
	ldr	r2, [r9, #16]
	.loc 1 333 24 view .LVU834
	ldrsb	r3, [r8]
	.loc 1 331 11 view .LVU835
	ldrb	r5, [r8, #3]	@ zero_extendqisi2
.LVL206:
	.loc 1 333 10 view .LVU836
	add	r3, r3, r2, lsl #4
	str	r3, [sp, #32]
	.loc 1 334 43 view .LVU837
	ldr	r2, [r9, #20]
	.loc 1 334 24 view .LVU838
	ldrsb	r3, [r8, #2]
	.loc 1 331 11 view .LVU839
	ldrb	r10, [r8, #6]	@ zero_extendqisi2
	.loc 1 335 10 view .LVU840
	ldr	r1, [sp, #64]
	.loc 1 335 24 view .LVU841
	ldrsb	r4, [r8, #1]
	.loc 1 331 11 view .LVU842
	ldrb	r0, [r8, #4]	@ zero_extendqisi2
.LVL207:
	.loc 1 333 6 is_stmt 1 view .LVU843
	.loc 1 334 6 view .LVU844
	.loc 1 335 6 view .LVU845
	.loc 1 334 10 is_stmt 0 view .LVU846
	add	r2, r3, r2, lsl #4
	str	r2, [sp, #36]
.LVL208:
	.loc 1 338 6 view .LVU847
	ldr	r3, [sp, #60]
	mov	r2, r10
	.loc 1 335 10 view .LVU848
	add	r4, r4, r1
.LVL209:
	.loc 1 337 6 is_stmt 1 view .LVU849
	.loc 1 338 6 view .LVU850
	mov	r1, r5
	str	r0, [sp, #40]
	bl	Block_GetTexture
.LVL210:
	.loc 1 340 6 view .LVU851
	.loc 1 341 6 view .LVU852
	ldr	ip, .L192+24
	.loc 1 341 50 is_stmt 0 view .LVU853
	add	r1, r5, r5, lsl #1
	.loc 1 341 6 view .LVU854
	add	r1, ip, r1, lsl #5
	mov	r2, #96
	mov	r0, r6
	bl	memcpy
.LVL211:
	.loc 1 346 6 is_stmt 1 view .LVU855
	.loc 1 347 6 view .LVU856
	mov	r2, r5
	mov	r1, r10
	add	r3, sp, #124
	ldr	r0, [sp, #40]
	bl	Block_GetColor
.LVL212:
	.loc 1 349 6 view .LVU857
.LBB377:
	.loc 1 349 11 view .LVU858
	.loc 1 349 24 view .LVU859
	mov	r3, r6
	.loc 1 352 22 is_stmt 0 view .LVU860
	ldrh	r10, [sp, #36]
.LVL213:
	.loc 1 350 22 view .LVU861
	ldrh	r6, [sp, #32]
.LVL214:
	.loc 1 353 76 view .LVU862
	ldrh	r5, [sp, #144]
.LVL215:
	.loc 1 354 76 view .LVU863
	ldrh	lr, [sp, #146]
	.loc 1 351 22 view .LVU864
	uxth	r4, r4
.LVL216:
	.loc 1 351 22 view .LVU865
	add	ip, r3, #96
.LVL217:
.L132:
	.loc 1 350 7 is_stmt 1 view .LVU866
	.loc 1 353 68 is_stmt 0 view .LVU867
	ldrsh	r2, [r3, #6]
	.loc 1 350 22 view .LVU868
	ldrh	r0, [r3]
	.loc 1 353 68 view .LVU869
	cmp	r2, #1
	.loc 1 354 68 view .LVU870
	ldrsh	r2, [r3, #8]
	.loc 1 353 68 view .LVU871
	moveq	r1, fp
	movne	r1, #1
	.loc 1 354 68 view .LVU872
	cmp	r2, #1
	moveq	r2, fp
	movne	r2, #1
	.loc 1 350 22 view .LVU873
	add	r0, r6, r0
	strh	r0, [r3]	@ movhi
	.loc 1 351 7 is_stmt 1 view .LVU874
	.loc 1 351 22 is_stmt 0 view .LVU875
	ldrh	r0, [r3, #2]
	.loc 1 354 68 view .LVU876
	add	r2, lr, r2
	.loc 1 351 22 view .LVU877
	add	r0, r4, r0
	strh	r0, [r3, #2]	@ movhi
	.loc 1 352 7 is_stmt 1 view .LVU878
	.loc 1 352 22 is_stmt 0 view .LVU879
	ldrh	r0, [r3, #4]
	.loc 1 353 68 view .LVU880
	add	r1, r5, r1
	.loc 1 352 22 view .LVU881
	add	r0, r10, r0
	strh	r0, [r3, #4]	@ movhi
	.loc 1 353 7 is_stmt 1 view .LVU882
	.loc 1 353 21 is_stmt 0 view .LVU883
	strh	r1, [r3, #6]	@ movhi
	.loc 1 354 7 is_stmt 1 view .LVU884
	.loc 1 354 21 is_stmt 0 view .LVU885
	strh	r2, [r3, #8]	@ movhi
	.loc 1 356 7 is_stmt 1 view .LVU886
	.loc 1 356 29 is_stmt 0 view .LVU887
	ldrh	r2, [sp, #124]
	.loc 1 357 7 is_stmt 1 view .LVU888
	.loc 1 349 24 is_stmt 0 view .LVU889
	add	r3, r3, #16
	.loc 1 356 22 view .LVU890
	strh	r2, [r3, #-6]	@ movhi
	.loc 1 358 7 is_stmt 1 view .LVU891
	.loc 1 358 29 is_stmt 0 view .LVU892
	ldrb	r2, [sp, #126]	@ zero_extendqisi2
	.loc 1 358 22 view .LVU893
	strb	r2, [r3, #-4]
	.loc 1 349 30 is_stmt 1 view .LVU894
	.loc 1 349 24 view .LVU895
	cmp	ip, r3
	bne	.L132
.LBE377:
	.loc 1 360 6 view .LVU896
	.loc 1 360 9 is_stmt 0 view .LVU897
	ldr	r3, [sp, #44]
.LBE375:
	.loc 1 330 23 view .LVU898
	add	r8, r8, #8
.LBB378:
	.loc 1 360 9 view .LVU899
	cmp	r3, #0
	.loc 1 361 7 is_stmt 1 view .LVU900
	.loc 1 361 23 is_stmt 0 view .LVU901
	ldrne	r3, [sp, #24]
	.loc 1 363 18 view .LVU902
	ldreq	r3, [sp, #16]
	.loc 1 361 23 view .LVU903
	addne	r3, r3, #96
	.loc 1 363 18 view .LVU904
	addeq	r3, r3, #96
	.loc 1 361 23 view .LVU905
	strne	r3, [sp, #24]
.LVL218:
	.loc 1 363 7 is_stmt 1 view .LVU906
	.loc 1 363 18 is_stmt 0 view .LVU907
	streq	r3, [sp, #16]
.LVL219:
	.loc 1 363 18 view .LVU908
.LBE378:
	.loc 1 330 39 is_stmt 1 view .LVU909
	ldr	r3, [sp, #28]
	add	r3, r3, #1
	mov	r2, r3
	str	r3, [sp, #28]
.LVL220:
	.loc 1 330 23 view .LVU910
	ldr	r3, [r7, #12]
	cmp	r3, r2
	bgt	.L135
	ldr	r4, [sp, #92]
	ldr	r6, [sp, #96]
	ldr	r5, [sp, #100]
	ldr	r10, [sp, #104]
	ldr	r2, [sp, #60]
.LVL221:
.L136:
	.loc 1 330 23 is_stmt 0 view .LVU911
.LBE379:
	.loc 1 366 5 is_stmt 1 view .LVU912
	.loc 1 366 16 is_stmt 0 view .LVU913
	ldr	r3, [sp, #76]
	str	r3, [sp, #132]
	.loc 1 367 27 view .LVU914
	ldr	r3, [sp, #72]
	.loc 1 366 16 view .LVU915
	ldm	r5, {r0, r1}
	.loc 1 367 27 view .LVU916
	str	r3, [sp, #140]
	add	r3, sp, #152
	.loc 1 366 16 view .LVU917
	stm	r2, {r0, r1}
.LVL222:
	.loc 1 367 5 is_stmt 1 view .LVU918
	.loc 1 367 27 is_stmt 0 view .LVU919
	ldm	r10, {r0, r1}
	stm	r3, {r0, r1}
.LVL223:
	.loc 1 367 27 view .LVU920
	b	.L125
.LVL224:
.L174:
	.loc 1 367 27 view .LVU921
.LBE373:
.LBE384:
.LBE387:
.LBE389:
	.loc 1 384 29 view .LVU922
	mov	r3, #0
	ldr	r4, [sp, #88]
	.loc 1 383 2 is_stmt 1 view .LVU923
	.loc 1 383 30 is_stmt 0 view .LVU924
	ldr	r2, [r4, #668]
	.loc 1 384 29 view .LVU925
	strb	r3, [r4, #676]
	.loc 1 383 30 view .LVU926
	str	r2, [r4, #672]
	.loc 1 384 2 is_stmt 1 view .LVU927
	.loc 1 385 1 is_stmt 0 view .LVU928
	add	sp, sp, #188
	.cfi_remember_state
	.cfi_def_cfa_offset 36
	@ sp needed
	pop	{r4, r5, r6, r7, r8, r9, r10, fp, pc}
.LVL225:
.L191:
	.cfi_restore_state
	.loc 1 385 1 view .LVU929
	add	r2, sp, #144
	b	.L136
.L193:
	.align	2
.L192:
	.word	.LANCHOR0
	.word	floodfill_visited
	.word	faceBuffer
	.word	.LANCHOR0+28
	.word	.LANCHOR0+40
	.word	4095
	.word	.LANCHOR1
	.cfi_endproc
.LFE149:
	.size	PolyGen_GeneratePolygons, .-PolyGen_GeneratePolygons
	.global	cube_sides_lut
	.section	.rodata
	.align	2
	.set	.LANCHOR1,. + 0
	.type	cube_sides_lut, %object
	.size	cube_sides_lut, 576
cube_sides_lut:
	.short	0
	.short	0
	.short	0
	.short	0
	.short	0
	.ascii	"\377\377\377"
	.ascii	"\000\000\000"
	.short	0
	.short	0
	.short	1
	.short	1
	.short	0
	.ascii	"\377\377\377"
	.ascii	"\000\000\000"
	.short	0
	.short	1
	.short	1
	.short	1
	.short	1
	.ascii	"\377\377\377"
	.ascii	"\000\000\000"
	.short	0
	.short	1
	.short	1
	.short	1
	.short	1
	.ascii	"\377\377\377"
	.ascii	"\000\000\000"
	.short	0
	.short	1
	.short	0
	.short	0
	.short	1
	.ascii	"\377\377\377"
	.ascii	"\000\000\000"
	.short	0
	.short	0
	.short	0
	.short	0
	.short	0
	.ascii	"\377\377\377"
	.ascii	"\000\000\000"
	.short	1
	.short	0
	.short	0
	.short	1
	.short	0
	.ascii	"\377\377\377"
	.ascii	"\000\000\000"
	.short	1
	.short	1
	.short	0
	.short	1
	.short	1
	.ascii	"\377\377\377"
	.ascii	"\000\000\000"
	.short	1
	.short	1
	.short	1
	.short	0
	.short	1
	.ascii	"\377\377\377"
	.ascii	"\000\000\000"
	.short	1
	.short	1
	.short	1
	.short	0
	.short	1
	.ascii	"\377\377\377"
	.ascii	"\000\000\000"
	.short	1
	.short	0
	.short	1
	.short	0
	.short	0
	.ascii	"\377\377\377"
	.ascii	"\000\000\000"
	.short	1
	.short	0
	.short	0
	.short	1
	.short	0
	.ascii	"\377\377\377"
	.ascii	"\000\000\000"
	.short	0
	.short	0
	.short	0
	.short	0
	.short	1
	.ascii	"\377\377\377"
	.ascii	"\000\000\000"
	.short	1
	.short	0
	.short	0
	.short	1
	.short	1
	.ascii	"\377\377\377"
	.ascii	"\000\000\000"
	.short	1
	.short	0
	.short	1
	.short	1
	.short	0
	.ascii	"\377\377\377"
	.ascii	"\000\000\000"
	.short	1
	.short	0
	.short	1
	.short	1
	.short	0
	.ascii	"\377\377\377"
	.ascii	"\000\000\000"
	.short	0
	.short	0
	.short	1
	.short	0
	.short	0
	.ascii	"\377\377\377"
	.ascii	"\000\000\000"
	.short	0
	.short	0
	.short	0
	.short	0
	.short	1
	.ascii	"\377\377\377"
	.ascii	"\000\000\000"
	.short	0
	.short	1
	.short	0
	.short	0
	.short	1
	.ascii	"\377\377\377"
	.ascii	"\000\000\000"
	.short	0
	.short	1
	.short	1
	.short	0
	.short	0
	.ascii	"\377\377\377"
	.ascii	"\000\000\000"
	.short	1
	.short	1
	.short	1
	.short	1
	.short	0
	.ascii	"\377\377\377"
	.ascii	"\000\000\000"
	.short	1
	.short	1
	.short	1
	.short	1
	.short	0
	.ascii	"\377\377\377"
	.ascii	"\000\000\000"
	.short	1
	.short	1
	.short	0
	.short	1
	.short	1
	.ascii	"\377\377\377"
	.ascii	"\000\000\000"
	.short	0
	.short	1
	.short	0
	.short	0
	.short	1
	.ascii	"\377\377\377"
	.ascii	"\000\000\000"
	.short	0
	.short	0
	.short	0
	.short	1
	.short	0
	.ascii	"\377\377\377"
	.ascii	"\000\000\000"
	.short	0
	.short	1
	.short	0
	.short	1
	.short	1
	.ascii	"\377\377\377"
	.ascii	"\000\000\000"
	.short	1
	.short	1
	.short	0
	.short	0
	.short	1
	.ascii	"\377\377\377"
	.ascii	"\000\000\000"
	.short	1
	.short	1
	.short	0
	.short	0
	.short	1
	.ascii	"\377\377\377"
	.ascii	"\000\000\000"
	.short	1
	.short	0
	.short	0
	.short	0
	.short	0
	.ascii	"\377\377\377"
	.ascii	"\000\000\000"
	.short	0
	.short	0
	.short	0
	.short	1
	.short	0
	.ascii	"\377\377\377"
	.ascii	"\000\000\000"
	.short	0
	.short	0
	.short	1
	.short	0
	.short	0
	.ascii	"\377\377\377"
	.ascii	"\000\000\000"
	.short	1
	.short	0
	.short	1
	.short	1
	.short	0
	.ascii	"\377\377\377"
	.ascii	"\000\000\000"
	.short	1
	.short	1
	.short	1
	.short	1
	.short	1
	.ascii	"\377\377\377"
	.ascii	"\000\000\000"
	.short	1
	.short	1
	.short	1
	.short	1
	.short	1
	.ascii	"\377\377\377"
	.ascii	"\000\000\000"
	.short	0
	.short	1
	.short	1
	.short	0
	.short	1
	.ascii	"\377\377\377"
	.ascii	"\000\000\000"
	.short	0
	.short	0
	.short	1
	.short	0
	.short	0
	.ascii	"\377\377\377"
	.ascii	"\000\000\000"
	.bss
	.align	2
	.set	.LANCHOR0,. + 0
	.type	floodfill_queue, %object
	.size	floodfill_queue, 12
floodfill_queue:
	.space	12
	.type	currentFace, %object
	.size	currentFace, 4
currentFace:
	.space	4
	.type	transparentFaces, %object
	.size	transparentFaces, 4
transparentFaces:
	.space	4
	.type	world, %object
	.size	world, 4
world:
	.space	4
	.type	player, %object
	.size	player, 4
player:
	.space	4
	.type	updateLock, %object
	.size	updateLock, 4
updateLock:
	.space	4
	.type	vboUpdates, %object
	.size	vboUpdates, 12
vboUpdates:
	.space	12
	.type	floodfill_visited, %object
	.size	floodfill_visited, 4096
floodfill_visited:
	.space	4096
	.type	faceBuffer, %object
	.size	faceBuffer, 98304
faceBuffer:
	.space	98304
	.text
.Letext0:
	.file 5 "/opt/devkitpro/devkitARM/lib/gcc/arm-none-eabi/12.2.0/include/stddef.h"
	.file 6 "/opt/devkitpro/devkitARM/arm-none-eabi/include/machine/_default_types.h"
	.file 7 "/opt/devkitpro/devkitARM/arm-none-eabi/include/sys/_stdint.h"
	.file 8 "/opt/devkitpro/devkitARM/arm-none-eabi/include/sys/lock.h"
	.file 9 "/Users/blackout/Desktop/Craftus-Rehabilitated/include/world/Direction.h"
	.file 10 "/Users/blackout/Desktop/Craftus-Rehabilitated/include/blocks/Block.h"
	.file 11 "/Users/blackout/Desktop/Craftus-Rehabilitated/include/misc/Xorshift.h"
	.file 12 "/Users/blackout/Desktop/Craftus-Rehabilitated/include/rendering/VBOCache.h"
	.file 13 "/opt/devkitPro//libctru/include/3ds/types.h"
	.file 14 "/opt/devkitPro//libctru/include/3ds/synchronization.h"
	.file 15 "/opt/devkitPro//libctru/include/3ds/services/csnd.h"
	.file 16 "/opt/devkitPro//libctru/include/3ds/services/ndm.h"
	.file 17 "/opt/devkitPro//libctru/include/3ds/gpu/enums.h"
	.file 18 "/opt/devkitPro//libctru/include/3ds/ndsp/channel.h"
	.file 19 "/opt/devkitPro//libctru/include/3ds/applets/error.h"
	.file 20 "/Users/blackout/Desktop/Craftus-Rehabilitated/include/world/WorkQueue.h"
	.file 21 "/Users/blackout/Desktop/Craftus-Rehabilitated/include/inventory/ItemStack.h"
	.file 22 "/Users/blackout/Desktop/Craftus-Rehabilitated/include/misc/VecMath.h"
	.file 23 "/Users/blackout/Desktop/Craftus-Rehabilitated/include/misc/Raycast.h"
	.file 24 "/Users/blackout/Desktop/Craftus-Rehabilitated/include/entity/Player.h"
	.file 25 "/Users/blackout/Desktop/Craftus-Rehabilitated/include/rendering/VertexFmt.h"
	.file 26 "/Users/blackout/Desktop/Craftus-Rehabilitated/dependencies/vec/vec.h"
	.file 27 "/opt/devkitpro/devkitARM/arm-none-eabi/include/string.h"
	.file 28 "/Users/blackout/Desktop/Craftus-Rehabilitated/include/gui/DebugUI.h"
	.file 29 "/opt/devkitpro/devkitARM/arm-none-eabi/include/stdlib.h"
	.file 30 "<built-in>"