	.arch armv6k
	.fpu vfp
	.eabi_attribute 28, 1
	.eabi_attribute 20, 1
	.eabi_attribute 21, 1
	.eabi_attribute 23, 3
	.eabi_attribute 24, 1
	.eabi_attribute 25, 1
	.eabi_attribute 26, 1
	.eabi_attribute 30, 2
	.eabi_attribute 34, 1
	.eabi_attribute 18, 4
	.file	"SmeaGen.c"
	.text
.Ltext0:
	.cfi_sections	.debug_frame
	.file 1 "/Users/blackout/Desktop/Craftus-Rehabilitated/source/world/worldgen/SmeaGen.c"
	.section	.text.SmeaGen_Init,"ax",%progbits
	.align	2
	.global	SmeaGen_Init
	.syntax unified
	.arm
	.type	SmeaGen_Init, %function
SmeaGen_Init:
.LVL0:
.LFB124:
	.loc 1 5 47 view -0
	.cfi_startproc
	@ args = 0, pretend = 0, frame = 0
	@ frame_needed = 0, uses_anonymous_args = 0
	@ link register save eliminated.
	.loc 1 5 49 view .LVU1
	.loc 1 5 60 is_stmt 0 view .LVU2
	str	r1, [r0]
	.loc 1 5 69 view .LVU3
	bx	lr
	.cfi_endproc
.LFE124:
	.size	SmeaGen_Init, .-SmeaGen_Init
	.section	.text.SmeaGen_Generate,"ax",%progbits
	.align	2
	.global	SmeaGen_Generate
	.syntax unified
	.arm
	.type	SmeaGen_Generate, %function
SmeaGen_Generate:
.LVL1:
.LFB125:
	.loc 1 8 70 is_stmt 1 view -0
	.cfi_startproc
	@ args = 4, pretend = 0, frame = 16
	@ frame_needed = 0, uses_anonymous_args = 0
	.loc 1 8 70 is_stmt 0 view .LVU5
	push	{r4, r5, r6, r7, r8, r9, r10, fp, lr}
	.cfi_def_cfa_offset 36
	.cfi_offset 4, -36
	.cfi_offset 5, -32
	.cfi_offset 6, -28
	.cfi_offset 7, -24
	.cfi_offset 8, -20
	.cfi_offset 9, -16
	.cfi_offset 10, -12
	.cfi_offset 11, -8
	.cfi_offset 14, -4
	vpush.64	{d8}
	.cfi_def_cfa_offset 44
	.cfi_offset 80, -44
	.cfi_offset 81, -40
.LBB21:
	.loc 1 10 11 view .LVU6
	mov	r10, #0
.LBB22:
.LBB23:
	.loc 1 17 23 view .LVU7
	vldr.32	s16, .L19
	.loc 1 17 93 view .LVU8
	vldr.32	s17, .L19+4
	mov	r4, r2
.LVL2:
	.loc 1 17 93 view .LVU9
.LBE23:
.LBE22:
.LBE21:
	.loc 1 9 2 is_stmt 1 view .LVU10
.LBB105:
.LBB102:
.LBB99:
.LBB24:
.LBB25:
.LBB26:
	.file 2 "/Users/blackout/Desktop/Craftus-Rehabilitated/include/world/Chunk.h"
	.loc 2 112 47 is_stmt 0 view .LVU11
	mov	r7, #1
.LBE26:
.LBE25:
.LBE24:
.LBE99:
.LBE102:
.LBE105:
	.loc 1 8 70 view .LVU12
	sub	sp, sp, #28
	.cfi_def_cfa_offset 72
.LVL3:
	.loc 1 10 2 is_stmt 1 view .LVU13
.LBB106:
	.loc 1 10 7 view .LVU14
	.loc 1 10 20 view .LVU15
.LBE106:
	.loc 1 8 70 is_stmt 0 view .LVU16
	add	r0, sp, #12
.LVL4:
	.loc 1 8 70 view .LVU17
	stm	r0, {r1, r2, r3}
	add	r8, r2, #65536
.LVL5:
.L4:
.LBB107:
.LBB103:
	.loc 1 11 21 is_stmt 1 view .LVU18
	.loc 1 11 12 is_stmt 0 view .LVU19
	mov	r5, #0
	lsl	r6, r10, #4
.LVL6:
.L12:
.LBB100:
	.loc 1 12 4 is_stmt 1 view .LVU20
	.loc 1 13 4 view .LVU21
	.loc 1 15 4 view .LVU22
	.loc 1 16 4 view .LVU23
	.loc 1 17 4 view .LVU24
	.loc 1 13 41 is_stmt 0 view .LVU25
	ldr	r2, [r4, #20]
	.loc 1 12 41 view .LVU26
	ldr	r3, [r4, #16]
	.loc 1 13 25 view .LVU27
	add	r2, r5, r2, lsl #4
	.loc 1 13 10 view .LVU28
	vmov	s15, r2	@ int
	.loc 1 12 25 view .LVU29
	add	r3, r10, r3, lsl #4
	.loc 1 13 10 view .LVU30
	vcvt.f32.s32	s1, s15
	.loc 1 12 10 view .LVU31
	vmov	s15, r3	@ int
	vcvt.f32.s32	s0, s15
	.loc 1 17 23 view .LVU32
	vmul.f32	s1, s1, s16
	vmul.f32	s0, s0, s16
	bl	sino_2d
.LVL7:
	.loc 1 17 93 view .LVU33
	vmul.f32	s0, s0, s17
	.loc 1 17 17 view .LVU34
	vcvt.s32.f32	s15, s0
	vmov	ip, s15	@ int
.LBB49:
	.loc 1 20 31 view .LVU35
	add	r1, ip, #37
	.loc 1 20 22 view .LVU36
	cmp	r1, #0
	ldrle	r0, [r8, #668]
.LBE49:
	.loc 1 17 8 view .LVU37
	add	r9, ip, #40
.LVL8:
	.loc 1 20 4 is_stmt 1 view .LVU38
.LBB50:
	.loc 1 20 9 view .LVU39
	.loc 1 20 22 view .LVU40
	ble	.L6
	.loc 1 20 13 is_stmt 0 view .LVU41
	mov	r2, #0
	ldr	r0, [r8, #668]
.LVL9:
.L7:
	.loc 1 21 5 is_stmt 1 view .LVU42
.LBB45:
.LBI25:
	.loc 2 110 13 view .LVU43
.LBB41:
	.loc 2 111 2 view .LVU44
	.loc 2 111 40 is_stmt 0 view .LVU45
	asr	r3, r2, #4
.LVL10:
	.loc 2 112 2 is_stmt 1 view .LVU46
	.loc 2 112 47 is_stmt 0 view .LVU47
	add	lr, r3, r3, lsl #8
	add	r3, r3, lr, lsl #1
.LVL11:
	.loc 2 112 23 view .LVU48
	and	fp, r2, #15
.LBB27:
.LBB28:
	.loc 2 101 8 view .LVU49
	lsl	lr, r3, #4
.LBE28:
.LBE27:
	.loc 2 112 47 view .LVU50
	add	r3, r6, r3
	add	r3, r3, fp
.LBB35:
.LBB29:
	.loc 2 101 8 view .LVU51
	add	fp, r6, fp
	add	fp, lr, fp, lsl #4
.LBE29:
.LBE35:
	.loc 2 112 47 view .LVU52
	add	r3, r4, r3, lsl #4
.LBB36:
.LBB30:
	.loc 2 101 8 view .LVU53
	add	fp, r4, fp
.LBE30:
.LBE36:
	.loc 2 112 47 view .LVU54
	add	r3, r3, r5
	strb	r7, [r3, #28]
	.loc 2 113 2 is_stmt 1 view .LVU55
.LVL12:
.LBB37:
.LBI27:
	.loc 2 97 13 view .LVU56
.LBB31:
	.loc 2 98 2 view .LVU57
	.loc 2 99 2 view .LVU58
	.loc 2 100 2 view .LVU59
	.loc 2 101 2 view .LVU60
	.loc 2 101 8 is_stmt 0 view .LVU61
	add	r3, fp, r5
	add	r3, r3, #4096
	ldrb	fp, [r3, #28]	@ zero_extendqisi2
	.loc 2 102 2 view .LVU62
	add	lr, r4, lr
	.loc 2 101 8 view .LVU63
	bic	fp, fp, #15
	.loc 2 102 2 view .LVU64
	add	lr, lr, #8192
	.loc 2 101 8 view .LVU65
	strb	fp, [r3, #28]
	.loc 2 102 2 is_stmt 1 view .LVU66
	ldr	r3, [lr, #28]
.LBE31:
.LBE37:
.LBE41:
.LBE45:
	.loc 1 20 37 is_stmt 0 view .LVU67
	add	r2, r2, #1
.LVL13:
.LBB46:
.LBB42:
.LBB38:
.LBB32:
	.loc 2 102 2 view .LVU68
	add	r3, r3, #1
.LBE32:
.LBE38:
.LBE42:
.LBE46:
	.loc 1 20 22 view .LVU69
	cmp	r2, r1
.LBB47:
.LBB43:
.LBB39:
.LBB33:
	.loc 2 102 2 view .LVU70
	str	r3, [lr, #28]
	.loc 2 103 2 is_stmt 1 view .LVU71
.LVL14:
	.loc 2 103 2 is_stmt 0 view .LVU72
.LBE33:
.LBE39:
.LBE43:
.LBE47:
	.loc 1 20 37 is_stmt 1 view .LVU73
	.loc 1 20 22 view .LVU74
	bne	.L7
.LBB48:
.LBB44:
.LBB40:
.LBB34:
	.loc 2 103 2 is_stmt 0 view .LVU75
	add	r0, r0, #37
	add	r0, r0, ip
.LVL15:
.L6:
	.loc 2 103 2 view .LVU76
.LBE34:
.LBE40:
.LBE44:
.LBE48:
.LBE50:
.LBB51:
	.loc 1 23 31 is_stmt 1 view .LVU77
.LBB52:
.LBB53:
	.loc 2 112 47 is_stmt 0 view .LVU78
	mov	lr, #2
.L8:
	.loc 2 112 47 view .LVU79
.LBE53:
.LBE52:
	.loc 1 24 5 is_stmt 1 view .LVU80
.LVL16:
.LBB71:
.LBI52:
	.loc 2 110 13 view .LVU81
.LBB68:
	.loc 2 111 2 view .LVU82
	.loc 2 111 40 is_stmt 0 view .LVU83
	cmp	r1, #0
	add	r3, r1, #15
	movge	r3, r1
	.loc 2 112 23 view .LVU84
	rsbs	r2, r1, #0
	.loc 2 111 40 view .LVU85
	asr	r3, r3, #4
.LVL17:
	.loc 2 112 2 is_stmt 1 view .LVU86
	.loc 2 112 23 is_stmt 0 view .LVU87
	and	r2, r2, #15
	.loc 2 112 47 view .LVU88
	add	fp, r3, r3, lsl #8
	.loc 2 112 23 view .LVU89
	and	ip, r1, #15
	.loc 2 112 47 view .LVU90
	add	r3, r3, fp, lsl #1
.LVL18:
	.loc 2 112 23 view .LVU91
	rsbpl	ip, r2, #0
.LBB54:
.LBB55:
	.loc 2 101 8 view .LVU92
	lsl	fp, r3, #4
	add	r2, r6, ip
.LBE55:
.LBE54:
	.loc 2 112 47 view .LVU93
	add	r3, r6, r3
.LBB62:
.LBB56:
	.loc 2 101 8 view .LVU94
	add	r2, fp, r2, lsl #4
.LBE56:
.LBE62:
	.loc 2 112 47 view .LVU95
	add	r3, r3, ip
	add	r3, r4, r3, lsl #4
.LBB63:
.LBB57:
	.loc 2 101 8 view .LVU96
	add	r2, r4, r2
.LBE57:
.LBE63:
	.loc 2 112 47 view .LVU97
	add	r3, r3, r5
.LBB64:
.LBB58:
	.loc 2 101 8 view .LVU98
	add	r2, r2, r5
.LBE58:
.LBE64:
	.loc 2 112 47 view .LVU99
	strb	lr, [r3, #28]
	.loc 2 113 2 is_stmt 1 view .LVU100
.LVL19:
.LBB65:
.LBI54:
	.loc 2 97 13 view .LVU101
.LBB59:
	.loc 2 98 2 view .LVU102
	.loc 2 99 2 view .LVU103
	.loc 2 100 2 view .LVU104
	.loc 2 101 2 view .LVU105
	.loc 2 101 8 is_stmt 0 view .LVU106
	add	r2, r2, #4096
	ldrb	r3, [r2, #28]	@ zero_extendqisi2
	.loc 2 102 2 view .LVU107
	add	fp, r4, fp
	.loc 2 101 8 view .LVU108
	bic	r3, r3, #15
	.loc 2 102 2 view .LVU109
	add	fp, fp, #8192
	.loc 2 101 8 view .LVU110
	strb	r3, [r2, #28]
	.loc 2 102 2 is_stmt 1 view .LVU111
	ldr	r3, [fp, #28]
.LBE59:
.LBE65:
.LBE68:
.LBE71:
	.loc 1 23 42 is_stmt 0 view .LVU112
	add	r1, r1, #1
.LVL20:
.LBB72:
.LBB69:
.LBB66:
.LBB60:
	.loc 2 102 2 view .LVU113
	add	r3, r3, #1
.LBE60:
.LBE66:
.LBE69:
.LBE72:
	.loc 1 23 31 view .LVU114
	cmp	r9, r1
.LBB73:
.LBB70:
.LBB67:
.LBB61:
	.loc 2 102 2 view .LVU115
	str	r3, [fp, #28]
	.loc 2 103 2 is_stmt 1 view .LVU116
.LVL21:
	.loc 2 103 2 is_stmt 0 view .LVU117
.LBE61:
.LBE67:
.LBE70:
.LBE73:
	.loc 1 23 42 is_stmt 1 view .LVU118
	.loc 1 23 31 view .LVU119
	bne	.L8
.LBE51:
	.loc 1 26 4 view .LVU120
.LVL22:
.LBB74:
.LBI74:
	.loc 2 110 13 view .LVU121
.LBB75:
	.loc 2 111 2 view .LVU122
	.loc 2 111 40 is_stmt 0 view .LVU123
	cmp	r9, #0
	add	r3, r9, #15
	movge	r3, r9
	.loc 2 112 47 view .LVU124
	mov	fp, #3
	.loc 2 111 40 view .LVU125
	asr	r3, r3, #4
.LVL23:
	.loc 2 112 2 is_stmt 1 view .LVU126
	.loc 2 112 23 is_stmt 0 view .LVU127
	rsbs	r1, r9, #0
.LVL24:
	.loc 2 112 47 view .LVU128
	add	lr, r3, r3, lsl #8
	.loc 2 112 23 view .LVU129
	and	r1, r1, #15
	.loc 2 112 47 view .LVU130
	add	r3, r3, lr, lsl #1
.LVL25:
	.loc 2 112 23 view .LVU131
	and	r2, r9, #15
.LBB76:
.LBB77:
	.loc 2 101 8 view .LVU132
	lsl	lr, r3, #4
.LBE77:
.LBE76:
	.loc 2 112 23 view .LVU133
	rsbpl	r2, r1, #0
	.loc 2 112 47 view .LVU134
	add	r3, r6, r3
.LBB84:
.LBB78:
	.loc 2 103 2 view .LVU135
	add	ip, r0, #4
.LBE78:
.LBE84:
	.loc 2 112 47 view .LVU136
	add	r3, r3, r2
.LBB85:
.LBB79:
	.loc 2 101 8 view .LVU137
	add	r0, r6, r2
	add	r0, lr, r0, lsl #4
.LBE79:
.LBE85:
	.loc 2 112 47 view .LVU138
	add	r3, r4, r3, lsl #4
.LBB86:
.LBB80:
	.loc 2 101 8 view .LVU139
	add	r0, r4, r0
.LBE80:
.LBE86:
	.loc 2 112 47 view .LVU140
	add	r3, r3, r5
	strb	fp, [r3, #28]
	.loc 2 113 2 is_stmt 1 view .LVU141
.LVL26:
.LBB87:
.LBI76:
	.loc 2 97 13 view .LVU142
.LBB81:
	.loc 2 98 2 view .LVU143
	.loc 2 99 2 view .LVU144
	.loc 2 100 2 view .LVU145
	.loc 2 101 2 view .LVU146
	.loc 2 101 8 is_stmt 0 view .LVU147
	add	r3, r0, r5
	add	r3, r3, #4096
	ldrb	r2, [r3, #28]	@ zero_extendqisi2
.LVL27:
	.loc 2 102 2 view .LVU148
	add	lr, r4, lr
	.loc 2 101 8 view .LVU149
	bic	r2, r2, #15
	strb	r2, [r3, #28]
	.loc 2 102 2 is_stmt 1 view .LVU150
	add	lr, lr, #8192
	ldr	r3, [lr, #28]
.LBE81:
.LBE87:
.LBE75:
.LBE74:
.LBB92:
	.loc 1 27 13 is_stmt 0 view .LVU151
	mov	r1, #13
.LVL28:
	.loc 1 27 13 view .LVU152
.LBE92:
.LBB94:
.LBB90:
.LBB88:
.LBB82:
	.loc 2 102 2 view .LVU153
	add	r3, r3, #1
	str	r3, [lr, #28]
	.loc 2 103 2 is_stmt 1 view .LVU154
.LBE82:
.LBE88:
.LBE90:
.LBE94:
.LBB95:
	.loc 1 27 13 is_stmt 0 view .LVU155
	mov	r0, fp
.LBE95:
.LBB96:
.LBB91:
.LBB89:
.LBB83:
	.loc 2 103 2 view .LVU156
	str	ip, [r8, #668]
.LVL29:
	.loc 2 103 2 view .LVU157
.LBE83:
.LBE89:
.LBE91:
.LBE96:
	.loc 1 27 4 is_stmt 1 view .LVU158
.LBB97:
	.loc 1 27 13 is_stmt 0 view .LVU159
	bl	random_number
.LVL30:
	.loc 1 27 7 view .LVU160
	cmp	r0, r10
	beq	.L18
.L10:
.LBE97:
.LBE100:
	.loc 1 11 30 is_stmt 1 discriminator 2 view .LVU161
	add	r5, r5, #1
.LVL31:
	.loc 1 11 21 discriminator 2 view .LVU162
	cmp	r5, #16
	bne	.L12
.LBE103:
	.loc 1 10 29 discriminator 2 view .LVU163
	add	r10, r10, #1
.LVL32:
	.loc 1 10 20 discriminator 2 view .LVU164
	cmp	r10, #16
	bne	.L4
.LBE107:
	.loc 1 36 1 is_stmt 0 view .LVU165
	add	sp, sp, #28
	.cfi_remember_state
	.cfi_def_cfa_offset 44
	@ sp needed
	vldm	sp!, {d8}
	.cfi_restore 80
	.cfi_restore 81
	.cfi_def_cfa_offset 36
	pop	{r4, r5, r6, r7, r8, r9, r10, fp, pc}
.LVL33:
.L18:
	.cfi_restore_state
.LBB108:
.LBB104:
.LBB101:
.LBB98:
	.loc 1 29 5 is_stmt 1 view .LVU166
	.loc 1 29 14 is_stmt 0 view .LVU167
	mov	r1, #13
	mov	r0, fp
	bl	random_number
.LVL34:
	.loc 1 29 8 view .LVU168
	cmp	r0, r5
	bne	.L10
.LBB93:
	.loc 1 31 6 is_stmt 1 view .LVU169
	.loc 1 31 6 is_stmt 0 view .LVU170
	str	r4, [sp, #16]
	str	r5, [sp, #4]
	str	r9, [sp]
	add	r2, sp, #12
	mov	r3, r10
	ldm	r2, {r0, r1, r2}
	bl	Chunk_MakeTree
.LVL35:
	b	.L10
.L20:
	.align	2
.L19:
	.word	1023410176
	.word	1090519040
.LBE93:
.LBE98:
.LBE101:
.LBE104:
.LBE108:
	.cfi_endproc
.LFE125:
	.size	SmeaGen_Generate, .-SmeaGen_Generate
	.text
.Letext0:
	.file 3 "/opt/devkitpro/devkitARM/arm-none-eabi/include/machine/_default_types.h"
	.file 4 "/opt/devkitpro/devkitARM/arm-none-eabi/include/sys/_stdint.h"
	.file 5 "/Users/blackout/Desktop/Craftus-Rehabilitated/include/blocks/Block.h"
	.file 6 "/Users/blackout/Desktop/Craftus-Rehabilitated/include/misc/Xorshift.h"
	.file 7 "/opt/devkitpro/devkitARM/lib/gcc/arm-none-eabi/12.2.0/include/stddef.h"
	.file 8 "/opt/devkitpro/devkitARM/arm-none-eabi/include/sys/lock.h"
	.file 9 "/Users/blackout/Desktop/Craftus-Rehabilitated/include/rendering/VBOCache.h"
	.file 10 "/opt/devkitPro//libctru/include/3ds/synchronization.h"
	.file 11 "/Users/blackout/Desktop/Craftus-Rehabilitated/include/world/WorkQueue.h"
	.file 12 "/Users/blackout/Desktop/Craftus-Rehabilitated/include/world/World.h"
	.file 13 "/Users/blackout/Desktop/Craftus-Rehabilitated/include/world/worldgen/SmeaGen.h"
	.file 14 "/Users/blackout/Desktop/Craftus-Rehabilitated/dependencies/sino/sino.h"
	.file 15 "/opt/devkitPro//libctru/include/3ds/types.h"