	.arch armv6k
	.fpu vfp
	.eabi_attribute 28, 1
	.eabi_attribute 20, 1
	.eabi_attribute 21, 1
	.eabi_attribute 23, 3
	.eabi_attribute 24, 1
	.eabi_attribute 25, 1
	.eabi_attribute 26, 1
	.eabi_attribute 30, 2
	.eabi_attribute 34, 1
	.eabi_attribute 18, 4
	.file	"TestGen.c"
	.text
.Ltext0:
	.cfi_sections	.debug_frame
	.file 1 "/Users/blackout/Desktop/Craftus-Rehabilitated/source/world/worldgen/TestGen.c"
	.section	.text.TestGen_Init,"ax",%progbits
	.align	2
	.global	TestGen_Init
	.syntax unified
	.arm
	.type	TestGen_Init, %function
TestGen_Init:
.LVL0:
.LFB124:
	.loc 1 5 47 view -0
	.cfi_startproc
	@ args = 0, pretend = 0, frame = 0
	@ frame_needed = 0, uses_anonymous_args = 0
	@ link register save eliminated.
	.loc 1 5 48 view .LVU1
	bx	lr
	.cfi_endproc
.LFE124:
	.size	TestGen_Init, .-TestGen_Init
	.section	.text.Chunk_MakeTree,"ax",%progbits
	.align	2
	.global	Chunk_MakeTree
	.syntax unified
	.arm
	.type	Chunk_MakeTree, %function
Chunk_MakeTree:
.LVL1:
.LFB126:
	.loc 1 48 1 view -0
	.cfi_startproc
	@ args = 8, pretend = 0, frame = 80
	@ frame_needed = 0, uses_anonymous_args = 0
	.loc 1 48 1 is_stmt 0 view .LVU3
	push	{r4, r5, r6, r7, r8, r9, r10, fp, lr}
	.cfi_def_cfa_offset 36
	.cfi_offset 4, -36
	.cfi_offset 5, -32
	.cfi_offset 6, -28
	.cfi_offset 7, -24
	.cfi_offset 8, -20
	.cfi_offset 9, -16
	.cfi_offset 10, -12
	.cfi_offset 11, -8
	.cfi_offset 14, -4
	sub	sp, sp, #84
	.cfi_def_cfa_offset 120
	.loc 1 48 1 view .LVU4
	add	ip, sp, #80
	mov	r4, r1
	mov	r5, r3
	stmdb	ip, {r0, r1, r2}
.LVL2:
	.loc 1 49 2 is_stmt 1 view .LVU5
	.loc 1 50 2 view .LVU6
.LBB266:
.LBB267:
.LBI267:
	.loc 1 139 5 view .LVU7
.LBB268:
	.loc 1 141 2 view .LVU8
	.loc 1 143 2 view .LVU9
	.loc 1 145 3 view .LVU10
	.loc 1 146 3 view .LVU11
	.loc 1 154 2 view .LVU12
.LBE268:
.LBE267:
.LBE266:
	.loc 1 48 1 is_stmt 0 view .LVU13
	ldr	fp, [sp, #124]
.LBB283:
.LBB270:
.LBB269:
	.loc 1 154 12 view .LVU14
	bl	rand
.LVL3:
	.loc 1 155 2 is_stmt 1 view .LVU15
	.loc 1 154 19 is_stmt 0 view .LVU16
	cmp	r0, #0
	and	r0, r0, #1
	rsblt	r0, r0, #0
.LBE269:
.LBE270:
	.loc 1 50 4 view .LVU17
	cmp	r0, #1
	bne	.L4
	.loc 1 51 3 is_stmt 1 view .LVU18
	.loc 1 51 8 is_stmt 0 view .LVU19
	ldr	r2, [sp, #120]
.LBE283:
.LBB284:
.LBB285:
.LBB286:
.LBB287:
	.file 2 "/Users/blackout/Desktop/Craftus-Rehabilitated/include/world/Chunk.h"
	.loc 2 103 9 view .LVU20
	add	r3, r4, #65536
.LBE287:
.LBE286:
.LBE285:
.LBE284:
.LBB329:
	.loc 1 51 8 view .LVU21
	sub	r2, r2, #1
.LBE329:
.LBB330:
.LBB316:
.LBB302:
.LBB288:
	.loc 2 103 9 view .LVU22
	str	r3, [sp, #64]
.LBE288:
.LBE302:
.LBE316:
.LBE330:
.LBB331:
	.loc 1 51 8 view .LVU23
	str	r2, [sp, #120]
.LVL4:
	.loc 1 51 8 view .LVU24
.LBE331:
.LBB332:
.LBB317:
.LBB303:
.LBB289:
	.loc 2 103 9 view .LVU25
	ldr	r3, [r3, #668]
	lsl	r2, r5, #4
.LVL5:
	.loc 2 103 9 view .LVU26
	str	r2, [sp, #4]
.L5:
	.loc 2 103 9 view .LVU27
.LBE289:
.LBE303:
.LBE317:
.LBE332:
	.loc 1 55 2 is_stmt 1 view .LVU28
.LVL6:
.LBB333:
.LBI284:
	.loc 2 110 13 view .LVU29
.LBB318:
	.loc 2 111 2 view .LVU30
	.loc 2 111 40 is_stmt 0 view .LVU31
	ldr	r2, [sp, #120]
.LBE318:
.LBE333:
.LBB334:
.LBB335:
.LBB336:
.LBB337:
	.loc 2 103 2 view .LVU32
	add	r3, r3, #61
.LBE337:
.LBE336:
.LBE335:
.LBE334:
.LBB350:
.LBB319:
	.loc 2 111 40 view .LVU33
	adds	r6, r2, #2
.LVL7:
	.loc 2 111 40 view .LVU34
.LBE319:
.LBE350:
.LBB351:
.LBB346:
.LBB342:
.LBB338:
	.loc 2 103 2 view .LVU35
	str	r3, [sp, #60]
.LBE338:
.LBE342:
.LBE346:
.LBE351:
.LBB352:
.LBB320:
	.loc 2 111 40 view .LVU36
	addmi	r3, r2, #17
	movpl	r3, r6
	.loc 2 112 23 view .LVU37
	rsbs	r2, r6, #0
	and	r2, r2, #15
	and	r6, r6, #15
.LVL8:
	.loc 2 112 23 view .LVU38
	rsbpl	r6, r2, #0
.LBE320:
.LBE352:
.LBB353:
.LBB354:
	.loc 2 111 40 view .LVU39
	ldr	r2, [sp, #120]
.LBE354:
.LBE353:
.LBB386:
.LBB321:
	asr	r3, r3, #4
.LVL9:
	.loc 2 112 2 is_stmt 1 view .LVU40
.LBE321:
.LBE386:
.LBB387:
.LBB373:
	.loc 2 111 40 is_stmt 0 view .LVU41
	adds	r0, r2, #3
	addmi	ip, r2, #18
	movpl	ip, r0
	.loc 2 112 47 view .LVU42
	mov	r2, #8
	.loc 2 112 23 view .LVU43
	rsbs	r1, r0, #0
	and	r1, r1, #15
	and	r0, r0, #15
.LBE373:
.LBE387:
.LBB388:
.LBB322:
.LBB304:
.LBB290:
	.loc 2 101 8 view .LVU44
	ldr	r8, [sp, #4]
.LBE290:
.LBE304:
.LBE322:
.LBE388:
.LBB389:
.LBB374:
	.loc 2 112 23 view .LVU45
	rsbpl	r0, r1, #0
.LBE374:
.LBE389:
.LBB390:
.LBB323:
	.loc 2 112 47 view .LVU46
	add	r1, r3, r3, lsl r2
	add	r1, r3, r1, lsl #1
.LBB305:
.LBB291:
	.loc 2 101 8 view .LVU47
	lsl	r3, r1, #4
.LVL10:
	.loc 2 101 8 view .LVU48
.LBE291:
.LBE305:
	.loc 2 112 47 view .LVU49
	add	r1, r8, r1
.LBB306:
.LBB292:
	.loc 2 101 8 view .LVU50
	add	lr, r8, r6
.LBE292:
.LBE306:
	.loc 2 112 47 view .LVU51
	add	r1, r1, r6
	mov	r6, #6
.LBB307:
.LBB293:
	.loc 2 101 8 view .LVU52
	add	lr, r3, lr, lsl #4
.LBE293:
.LBE307:
	.loc 2 112 47 view .LVU53
	add	r1, r4, r1, lsl #4
.LBB308:
.LBB294:
	.loc 2 101 8 view .LVU54
	add	lr, r4, lr
.LBE294:
.LBE308:
	.loc 2 112 47 view .LVU55
	add	r1, r1, fp
.LBB309:
.LBB295:
	.loc 2 101 8 view .LVU56
	add	lr, lr, fp
.LBE295:
.LBE309:
	.loc 2 112 47 view .LVU57
	strb	r6, [r1, #28]
	.loc 2 113 2 is_stmt 1 view .LVU58
.LVL11:
.LBB310:
.LBI286:
	.loc 2 97 13 view .LVU59
.LBB296:
	.loc 2 98 2 view .LVU60
	.loc 2 99 2 view .LVU61
	.loc 2 100 2 view .LVU62
	.loc 2 101 2 view .LVU63
	.loc 2 101 8 is_stmt 0 view .LVU64
	add	lr, lr, #4096
	ldrb	r1, [lr, #28]	@ zero_extendqisi2
.LBE296:
.LBE310:
.LBE323:
.LBE390:
.LBB391:
.LBB375:
	.loc 2 111 40 view .LVU65
	asr	ip, ip, #4
.LBE375:
.LBE391:
.LBB392:
.LBB324:
.LBB311:
.LBB297:
	.loc 2 101 8 view .LVU66
	bic	r1, r1, #15
	strb	r1, [lr, #28]
	.loc 2 102 2 is_stmt 1 view .LVU67
.LBE297:
.LBE311:
.LBE324:
.LBE392:
.LBB393:
.LBB376:
	.loc 2 112 47 is_stmt 0 view .LVU68
	add	r1, ip, ip, lsl r2
	add	ip, ip, r1, lsl #1
.LBE376:
.LBE393:
	.loc 1 59 2 view .LVU69
	add	r6, r5, #1
.LBB394:
.LBB377:
	.loc 2 112 47 view .LVU70
	add	r1, ip, r6, lsl #4
	add	r1, r1, r0
.LBB355:
.LBB356:
	.loc 2 101 8 view .LVU71
	lsl	lr, ip, #4
.LBE356:
.LBE355:
	.loc 2 112 47 view .LVU72
	add	r10, r4, r1, lsl #4
.LBE377:
.LBE394:
.LBB395:
.LBB325:
.LBB312:
.LBB298:
	.loc 2 102 2 view .LVU73
	add	r3, r4, r3
.LBE298:
.LBE312:
.LBE325:
.LBE395:
.LBB396:
.LBB378:
.LBB365:
.LBB357:
	.loc 2 101 8 view .LVU74
	add	r1, r0, r6, lsl #4
.LBE357:
.LBE365:
.LBE378:
.LBE396:
.LBB397:
.LBB326:
.LBB313:
.LBB299:
	.loc 2 102 2 view .LVU75
	add	r3, r3, #8192
.LBE299:
.LBE313:
.LBE326:
.LBE397:
.LBB398:
.LBB379:
.LBB366:
.LBB358:
	.loc 2 101 8 view .LVU76
	add	r1, lr, r1, lsl #4
	add	r7, r4, r1
.LBE358:
.LBE366:
.LBE379:
.LBE398:
.LBB399:
.LBB327:
.LBB314:
.LBB300:
	.loc 2 102 2 view .LVU77
	ldr	r1, [r3, #28]
.LBE300:
.LBE314:
.LBE327:
.LBE399:
	.loc 1 60 2 view .LVU78
	add	r9, r5, #2
.LBB400:
.LBB328:
.LBB315:
.LBB301:
	.loc 2 102 2 view .LVU79
	add	r1, r1, #1
	str	r1, [r3, #28]
	.loc 2 103 2 is_stmt 1 view .LVU80
.LVL12:
	.loc 2 103 2 is_stmt 0 view .LVU81
.LBE301:
.LBE315:
.LBE328:
.LBE400:
	.loc 1 59 2 is_stmt 1 view .LVU82
	sub	r1, fp, #2
.LVL13:
.LBB401:
.LBI353:
	.loc 2 110 13 view .LVU83
.LBB380:
	.loc 2 111 2 view .LVU84
	.loc 2 112 2 view .LVU85
	.loc 2 112 47 is_stmt 0 view .LVU86
	add	r3, r10, r1
	strb	r2, [r3, #28]
	.loc 2 113 2 is_stmt 1 view .LVU87
.LVL14:
.LBB367:
.LBI355:
	.loc 2 97 13 view .LVU88
.LBB359:
	.loc 2 98 2 view .LVU89
	.loc 2 99 2 view .LVU90
	.loc 2 100 2 view .LVU91
	.loc 2 101 2 view .LVU92
	.loc 2 101 8 is_stmt 0 view .LVU93
	str	r7, [sp, #16]
	add	r3, r7, r1
.LBE359:
.LBE367:
.LBE380:
.LBE401:
	.loc 1 60 2 view .LVU94
	mov	r7, r9
.LBB402:
.LBB381:
.LBB368:
.LBB360:
	.loc 2 101 8 view .LVU95
	add	r3, r3, #4096
	str	r6, [sp, #8]
.LVL15:
	.loc 2 101 8 view .LVU96
	ldrb	r6, [r3, #28]	@ zero_extendqisi2
.LBE360:
.LBE368:
.LBE381:
.LBE402:
.LBB403:
.LBB404:
.LBB405:
.LBB406:
	str	r7, [sp, #40]
.LBE406:
.LBE405:
.LBE404:
.LBE403:
.LBB429:
.LBB382:
.LBB369:
.LBB361:
	bic	r6, r6, #15
	strb	r6, [r3, #28]
	.loc 2 102 2 is_stmt 1 view .LVU97
.LBE361:
.LBE369:
.LBE382:
.LBE429:
.LBB430:
.LBB421:
	.loc 2 112 47 is_stmt 0 view .LVU98
	add	r3, ip, r9, lsl #4
	add	r3, r3, r0
	add	r9, r4, r3, lsl #4
.LBB414:
.LBB407:
	.loc 2 101 8 view .LVU99
	add	r3, r0, r7, lsl #4
	add	r3, lr, r3, lsl #4
	add	r3, r4, r3
	mov	r6, r3
.LBE407:
.LBE414:
.LBE421:
.LBE430:
.LBB431:
.LBB383:
.LBB370:
.LBB362:
	.loc 2 102 11 view .LVU100
	add	r3, r4, lr
	add	r3, r3, #8192
	str	r3, [sp, #36]
.LBE362:
.LBE370:
.LBE383:
.LBE431:
.LBB432:
.LBB422:
	.loc 2 112 47 view .LVU101
	add	r7, r9, r1
	str	r9, [sp, #20]
.LBE422:
.LBE432:
.LBB433:
.LBB384:
.LBB371:
.LBB363:
	.loc 2 102 11 view .LVU102
	ldr	r9, [sp, #36]
.LBE363:
.LBE371:
.LBE384:
.LBE433:
.LBB434:
.LBB423:
.LBB415:
.LBB408:
	.loc 2 101 8 view .LVU103
	str	r6, [sp, #24]
	add	r3, r6, r1
.LBE408:
.LBE415:
.LBE423:
.LBE434:
.LBB435:
.LBB385:
.LBB372:
.LBB364:
	.loc 2 102 11 view .LVU104
	ldr	r6, [r9, #28]
	.loc 2 103 2 is_stmt 1 view .LVU105
.LVL16:
	.loc 2 103 2 is_stmt 0 view .LVU106
.LBE364:
.LBE372:
.LBE385:
.LBE435:
	.loc 1 60 2 is_stmt 1 view .LVU107
.LBB436:
.LBI403:
	.loc 2 110 13 view .LVU108
.LBB424:
	.loc 2 111 2 view .LVU109
	.loc 2 112 2 view .LVU110
	.loc 2 112 47 is_stmt 0 view .LVU111
	strb	r2, [r7, #28]
	.loc 2 113 2 is_stmt 1 view .LVU112
.LVL17:
.LBB416:
.LBI405:
	.loc 2 97 13 view .LVU113
.LBB409:
	.loc 2 98 2 view .LVU114
	.loc 2 99 2 view .LVU115
	.loc 2 100 2 view .LVU116
	.loc 2 101 2 view .LVU117
.LBE409:
.LBE416:
.LBE424:
.LBE436:
.LBB437:
.LBB438:
.LBB439:
.LBB440:
	.loc 2 102 2 is_stmt 0 view .LVU118
	add	r7, r6, #25
.LBE440:
.LBE439:
.LBE438:
.LBE437:
.LBB455:
.LBB456:
	.loc 2 112 47 view .LVU119
	add	r6, r8, ip
	add	r6, r6, r0
.LBE456:
.LBE455:
.LBB482:
.LBB449:
.LBB445:
.LBB441:
	.loc 2 102 2 view .LVU120
	str	r7, [sp, #52]
.LBE441:
.LBE445:
.LBE449:
.LBE482:
.LBB483:
.LBB473:
	.loc 2 112 47 view .LVU121
	add	r7, r4, r6, lsl #4
.LBB457:
.LBB458:
	.loc 2 101 8 view .LVU122
	add	r6, r8, r0
.LBE458:
.LBE457:
.LBE473:
.LBE483:
.LBB484:
.LBB425:
.LBB417:
.LBB410:
	add	r3, r3, #4096
.LBE410:
.LBE417:
.LBE425:
.LBE484:
.LBB485:
.LBB474:
.LBB466:
.LBB459:
	add	r6, lr, r6, lsl #4
	add	r9, r4, r6
.LBE459:
.LBE466:
.LBE474:
.LBE485:
.LBB486:
.LBB426:
.LBB418:
.LBB411:
	ldrb	r6, [r3, #28]	@ zero_extendqisi2
.LBE411:
.LBE418:
.LBE426:
.LBE486:
.LBB487:
.LBB475:
.LBB467:
.LBB460:
	mov	r8, r9
.LBE460:
.LBE467:
.LBE475:
.LBE487:
.LBB488:
.LBB427:
.LBB419:
.LBB412:
	bic	r6, r6, #15
.LBE412:
.LBE419:
.LBE427:
.LBE488:
	.loc 1 62 2 view .LVU123
	sub	r9, r5, #1
	.loc 1 63 2 view .LVU124
	sub	r5, r5, #2
.LVL18:
.LBB489:
.LBB428:
.LBB420:
.LBB413:
	.loc 2 101 8 view .LVU125
	strb	r6, [r3, #28]
	.loc 2 102 2 is_stmt 1 view .LVU126
	.loc 2 103 2 view .LVU127
.LVL19:
	.loc 2 103 2 is_stmt 0 view .LVU128
.LBE413:
.LBE420:
.LBE428:
.LBE489:
	.loc 1 61 2 is_stmt 1 view .LVU129
.LBB490:
.LBI455:
	.loc 2 110 13 view .LVU130
.LBB476:
	.loc 2 111 2 view .LVU131
	.loc 2 112 2 view .LVU132
.LBE476:
.LBE490:
	.loc 1 63 2 is_stmt 0 view .LVU133
	mov	r6, r5
.LBB491:
.LBB492:
	.loc 2 112 47 view .LVU134
	add	r5, ip, r9, lsl #4
.LVL20:
	.loc 2 112 47 view .LVU135
.LBE492:
.LBE491:
.LBB512:
.LBB513:
	add	ip, ip, r6, lsl #4
.LBE513:
.LBE512:
.LBB531:
.LBB477:
	add	r3, r7, r1
.LBE477:
.LBE531:
.LBB532:
.LBB524:
	add	ip, ip, r0
.LBE524:
.LBE532:
.LBB533:
.LBB478:
	strb	r2, [r3, #28]
	.loc 2 113 2 is_stmt 1 view .LVU136
.LVL21:
.LBB468:
.LBI457:
	.loc 2 97 13 view .LVU137
.LBB461:
	.loc 2 98 2 view .LVU138
	.loc 2 99 2 view .LVU139
	.loc 2 100 2 view .LVU140
	.loc 2 101 2 view .LVU141
	.loc 2 101 8 is_stmt 0 view .LVU142
	str	r8, [sp, #32]
	add	r3, r8, r1
.LBE461:
.LBE468:
.LBE478:
.LBE533:
.LBB534:
.LBB505:
	.loc 2 112 47 view .LVU143
	add	r5, r5, r0
.LBE505:
.LBE534:
.LBB535:
.LBB525:
	add	r8, r4, ip, lsl #4
.LBE525:
.LBE535:
.LBB536:
.LBB506:
.LBB493:
.LBB494:
	.loc 2 101 8 view .LVU144
	add	ip, r0, r9, lsl #4
.LBE494:
.LBE493:
.LBE506:
.LBE536:
.LBB537:
.LBB526:
.LBB514:
.LBB515:
	add	r0, r0, r6, lsl #4
.LVL22:
	.loc 2 101 8 view .LVU145
.LBE515:
.LBE514:
.LBE526:
.LBE537:
.LBB538:
.LBB479:
.LBB469:
.LBB462:
	add	r3, r3, #4096
.LBE462:
.LBE469:
.LBE479:
.LBE538:
.LBB539:
.LBB507:
.LBB500:
.LBB495:
	add	ip, lr, ip, lsl #4
.LBE495:
.LBE500:
.LBE507:
.LBE539:
.LBB540:
.LBB527:
.LBB520:
.LBB516:
	add	lr, lr, r0, lsl #4
	add	r0, r4, lr
.LBE516:
.LBE520:
.LBE527:
.LBE540:
.LBB541:
.LBB480:
.LBB470:
.LBB463:
	ldrb	lr, [r3, #28]	@ zero_extendqisi2
.LBE463:
.LBE470:
	.loc 2 112 47 view .LVU146
	str	r7, [sp, #28]
.LBB471:
.LBB464:
	.loc 2 101 8 view .LVU147
	bic	lr, lr, #15
.LBE464:
.LBE471:
.LBE480:
.LBE541:
.LBB542:
.LBB508:
	.loc 2 112 47 view .LVU148
	add	r7, r4, r5, lsl #4
.LBB501:
.LBB496:
	.loc 2 101 8 view .LVU149
	add	ip, r4, ip
.LBE496:
.LBE501:
.LBE508:
.LBE542:
.LBB543:
.LBB481:
.LBB472:
.LBB465:
	strb	lr, [r3, #28]
	.loc 2 102 2 is_stmt 1 view .LVU150
	.loc 2 103 2 view .LVU151
.LVL23:
	.loc 2 103 2 is_stmt 0 view .LVU152
.LBE465:
.LBE472:
.LBE481:
.LBE543:
	.loc 1 62 2 is_stmt 1 view .LVU153
.LBB544:
.LBI491:
	.loc 2 110 13 view .LVU154
.LBB509:
	.loc 2 111 2 view .LVU155
	.loc 2 112 2 view .LVU156
	.loc 2 112 47 is_stmt 0 view .LVU157
	add	r3, r7, r1
	strb	r2, [r3, #28]
	.loc 2 113 2 is_stmt 1 view .LVU158
.LVL24:
.LBB502:
.LBI493:
	.loc 2 97 13 view .LVU159
.LBB497:
	.loc 2 98 2 view .LVU160
	.loc 2 99 2 view .LVU161
	.loc 2 100 2 view .LVU162
	.loc 2 101 2 view .LVU163
	.loc 2 101 8 is_stmt 0 view .LVU164
	add	r3, ip, r1
	add	r3, r3, #4096
	str	r9, [sp, #12]
.LVL25:
	.loc 2 101 8 view .LVU165
.LBE497:
.LBE502:
.LBE509:
.LBE544:
.LBB545:
.LBB528:
.LBB521:
.LBB517:
	str	r6, [sp, #44]
.LBE517:
.LBE521:
.LBE528:
.LBE545:
.LBB546:
.LBB510:
.LBB503:
.LBB498:
	ldrb	lr, [r3, #28]	@ zero_extendqisi2
.LBE498:
.LBE503:
.LBE510:
.LBE546:
	.loc 1 65 2 view .LVU166
	sub	r9, fp, #1
.LBB547:
.LBB511:
.LBB504:
.LBB499:
	.loc 2 101 8 view .LVU167
	bic	lr, lr, #15
	strb	lr, [r3, #28]
	.loc 2 102 2 is_stmt 1 view .LVU168
	.loc 2 103 2 view .LVU169
.LVL26:
	.loc 2 103 2 is_stmt 0 view .LVU170
.LBE499:
.LBE504:
.LBE511:
.LBE547:
	.loc 1 63 2 is_stmt 1 view .LVU171
.LBB548:
.LBI512:
	.loc 2 110 13 view .LVU172
.LBB529:
	.loc 2 111 2 view .LVU173
	.loc 2 112 2 view .LVU174
	.loc 2 112 47 is_stmt 0 view .LVU175
	add	r3, r8, r1
	strb	r2, [r3, #28]
	.loc 2 113 2 is_stmt 1 view .LVU176
.LVL27:
.LBB522:
.LBI514:
	.loc 2 97 13 view .LVU177
.LBB518:
	.loc 2 98 2 view .LVU178
	.loc 2 99 2 view .LVU179
	.loc 2 100 2 view .LVU180
	.loc 2 101 2 view .LVU181
	.loc 2 101 8 is_stmt 0 view .LVU182
	add	r3, r0, r1
	add	r3, r3, #4096
	ldrb	lr, [r3, #28]	@ zero_extendqisi2
.LBE518:
.LBE522:
.LBE529:
.LBE548:
.LBB549:
.LBB550:
	.loc 2 112 47 view .LVU183
	mov	r5, r10
.LBE550:
.LBE549:
.LBB559:
.LBB530:
.LBB523:
.LBB519:
	.loc 2 101 8 view .LVU184
	bic	lr, lr, #15
	strb	lr, [r3, #28]
	.loc 2 102 2 is_stmt 1 view .LVU185
	.loc 2 103 2 view .LVU186
.LVL28:
	.loc 2 103 2 is_stmt 0 view .LVU187
.LBE519:
.LBE523:
.LBE530:
.LBE559:
	.loc 1 65 2 is_stmt 1 view .LVU188
.LBB560:
.LBI549:
	.loc 2 110 13 view .LVU189
.LBB557:
	.loc 2 111 2 view .LVU190
	.loc 2 112 2 view .LVU191
	.loc 2 112 47 is_stmt 0 view .LVU192
	add	r3, r10, r9
.LBB551:
.LBB552:
	.loc 2 101 8 view .LVU193
	ldr	r10, [sp, #16]
.LBE552:
.LBE551:
	.loc 2 112 47 view .LVU194
	strb	r2, [r3, #28]
	.loc 2 113 2 is_stmt 1 view .LVU195
.LVL29:
.LBB555:
.LBI551:
	.loc 2 97 13 view .LVU196
.LBB553:
	.loc 2 98 2 view .LVU197
	.loc 2 99 2 view .LVU198
	.loc 2 100 2 view .LVU199
	.loc 2 101 2 view .LVU200
	.loc 2 101 8 is_stmt 0 view .LVU201
	add	r3, r10, r9
	add	r3, r3, #4096
	ldrb	lr, [r3, #28]	@ zero_extendqisi2
.LBE553:
.LBE555:
.LBE557:
.LBE560:
.LBB561:
.LBB562:
	.loc 2 112 47 view .LVU202
	ldr	r6, [sp, #20]
.LVL30:
	.loc 2 112 47 view .LVU203
.LBE562:
.LBE561:
.LBB566:
.LBB558:
.LBB556:
.LBB554:
	.loc 2 101 8 view .LVU204
	bic	lr, lr, #15
	strb	lr, [r3, #28]
	.loc 2 102 2 is_stmt 1 view .LVU205
	.loc 2 103 2 view .LVU206
.LVL31:
	.loc 2 103 2 is_stmt 0 view .LVU207
.LBE554:
.LBE556:
.LBE558:
.LBE566:
	.loc 1 66 2 is_stmt 1 view .LVU208
.LBB567:
.LBI561:
	.loc 2 110 13 view .LVU209
.LBB565:
	.loc 2 111 2 view .LVU210
	.loc 2 112 2 view .LVU211
	.loc 2 112 47 is_stmt 0 view .LVU212
	add	r3, r6, r9
	strb	r2, [r3, #28]
	.loc 2 113 2 is_stmt 1 view .LVU213
.LVL32:
.LBB563:
.LBI563:
	.loc 2 97 13 view .LVU214
.LBB564:
	.loc 2 98 2 view .LVU215
	.loc 2 99 2 view .LVU216
	.loc 2 100 2 view .LVU217
	.loc 2 101 2 view .LVU218
	.loc 2 101 8 is_stmt 0 view .LVU219
	ldr	r3, [sp, #24]
	add	r3, r3, r9
	add	r3, r3, #4096
	ldrb	lr, [r3, #28]	@ zero_extendqisi2
	bic	lr, lr, #15
	strb	lr, [r3, #28]
	.loc 2 102 2 is_stmt 1 view .LVU220
	.loc 2 103 2 view .LVU221
.LVL33:
	.loc 2 103 2 is_stmt 0 view .LVU222
.LBE564:
.LBE563:
.LBE565:
.LBE567:
	.loc 1 67 2 is_stmt 1 view .LVU223
.LBB568:
.LBI568:
	.loc 2 110 13 view .LVU224
.LBB569:
	.loc 2 111 2 view .LVU225
	.loc 2 112 2 view .LVU226
	.loc 2 112 47 is_stmt 0 view .LVU227
	ldr	lr, [sp, #28]
	add	r3, lr, r9
	strb	r2, [r3, #28]
	.loc 2 113 2 is_stmt 1 view .LVU228
.LVL34:
.LBB570:
.LBI570:
	.loc 2 97 13 view .LVU229
.LBB571:
	.loc 2 98 2 view .LVU230
	.loc 2 99 2 view .LVU231
	.loc 2 100 2 view .LVU232
	.loc 2 101 2 view .LVU233
	.loc 2 101 8 is_stmt 0 view .LVU234
	ldr	r3, [sp, #32]
	add	r3, r3, r9
	add	r3, r3, #4096
	ldrb	lr, [r3, #28]	@ zero_extendqisi2
	bic	lr, lr, #15
	strb	lr, [r3, #28]
	.loc 2 102 2 is_stmt 1 view .LVU235
	.loc 2 103 2 view .LVU236
.LVL35:
	.loc 2 103 2 is_stmt 0 view .LVU237
.LBE571:
.LBE570:
.LBE569:
.LBE568:
	.loc 1 68 2 is_stmt 1 view .LVU238
.LBB572:
.LBI572:
	.loc 2 110 13 view .LVU239
.LBB573:
	.loc 2 111 2 view .LVU240
	.loc 2 112 2 view .LVU241
	.loc 2 112 47 is_stmt 0 view .LVU242
	add	r3, r7, r9
	strb	r2, [r3, #28]
	.loc 2 113 2 is_stmt 1 view .LVU243
.LVL36:
.LBB574:
.LBI574:
	.loc 2 97 13 view .LVU244
.LBB575:
	.loc 2 98 2 view .LVU245
	.loc 2 99 2 view .LVU246
	.loc 2 100 2 view .LVU247
	.loc 2 101 2 view .LVU248
	.loc 2 101 8 is_stmt 0 view .LVU249
	add	r3, ip, r9
	add	r3, r3, #4096
	ldrb	lr, [r3, #28]	@ zero_extendqisi2
	bic	lr, lr, #15
	strb	lr, [r3, #28]
	.loc 2 102 2 is_stmt 1 view .LVU250
	.loc 2 103 2 view .LVU251
.LVL37:
	.loc 2 103 2 is_stmt 0 view .LVU252
.LBE575:
.LBE574:
.LBE573:
.LBE572:
	.loc 1 69 2 is_stmt 1 view .LVU253
.LBB576:
.LBI576:
	.loc 2 110 13 view .LVU254
.LBB577:
	.loc 2 111 2 view .LVU255
	.loc 2 112 2 view .LVU256
	.loc 2 112 47 is_stmt 0 view .LVU257
	add	r3, r8, r9
	strb	r2, [r3, #28]
	.loc 2 113 2 is_stmt 1 view .LVU258
.LVL38:
.LBB578:
.LBI578:
	.loc 2 97 13 view .LVU259
.LBB579:
	.loc 2 98 2 view .LVU260
	.loc 2 99 2 view .LVU261
	.loc 2 100 2 view .LVU262
	.loc 2 101 2 view .LVU263
	.loc 2 101 8 is_stmt 0 view .LVU264
	add	r3, r0, r9
	add	r3, r3, #4096
	ldrb	lr, [r3, #28]	@ zero_extendqisi2
	bic	lr, lr, #15
	strb	lr, [r3, #28]
	.loc 2 102 2 is_stmt 1 view .LVU265
	.loc 2 103 2 view .LVU266
.LVL39:
	.loc 2 103 2 is_stmt 0 view .LVU267
.LBE579:
.LBE578:
.LBE577:
.LBE576:
	.loc 1 71 2 is_stmt 1 view .LVU268
.LBB580:
.LBI580:
	.loc 2 110 13 view .LVU269
.LBB581:
	.loc 2 111 2 view .LVU270
	.loc 2 112 2 view .LVU271
	.loc 2 112 47 is_stmt 0 view .LVU272
	add	r3, r5, fp
	strb	r2, [r3, #28]
	.loc 2 113 2 is_stmt 1 view .LVU273
.LVL40:
.LBB582:
.LBI582:
	.loc 2 97 13 view .LVU274
.LBB583:
	.loc 2 98 2 view .LVU275
	.loc 2 99 2 view .LVU276
	.loc 2 100 2 view .LVU277
	.loc 2 101 2 view .LVU278
	.loc 2 101 8 is_stmt 0 view .LVU279
	add	r3, r10, fp
.LBE583:
.LBE582:
.LBE581:
.LBE580:
.LBB587:
.LBB588:
	.loc 2 112 47 view .LVU280
	mov	r10, #6
.LBE588:
.LBE587:
.LBB595:
.LBB586:
.LBB585:
.LBB584:
	.loc 2 101 8 view .LVU281
	add	r3, r3, #4096
	ldrb	lr, [r3, #28]	@ zero_extendqisi2
	bic	lr, lr, #15
	strb	lr, [r3, #28]
	.loc 2 102 2 is_stmt 1 view .LVU282
	.loc 2 103 2 view .LVU283
.LVL41:
	.loc 2 103 2 is_stmt 0 view .LVU284
.LBE584:
.LBE585:
.LBE586:
.LBE595:
	.loc 1 72 2 is_stmt 1 view .LVU285
.LBB596:
.LBI596:
	.loc 2 110 13 view .LVU286
.LBB597:
	.loc 2 111 2 view .LVU287
	.loc 2 112 2 view .LVU288
.LBB598:
.LBB599:
	.loc 2 101 8 is_stmt 0 view .LVU289
	ldr	lr, [sp, #24]
.LBE599:
.LBE598:
	.loc 2 112 47 view .LVU290
	add	r3, r6, fp
	strb	r2, [r3, #28]
	.loc 2 113 2 is_stmt 1 view .LVU291
.LVL42:
.LBB602:
.LBI598:
	.loc 2 97 13 view .LVU292
.LBB600:
	.loc 2 98 2 view .LVU293
	.loc 2 99 2 view .LVU294
	.loc 2 100 2 view .LVU295
	.loc 2 101 2 view .LVU296
	.loc 2 101 8 is_stmt 0 view .LVU297
	add	r3, lr, fp
	add	r3, r3, #4096
	ldrb	lr, [r3, #28]	@ zero_extendqisi2
.LBE600:
.LBE602:
.LBE597:
.LBE596:
.LBB605:
.LBB606:
	.loc 2 112 47 view .LVU298
	mov	r6, r5
.LBE606:
.LBE605:
.LBB615:
.LBB604:
.LBB603:
.LBB601:
	.loc 2 101 8 view .LVU299
	bic	lr, lr, #15
	strb	lr, [r3, #28]
	.loc 2 102 2 is_stmt 1 view .LVU300
	.loc 2 103 2 view .LVU301
.LVL43:
	.loc 2 103 2 is_stmt 0 view .LVU302
.LBE601:
.LBE603:
.LBE604:
.LBE615:
	.loc 1 73 2 is_stmt 1 view .LVU303
.LBB616:
.LBI587:
	.loc 2 110 13 view .LVU304
.LBB593:
	.loc 2 111 2 view .LVU305
	.loc 2 112 2 view .LVU306
	.loc 2 112 47 is_stmt 0 view .LVU307
	ldr	lr, [sp, #28]
	add	r3, lr, fp
	strb	r10, [r3, #28]
	.loc 2 113 2 is_stmt 1 view .LVU308
.LVL44:
.LBB589:
.LBI589:
	.loc 2 97 13 view .LVU309
.LBB590:
	.loc 2 98 2 view .LVU310
	.loc 2 99 2 view .LVU311
	.loc 2 100 2 view .LVU312
	.loc 2 101 2 view .LVU313
	.loc 2 101 8 is_stmt 0 view .LVU314
	ldr	r10, [sp, #32]
	add	r3, r10, fp
	add	r3, r3, #4096
	ldrb	lr, [r3, #28]	@ zero_extendqisi2
.LBE590:
.LBE589:
.LBE593:
.LBE616:
	.loc 1 77 2 view .LVU315
	add	r10, fp, #1
.LBB617:
.LBB594:
.LBB592:
.LBB591:
	.loc 2 101 8 view .LVU316
	bic	lr, lr, #15
	strb	lr, [r3, #28]
	.loc 2 102 2 is_stmt 1 view .LVU317
	.loc 2 103 2 view .LVU318
.LVL45:
	.loc 2 103 2 is_stmt 0 view .LVU319
.LBE591:
.LBE592:
.LBE594:
.LBE617:
	.loc 1 74 2 is_stmt 1 view .LVU320
.LBB618:
.LBI618:
	.loc 2 110 13 view .LVU321
.LBB619:
	.loc 2 111 2 view .LVU322
	.loc 2 112 2 view .LVU323
	.loc 2 112 47 is_stmt 0 view .LVU324
	add	r3, r7, fp
	strb	r2, [r3, #28]
	.loc 2 113 2 is_stmt 1 view .LVU325
.LVL46:
.LBB620:
.LBI620:
	.loc 2 97 13 view .LVU326
.LBB621:
	.loc 2 98 2 view .LVU327
	.loc 2 99 2 view .LVU328
	.loc 2 100 2 view .LVU329
	.loc 2 101 2 view .LVU330
	.loc 2 101 8 is_stmt 0 view .LVU331
	add	r3, ip, fp
	add	r3, r3, #4096
	ldrb	lr, [r3, #28]	@ zero_extendqisi2
	bic	lr, lr, #15
	strb	lr, [r3, #28]
	.loc 2 102 2 is_stmt 1 view .LVU332
	.loc 2 103 2 view .LVU333
.LVL47:
	.loc 2 103 2 is_stmt 0 view .LVU334
.LBE621:
.LBE620:
.LBE619:
.LBE618:
	.loc 1 75 2 is_stmt 1 view .LVU335
.LBB622:
.LBI622:
	.loc 2 110 13 view .LVU336
.LBB623:
	.loc 2 111 2 view .LVU337
	.loc 2 112 2 view .LVU338
	.loc 2 112 47 is_stmt 0 view .LVU339
	add	r3, r8, fp
	strb	r2, [r3, #28]
	.loc 2 113 2 is_stmt 1 view .LVU340
.LVL48:
.LBB624:
.LBI624:
	.loc 2 97 13 view .LVU341
.LBB625:
	.loc 2 98 2 view .LVU342
	.loc 2 99 2 view .LVU343
	.loc 2 100 2 view .LVU344
	.loc 2 101 2 view .LVU345
	.loc 2 101 8 is_stmt 0 view .LVU346
	add	r3, r0, fp
	add	r3, r3, #4096
	ldrb	lr, [r3, #28]	@ zero_extendqisi2
	bic	lr, lr, #15
	strb	lr, [r3, #28]
	.loc 2 102 2 is_stmt 1 view .LVU347
	.loc 2 103 2 view .LVU348
.LVL49:
	.loc 2 103 2 is_stmt 0 view .LVU349
.LBE625:
.LBE624:
.LBE623:
.LBE622:
	.loc 1 77 2 is_stmt 1 view .LVU350
.LBB626:
.LBI605:
	.loc 2 110 13 view .LVU351
.LBB613:
	.loc 2 111 2 view .LVU352
	.loc 2 112 2 view .LVU353
.LBB607:
.LBB608:
	.loc 2 101 8 is_stmt 0 view .LVU354
	ldr	lr, [sp, #16]
.LBE608:
.LBE607:
	.loc 2 112 47 view .LVU355
	add	r3, r5, r10
	strb	r2, [r3, #28]
	.loc 2 113 2 is_stmt 1 view .LVU356
.LVL50:
.LBB611:
.LBI607:
	.loc 2 97 13 view .LVU357
.LBB609:
	.loc 2 98 2 view .LVU358
	.loc 2 99 2 view .LVU359
	.loc 2 100 2 view .LVU360
	.loc 2 101 2 view .LVU361
	.loc 2 101 8 is_stmt 0 view .LVU362
	add	r3, lr, r10
	add	r3, r3, #4096
	ldrb	lr, [r3, #28]	@ zero_extendqisi2
.LBE609:
.LBE611:
.LBE613:
.LBE626:
.LBB627:
.LBB628:
	.loc 2 111 40 view .LVU363
	ldr	r5, [sp, #120]
.LBE628:
.LBE627:
.LBB659:
.LBB614:
.LBB612:
.LBB610:
	.loc 2 101 8 view .LVU364
	bic	lr, lr, #15
	strb	lr, [r3, #28]
	.loc 2 102 2 is_stmt 1 view .LVU365
	.loc 2 103 2 view .LVU366
.LVL51:
	.loc 2 103 2 is_stmt 0 view .LVU367
.LBE610:
.LBE612:
.LBE614:
.LBE659:
	.loc 1 78 2 is_stmt 1 view .LVU368
.LBB660:
.LBI660:
	.loc 2 110 13 view .LVU369
.LBB661:
	.loc 2 111 2 view .LVU370
	.loc 2 112 2 view .LVU371
.LBE661:
.LBE660:
.LBB670:
.LBB645:
	.loc 2 111 40 is_stmt 0 view .LVU372
	ldr	lr, [sp, #120]
	adds	r5, r5, #4
	str	r5, [sp, #48]
	addmi	r5, lr, #19
	mov	lr, r5
.LBE645:
.LBE670:
.LBB671:
.LBB668:
	.loc 2 112 47 view .LVU373
	ldr	r3, [sp, #20]
.LBB662:
.LBB663:
	.loc 2 101 8 view .LVU374
	ldr	r5, [sp, #24]
.LBE663:
.LBE662:
	.loc 2 112 47 view .LVU375
	add	r3, r3, r10
	strb	r2, [r3, #28]
	.loc 2 113 2 is_stmt 1 view .LVU376
.LVL52:
.LBB666:
.LBI662:
	.loc 2 97 13 view .LVU377
.LBB664:
	.loc 2 98 2 view .LVU378
	.loc 2 99 2 view .LVU379
	.loc 2 100 2 view .LVU380
	.loc 2 101 2 view .LVU381
	.loc 2 101 8 is_stmt 0 view .LVU382
	add	r3, r5, r10
	add	r3, r3, #4096
	ldrb	r5, [r3, #28]	@ zero_extendqisi2
.LBE664:
.LBE666:
.LBE668:
.LBE671:
.LBB672:
.LBB646:
	.loc 2 111 40 view .LVU383
	asr	lr, lr, #4
.LBE646:
.LBE672:
.LBB673:
.LBB669:
.LBB667:
.LBB665:
	.loc 2 101 8 view .LVU384
	bic	r5, r5, #15
	strb	r5, [r3, #28]
	.loc 2 102 2 is_stmt 1 view .LVU385
	.loc 2 103 2 view .LVU386
.LVL53:
	.loc 2 103 2 is_stmt 0 view .LVU387
.LBE665:
.LBE667:
.LBE669:
.LBE673:
	.loc 1 79 2 is_stmt 1 view .LVU388
.LBB674:
.LBI674:
	.loc 2 110 13 view .LVU389
.LBB675:
	.loc 2 111 2 view .LVU390
	.loc 2 112 2 view .LVU391
	.loc 2 112 47 is_stmt 0 view .LVU392
	ldr	r3, [sp, #28]
.LBB676:
.LBB677:
	.loc 2 101 8 view .LVU393
	ldr	r5, [sp, #32]
.LBE677:
.LBE676:
	.loc 2 112 47 view .LVU394
	add	r3, r3, r10
	strb	r2, [r3, #28]
	.loc 2 113 2 is_stmt 1 view .LVU395
.LVL54:
.LBB680:
.LBI676:
	.loc 2 97 13 view .LVU396
.LBB678:
	.loc 2 98 2 view .LVU397
	.loc 2 99 2 view .LVU398
	.loc 2 100 2 view .LVU399
	.loc 2 101 2 view .LVU400
	.loc 2 101 8 is_stmt 0 view .LVU401
	add	r3, r5, r10
	add	r3, r3, #4096
.LBE678:
.LBE680:
.LBE675:
.LBE674:
.LBB683:
.LBB647:
	.loc 2 111 40 view .LVU402
	str	lr, [sp, #56]
.LBE647:
.LBE683:
.LBB684:
.LBB682:
.LBB681:
.LBB679:
	.loc 2 101 8 view .LVU403
	ldrb	lr, [r3, #28]	@ zero_extendqisi2
	bic	lr, lr, #15
	strb	lr, [r3, #28]
	.loc 2 102 2 is_stmt 1 view .LVU404
	.loc 2 103 2 view .LVU405
.LVL55:
	.loc 2 103 2 is_stmt 0 view .LVU406
.LBE679:
.LBE681:
.LBE682:
.LBE684:
	.loc 1 80 2 is_stmt 1 view .LVU407
.LBB685:
.LBI685:
	.loc 2 110 13 view .LVU408
.LBB686:
	.loc 2 111 2 view .LVU409
	.loc 2 112 2 view .LVU410
	.loc 2 112 47 is_stmt 0 view .LVU411
	add	r3, r7, r10
	strb	r2, [r3, #28]
	.loc 2 113 2 is_stmt 1 view .LVU412
.LVL56:
.LBB687:
.LBI687:
	.loc 2 97 13 view .LVU413
.LBB688:
	.loc 2 98 2 view .LVU414
	.loc 2 99 2 view .LVU415
	.loc 2 100 2 view .LVU416
	.loc 2 101 2 view .LVU417
	.loc 2 101 8 is_stmt 0 view .LVU418
	add	r3, ip, r10
	add	r3, r3, #4096
	ldrb	lr, [r3, #28]	@ zero_extendqisi2
	bic	lr, lr, #15
	strb	lr, [r3, #28]
	.loc 2 102 2 is_stmt 1 view .LVU419
	.loc 2 103 2 view .LVU420
.LVL57:
	.loc 2 103 2 is_stmt 0 view .LVU421
.LBE688:
.LBE687:
.LBE686:
.LBE685:
	.loc 1 81 2 is_stmt 1 view .LVU422
.LBB689:
.LBI689:
	.loc 2 110 13 view .LVU423
.LBB690:
	.loc 2 111 2 view .LVU424
	.loc 2 112 2 view .LVU425
	.loc 2 112 47 is_stmt 0 view .LVU426
	add	r3, r8, r10
	strb	r2, [r3, #28]
	.loc 2 113 2 is_stmt 1 view .LVU427
.LVL58:
.LBB691:
.LBI691:
	.loc 2 97 13 view .LVU428
.LBB692:
	.loc 2 98 2 view .LVU429
	.loc 2 99 2 view .LVU430
	.loc 2 100 2 view .LVU431
	.loc 2 101 2 view .LVU432
	.loc 2 101 8 is_stmt 0 view .LVU433
	add	r3, r0, r10
	add	r3, r3, #4096
	ldrb	lr, [r3, #28]	@ zero_extendqisi2
.LBE692:
.LBE691:
.LBE690:
.LBE689:
.LBB696:
.LBB697:
.LBB698:
.LBB699:
	ldr	r5, [sp, #24]
.LBE699:
.LBE698:
.LBE697:
.LBE696:
.LBB714:
.LBB695:
.LBB694:
.LBB693:
	bic	lr, lr, #15
	strb	lr, [r3, #28]
	.loc 2 102 2 is_stmt 1 view .LVU434
	.loc 2 103 2 view .LVU435
.LVL59:
	.loc 2 103 2 is_stmt 0 view .LVU436
.LBE693:
.LBE694:
.LBE695:
.LBE714:
	.loc 1 83 2 is_stmt 1 view .LVU437
	add	r3, fp, #2
.LVL60:
.LBB715:
.LBI715:
	.loc 2 110 13 view .LVU438
.LBB716:
	.loc 2 111 2 view .LVU439
	.loc 2 112 2 view .LVU440
	.loc 2 112 47 is_stmt 0 view .LVU441
	add	lr, r6, r3
	strb	r2, [lr, #28]
	.loc 2 113 2 is_stmt 1 view .LVU442
.LVL61:
.LBB717:
.LBI717:
	.loc 2 97 13 view .LVU443
.LBB718:
	.loc 2 98 2 view .LVU444
	.loc 2 99 2 view .LVU445
	.loc 2 100 2 view .LVU446
	.loc 2 101 2 view .LVU447
	.loc 2 101 8 is_stmt 0 view .LVU448
	ldr	lr, [sp, #16]
.LBE718:
.LBE717:
.LBE716:
.LBE715:
.LBB728:
.LBB729:
	.loc 2 112 47 view .LVU449
	add	r7, r7, r3
.LBE729:
.LBE728:
.LBB742:
.LBB725:
.LBB722:
.LBB719:
	.loc 2 101 8 view .LVU450
	add	r6, lr, r3
	add	r6, r6, #4096
.LBE719:
.LBE722:
.LBE725:
.LBE742:
.LBB743:
.LBB708:
	.loc 2 112 47 view .LVU451
	ldr	lr, [sp, #20]
.LBE708:
.LBE743:
.LBB744:
.LBB738:
	str	r7, [sp, #24]
.LBE738:
.LBE744:
.LBB745:
.LBB726:
.LBB723:
.LBB720:
	.loc 2 101 8 view .LVU452
	ldrb	r7, [r6, #28]	@ zero_extendqisi2
.LBE720:
.LBE723:
.LBE726:
.LBE745:
.LBB746:
.LBB709:
	.loc 2 112 47 view .LVU453
	add	lr, lr, r3
	str	lr, [sp, #16]
.LBE709:
.LBE746:
.LBB747:
.LBB727:
.LBB724:
.LBB721:
	.loc 2 101 8 view .LVU454
	bic	r7, r7, #15
	strb	r7, [r6, #28]
	.loc 2 102 2 is_stmt 1 view .LVU455
	.loc 2 103 2 view .LVU456
.LVL62:
	.loc 2 103 2 is_stmt 0 view .LVU457
.LBE721:
.LBE724:
.LBE727:
.LBE747:
	.loc 1 84 2 is_stmt 1 view .LVU458
.LBB748:
.LBI696:
	.loc 2 110 13 view .LVU459
.LBB710:
	.loc 2 111 2 view .LVU460
	.loc 2 112 2 view .LVU461
.LBE710:
.LBE748:
.LBB749:
.LBB750:
	.loc 2 112 47 is_stmt 0 view .LVU462
	ldr	lr, [sp, #28]
.LBE750:
.LBE749:
.LBB765:
.LBB711:
	ldr	r7, [sp, #16]
.LBB704:
.LBB700:
	.loc 2 101 8 view .LVU463
	add	r5, r5, r3
.LBE700:
.LBE704:
	.loc 2 112 47 view .LVU464
	strb	r2, [r7, #28]
	.loc 2 113 2 is_stmt 1 view .LVU465
.LVL63:
.LBB705:
.LBI698:
	.loc 2 97 13 view .LVU466
.LBB701:
	.loc 2 98 2 view .LVU467
	.loc 2 99 2 view .LVU468
	.loc 2 100 2 view .LVU469
	.loc 2 101 2 view .LVU470
	.loc 2 101 8 is_stmt 0 view .LVU471
	add	r5, r5, #4096
.LBE701:
.LBE705:
.LBE711:
.LBE765:
.LBB766:
.LBB761:
	.loc 2 112 47 view .LVU472
	add	lr, lr, r3
.LBE761:
.LBE766:
.LBB767:
.LBB712:
.LBB706:
.LBB702:
	.loc 2 101 8 view .LVU473
	ldrb	r6, [r5, #28]	@ zero_extendqisi2
.LBE702:
.LBE706:
.LBE712:
.LBE767:
.LBB768:
.LBB762:
	.loc 2 112 47 view .LVU474
	str	lr, [sp, #20]
.LBB751:
.LBB752:
	.loc 2 101 8 view .LVU475
	ldr	lr, [sp, #32]
.LBE752:
.LBE751:
	.loc 2 112 47 view .LVU476
	ldr	r7, [sp, #20]
.LBB757:
.LBB753:
	.loc 2 101 8 view .LVU477
	add	lr, lr, r3
.LBE753:
.LBE757:
.LBE762:
.LBE768:
.LBB769:
.LBB713:
.LBB707:
.LBB703:
	bic	r6, r6, #15
	strb	r6, [r5, #28]
	.loc 2 102 2 is_stmt 1 view .LVU478
	.loc 2 103 2 view .LVU479
.LVL64:
	.loc 2 103 2 is_stmt 0 view .LVU480
.LBE703:
.LBE707:
.LBE713:
.LBE769:
	.loc 1 85 2 is_stmt 1 view .LVU481
.LBB770:
.LBI749:
	.loc 2 110 13 view .LVU482
.LBB763:
	.loc 2 111 2 view .LVU483
	.loc 2 112 2 view .LVU484
.LBB758:
.LBB754:
	.loc 2 101 8 is_stmt 0 view .LVU485
	add	lr, lr, #4096
.LBE754:
.LBE758:
	.loc 2 112 47 view .LVU486
	strb	r2, [r7, #28]
	.loc 2 113 2 is_stmt 1 view .LVU487
.LVL65:
.LBB759:
.LBI751:
	.loc 2 97 13 view .LVU488
.LBB755:
	.loc 2 98 2 view .LVU489
	.loc 2 99 2 view .LVU490
	.loc 2 100 2 view .LVU491
	.loc 2 101 2 view .LVU492
	.loc 2 101 8 is_stmt 0 view .LVU493
	ldrb	r5, [lr, #28]	@ zero_extendqisi2
.LBE755:
.LBE759:
.LBE763:
.LBE770:
.LBB771:
.LBB739:
.LBB730:
.LBB731:
	add	ip, ip, r3
.LBE731:
.LBE730:
.LBE739:
.LBE771:
.LBB772:
.LBB764:
.LBB760:
.LBB756:
	bic	r5, r5, #15
	strb	r5, [lr, #28]
	.loc 2 102 2 is_stmt 1 view .LVU494
	.loc 2 103 2 view .LVU495
.LVL66:
	.loc 2 103 2 is_stmt 0 view .LVU496
.LBE756:
.LBE760:
.LBE764:
.LBE772:
	.loc 1 86 2 is_stmt 1 view .LVU497
.LBB773:
.LBI728:
	.loc 2 110 13 view .LVU498
.LBB740:
	.loc 2 111 2 view .LVU499
	.loc 2 112 2 view .LVU500
	.loc 2 112 47 is_stmt 0 view .LVU501
	ldr	lr, [sp, #24]
.LBB735:
.LBB732:
	.loc 2 101 8 view .LVU502
	add	ip, ip, #4096
.LBE732:
.LBE735:
	.loc 2 112 47 view .LVU503
	strb	r2, [lr, #28]
	.loc 2 113 2 is_stmt 1 view .LVU504
.LVL67:
.LBB736:
.LBI730:
	.loc 2 97 13 view .LVU505
.LBB733:
	.loc 2 98 2 view .LVU506
	.loc 2 99 2 view .LVU507
	.loc 2 100 2 view .LVU508
	.loc 2 101 2 view .LVU509
	.loc 2 101 8 is_stmt 0 view .LVU510
	ldrb	lr, [ip, #28]	@ zero_extendqisi2
.LBE733:
.LBE736:
.LBE740:
.LBE773:
.LBB774:
.LBB648:
	.loc 2 112 47 view .LVU511
	ldr	r7, [sp, #56]
.LBE648:
.LBE774:
.LBB775:
.LBB741:
.LBB737:
.LBB734:
	.loc 2 101 8 view .LVU512
	bic	lr, lr, #15
	strb	lr, [ip, #28]
	.loc 2 102 2 is_stmt 1 view .LVU513
	.loc 2 103 2 view .LVU514
.LVL68:
	.loc 2 103 2 is_stmt 0 view .LVU515
.LBE734:
.LBE737:
.LBE741:
.LBE775:
	.loc 1 87 2 is_stmt 1 view .LVU516
.LBB776:
.LBI437:
	.loc 2 110 13 view .LVU517
.LBB450:
	.loc 2 111 2 view .LVU518
	.loc 2 112 2 view .LVU519
.LBE450:
.LBE776:
.LBB777:
.LBB649:
	.loc 2 112 23 is_stmt 0 view .LVU520
	ldr	ip, [sp, #48]
	.loc 2 112 47 view .LVU521
	ldr	r6, [sp, #8]
	.loc 2 112 23 view .LVU522
	rsbs	lr, ip, #0
	and	lr, lr, #15
	and	ip, ip, #15
	rsbpl	ip, lr, #0
	.loc 2 112 47 view .LVU523
	add	lr, r7, r7, lsl r2
	add	lr, r7, lr, lsl #1
	add	r5, lr, r6, lsl #4
	add	r5, r5, ip
.LBE649:
.LBE777:
.LBB778:
.LBB451:
	add	r8, r8, r3
.LBE451:
.LBE778:
.LBB779:
.LBB650:
	add	r5, r4, r5, lsl #4
.LBB629:
.LBB630:
	.loc 2 101 8 view .LVU524
	lsl	r7, lr, #4
.LBE630:
.LBE629:
.LBE650:
.LBE779:
.LBB780:
.LBB452:
	.loc 2 112 47 view .LVU525
	strb	r2, [r8, #28]
	.loc 2 113 2 is_stmt 1 view .LVU526
.LVL69:
.LBB446:
.LBI439:
	.loc 2 97 13 view .LVU527
.LBB442:
	.loc 2 98 2 view .LVU528
	.loc 2 99 2 view .LVU529
	.loc 2 100 2 view .LVU530
	.loc 2 101 2 view .LVU531
.LBE442:
.LBE446:
.LBE452:
.LBE780:
.LBB781:
.LBB651:
	.loc 2 112 47 is_stmt 0 view .LVU532
	mov	r8, r5
.LBB638:
.LBB631:
	.loc 2 101 8 view .LVU533
	add	r5, ip, r6, lsl #4
	add	r5, r7, r5, lsl #4
	add	r5, r4, r5
	mov	r6, r5
.LBE631:
.LBE638:
.LBE651:
.LBE781:
.LBB782:
.LBB453:
.LBB447:
.LBB443:
	add	r0, r0, r3
	add	r0, r0, #4096
	ldrb	r5, [r0, #28]	@ zero_extendqisi2
	bic	r5, r5, #15
	strb	r5, [r0, #28]
	.loc 2 102 2 is_stmt 1 view .LVU534
	ldr	r5, [sp, #36]
	ldr	r0, [sp, #52]
.LBE443:
.LBE447:
.LBE453:
.LBE782:
.LBB783:
.LBB652:
	.loc 2 112 47 is_stmt 0 view .LVU535
	str	r8, [sp, #48]
.LBE652:
.LBE783:
.LBB784:
.LBB454:
.LBB448:
.LBB444:
	.loc 2 102 2 view .LVU536
	str	r0, [r5, #28]
	.loc 2 103 2 is_stmt 1 view .LVU537
.LVL70:
	.loc 2 103 2 is_stmt 0 view .LVU538
.LBE444:
.LBE448:
.LBE454:
.LBE784:
	.loc 1 91 2 is_stmt 1 view .LVU539
.LBB785:
.LBI627:
	.loc 2 110 13 view .LVU540
.LBB653:
	.loc 2 111 2 view .LVU541
	.loc 2 112 2 view .LVU542
	.loc 2 112 47 is_stmt 0 view .LVU543
	add	r0, r8, r1
	strb	r2, [r0, #28]
	.loc 2 113 2 is_stmt 1 view .LVU544
.LVL71:
.LBB639:
.LBI629:
	.loc 2 97 13 view .LVU545
.LBB632:
	.loc 2 98 2 view .LVU546
	.loc 2 99 2 view .LVU547
	.loc 2 100 2 view .LVU548
	.loc 2 101 2 view .LVU549
	.loc 2 101 8 is_stmt 0 view .LVU550
	add	r0, r6, r1
	add	r0, r0, #4096
	ldrb	r5, [r0, #28]	@ zero_extendqisi2
	str	r6, [sp, #52]
	bic	r5, r5, #15
	strb	r5, [r0, #28]
	.loc 2 102 2 is_stmt 1 view .LVU551
.LBE632:
.LBE639:
.LBE653:
.LBE785:
.LBB786:
.LBB787:
	.loc 2 112 47 is_stmt 0 view .LVU552
	ldr	r0, [sp, #40]
	add	r5, lr, r0, lsl #4
.LBB788:
.LBB789:
	.loc 2 101 8 view .LVU553
	add	r0, ip, r0, lsl #4
	add	r0, r7, r0, lsl #4
	add	r0, r4, r0
	mov	r8, r0
.LBE789:
.LBE788:
.LBE787:
.LBE786:
.LBB808:
.LBB654:
.LBB640:
.LBB633:
	.loc 2 102 11 view .LVU554
	add	r0, r4, r7
.LBE633:
.LBE640:
.LBE654:
.LBE808:
.LBB809:
.LBB800:
	.loc 2 112 47 view .LVU555
	add	r5, r5, ip
.LBE800:
.LBE809:
.LBB810:
.LBB655:
.LBB641:
.LBB634:
	.loc 2 102 11 view .LVU556
	add	r0, r0, #8192
.LBE634:
.LBE641:
.LBE655:
.LBE810:
.LBB811:
.LBB801:
	.loc 2 112 47 view .LVU557
	add	r5, r4, r5, lsl #4
.LBE801:
.LBE811:
.LBB812:
.LBB656:
.LBB642:
.LBB635:
	.loc 2 102 11 view .LVU558
	str	r0, [sp, #36]
.LBE635:
.LBE642:
.LBE656:
.LBE812:
.LBB813:
.LBB802:
	.loc 2 112 47 view .LVU559
	add	r6, r5, r1
	str	r5, [sp, #40]
.LBE802:
.LBE813:
.LBB814:
.LBB657:
.LBB643:
.LBB636:
	.loc 2 102 11 view .LVU560
	ldr	r5, [sp, #36]
.LBE636:
.LBE643:
.LBE657:
.LBE814:
.LBB815:
.LBB803:
.LBB795:
.LBB790:
	.loc 2 101 8 view .LVU561
	str	r8, [sp, #16]
.LBE790:
.LBE795:
.LBE803:
.LBE815:
.LBB816:
.LBB658:
.LBB644:
.LBB637:
	.loc 2 102 11 view .LVU562
	ldr	r5, [r5, #28]
	.loc 2 103 2 is_stmt 1 view .LVU563
.LVL72:
	.loc 2 103 2 is_stmt 0 view .LVU564
.LBE637:
.LBE644:
.LBE658:
.LBE816:
	.loc 1 92 2 is_stmt 1 view .LVU565
.LBB817:
.LBI786:
	.loc 2 110 13 view .LVU566
.LBB804:
	.loc 2 111 2 view .LVU567
	.loc 2 112 2 view .LVU568
.LBB796:
.LBB791:
	.loc 2 101 8 is_stmt 0 view .LVU569
	add	r0, r8, r1
.LBE791:
.LBE796:
.LBE804:
.LBE817:
.LBB818:
.LBB819:
	.loc 2 112 47 view .LVU570
	ldr	r8, [sp, #4]
.LBE819:
.LBE818:
.LBB840:
.LBB805:
	strb	r2, [r6, #28]
	.loc 2 113 2 is_stmt 1 view .LVU571
.LVL73:
.LBB797:
.LBI788:
	.loc 2 97 13 view .LVU572
.LBB792:
	.loc 2 98 2 view .LVU573
	.loc 2 99 2 view .LVU574
	.loc 2 100 2 view .LVU575
	.loc 2 101 2 view .LVU576
.LBE792:
.LBE797:
.LBE805:
.LBE840:
.LBB841:
.LBB842:
.LBB843:
.LBB844:
	.loc 2 102 2 is_stmt 0 view .LVU577
	add	r6, r5, #25
.LBE844:
.LBE843:
.LBE842:
.LBE841:
.LBB871:
.LBB832:
	.loc 2 112 47 view .LVU578
	add	r5, r8, lr
	add	r5, r5, ip
.LBE832:
.LBE871:
.LBB872:
.LBB863:
.LBB854:
.LBB845:
	.loc 2 102 2 view .LVU579
	str	r6, [sp, #56]
.LBE845:
.LBE854:
.LBE863:
.LBE872:
.LBB873:
.LBB833:
	.loc 2 112 47 view .LVU580
	add	r6, r4, r5, lsl #4
.LBB820:
.LBB821:
	.loc 2 101 8 view .LVU581
	add	r5, r8, ip
	add	r5, r7, r5, lsl #4
	add	r5, r4, r5
	mov	r8, r5
.LBE821:
.LBE820:
.LBE833:
.LBE873:
.LBB874:
.LBB806:
.LBB798:
.LBB793:
	add	r0, r0, #4096
	ldrb	r5, [r0, #28]	@ zero_extendqisi2
.LBE793:
.LBE798:
.LBE806:
.LBE874:
.LBB875:
.LBB834:
.LBB827:
.LBB822:
	str	r8, [sp, #24]
.LBE822:
.LBE827:
.LBE834:
.LBE875:
.LBB876:
.LBB807:
.LBB799:
.LBB794:
	bic	r5, r5, #15
	strb	r5, [r0, #28]
	.loc 2 102 2 is_stmt 1 view .LVU582
	.loc 2 103 2 view .LVU583
.LVL74:
	.loc 2 103 2 is_stmt 0 view .LVU584
.LBE794:
.LBE799:
.LBE807:
.LBE876:
	.loc 1 93 2 is_stmt 1 view .LVU585
.LBB877:
.LBI818:
	.loc 2 110 13 view .LVU586
.LBB835:
	.loc 2 111 2 view .LVU587
	.loc 2 112 2 view .LVU588
	.loc 2 112 47 is_stmt 0 view .LVU589
	add	r0, r6, r1
	strb	r2, [r0, #28]
	.loc 2 113 2 is_stmt 1 view .LVU590
.LVL75:
.LBB828:
.LBI820:
	.loc 2 97 13 view .LVU591
.LBB823:
	.loc 2 98 2 view .LVU592
	.loc 2 99 2 view .LVU593
	.loc 2 100 2 view .LVU594
	.loc 2 101 2 view .LVU595
.LBE823:
.LBE828:
.LBE835:
.LBE877:
.LBB878:
.LBB879:
	.loc 2 112 47 is_stmt 0 view .LVU596
	ldr	r0, [sp, #12]
.LBE879:
.LBE878:
.LBB893:
.LBB836:
.LBB829:
.LBB824:
	.loc 2 101 8 view .LVU597
	add	r5, r8, r1
.LBE824:
.LBE829:
.LBE836:
.LBE893:
.LBB894:
.LBB888:
	.loc 2 112 47 view .LVU598
	add	r0, lr, r0, lsl #4
	add	r0, r0, ip
	add	r8, r4, r0, lsl #4
.LBE888:
.LBE894:
.LBB895:
.LBB896:
	ldr	r0, [sp, #44]
.LBE896:
.LBE895:
.LBB918:
.LBB837:
	str	r6, [sp, #20]
.LBE837:
.LBE918:
.LBB919:
.LBB911:
	add	lr, lr, r0, lsl #4
.LBB897:
.LBB898:
	.loc 2 101 8 view .LVU599
	add	r6, ip, r0, lsl #4
.LBE898:
.LBE897:
.LBE911:
.LBE919:
.LBB920:
.LBB889:
.LBB880:
.LBB881:
	ldr	r0, [sp, #12]
.LBE881:
.LBE880:
.LBE889:
.LBE920:
.LBB921:
.LBB912:
	.loc 2 112 47 view .LVU600
	add	lr, lr, ip
.LBE912:
.LBE921:
.LBB922:
.LBB890:
.LBB885:
.LBB882:
	.loc 2 101 8 view .LVU601
	add	ip, ip, r0, lsl #4
	add	ip, r7, ip, lsl #4
	add	r0, r4, ip
.LBE882:
.LBE885:
.LBE890:
.LBE922:
.LBB923:
.LBB913:
.LBB905:
.LBB899:
	add	r6, r7, r6, lsl #4
.LBE899:
.LBE905:
	.loc 2 112 47 view .LVU602
	add	ip, r4, lr, lsl #4
	mov	r7, ip
.LBB906:
.LBB900:
	.loc 2 101 8 view .LVU603
	add	ip, r4, r6
	mov	r6, ip
.LBE900:
.LBE906:
.LBE913:
.LBE923:
.LBB924:
.LBB838:
.LBB830:
.LBB825:
	add	r5, r5, #4096
	ldrb	ip, [r5, #28]	@ zero_extendqisi2
.LBE825:
.LBE830:
.LBE838:
.LBE924:
.LBB925:
.LBB914:
	.loc 2 112 47 view .LVU604
	str	r7, [sp, #28]
.LBE914:
.LBE925:
.LBB926:
.LBB839:
.LBB831:
.LBB826:
	.loc 2 101 8 view .LVU605
	bic	ip, ip, #15
	strb	ip, [r5, #28]
	.loc 2 102 2 is_stmt 1 view .LVU606
	.loc 2 103 2 view .LVU607
.LVL76:
	.loc 2 103 2 is_stmt 0 view .LVU608
.LBE826:
.LBE831:
.LBE839:
.LBE926:
	.loc 1 94 2 is_stmt 1 view .LVU609
.LBB927:
.LBI878:
	.loc 2 110 13 view .LVU610
.LBB891:
	.loc 2 111 2 view .LVU611
	.loc 2 112 2 view .LVU612
	.loc 2 112 47 is_stmt 0 view .LVU613
	add	ip, r8, r1
	strb	r2, [ip, #28]
	.loc 2 113 2 is_stmt 1 view .LVU614
.LVL77:
.LBB886:
.LBI880:
	.loc 2 97 13 view .LVU615
.LBB883:
	.loc 2 98 2 view .LVU616
	.loc 2 99 2 view .LVU617
	.loc 2 100 2 view .LVU618
	.loc 2 101 2 view .LVU619
	.loc 2 101 8 is_stmt 0 view .LVU620
	add	ip, r0, r1
	add	ip, ip, #4096
	ldrb	lr, [ip, #28]	@ zero_extendqisi2
.LBE883:
.LBE886:
.LBE891:
.LBE927:
.LBB928:
.LBB915:
.LBB907:
.LBB901:
	str	r6, [sp, #32]
.LBE901:
.LBE907:
.LBE915:
.LBE928:
.LBB929:
.LBB892:
.LBB887:
.LBB884:
	bic	lr, lr, #15
	strb	lr, [ip, #28]
	.loc 2 102 2 is_stmt 1 view .LVU621
	.loc 2 103 2 view .LVU622
.LVL78:
	.loc 2 103 2 is_stmt 0 view .LVU623
.LBE884:
.LBE887:
.LBE892:
.LBE929:
	.loc 1 95 2 is_stmt 1 view .LVU624
.LBB930:
.LBI895:
	.loc 2 110 13 view .LVU625
.LBB916:
	.loc 2 111 2 view .LVU626
	.loc 2 112 2 view .LVU627
	.loc 2 112 47 is_stmt 0 view .LVU628
	add	ip, r7, r1
.LBB908:
.LBB902:
	.loc 2 101 8 view .LVU629
	add	r1, r6, r1
.LVL79:
	.loc 2 101 8 view .LVU630
	add	r1, r1, #4096
.LBE902:
.LBE908:
	.loc 2 112 47 view .LVU631
	strb	r2, [ip, #28]
	.loc 2 113 2 is_stmt 1 view .LVU632
.LVL80:
.LBB909:
.LBI897:
	.loc 2 97 13 view .LVU633
.LBB903:
	.loc 2 98 2 view .LVU634
	.loc 2 99 2 view .LVU635
	.loc 2 100 2 view .LVU636
	.loc 2 101 2 view .LVU637
	.loc 2 101 8 is_stmt 0 view .LVU638
	ldrb	ip, [r1, #28]	@ zero_extendqisi2
.LBE903:
.LBE909:
.LBE916:
.LBE930:
.LBB931:
.LBB932:
.LBB933:
.LBB934:
	ldr	r5, [sp, #52]
.LBE934:
.LBE933:
	.loc 2 112 47 view .LVU639
	ldr	lr, [sp, #48]
.LBE932:
.LBE931:
.LBB943:
.LBB917:
.LBB910:
.LBB904:
	.loc 2 101 8 view .LVU640
	bic	ip, ip, #15
	strb	ip, [r1, #28]
	.loc 2 102 2 is_stmt 1 view .LVU641
	.loc 2 103 2 view .LVU642
.LVL81:
	.loc 2 103 2 is_stmt 0 view .LVU643
.LBE904:
.LBE910:
.LBE917:
.LBE943:
	.loc 1 97 2 is_stmt 1 view .LVU644
.LBB944:
.LBI931:
	.loc 2 110 13 view .LVU645
.LBB941:
	.loc 2 111 2 view .LVU646
	.loc 2 112 2 view .LVU647
	.loc 2 112 47 is_stmt 0 view .LVU648
	add	ip, lr, r9
.LBB938:
.LBB935:
	.loc 2 101 8 view .LVU649
	add	r1, r5, r9
.LBE935:
.LBE938:
	.loc 2 112 47 view .LVU650
	strb	r2, [ip, #28]
	.loc 2 113 2 is_stmt 1 view .LVU651
.LVL82:
.LBB939:
.LBI933:
	.loc 2 97 13 view .LVU652
.LBB936:
	.loc 2 98 2 view .LVU653
	.loc 2 99 2 view .LVU654
	.loc 2 100 2 view .LVU655
	.loc 2 101 2 view .LVU656
	.loc 2 101 8 is_stmt 0 view .LVU657
	add	r1, r1, #4096
	ldrb	ip, [r1, #28]	@ zero_extendqisi2
.LBE936:
.LBE939:
.LBE941:
.LBE944:
.LBB945:
.LBB946:
	.loc 2 112 47 view .LVU658
	ldr	r7, [sp, #40]
.LBB947:
.LBB948:
	.loc 2 101 8 view .LVU659
	ldr	r6, [sp, #16]
.LBE948:
.LBE947:
.LBE946:
.LBE945:
.LBB952:
.LBB942:
.LBB940:
.LBB937:
	bic	ip, ip, #15
	strb	ip, [r1, #28]
	.loc 2 102 2 is_stmt 1 view .LVU660
	.loc 2 103 2 view .LVU661
.LVL83:
	.loc 2 103 2 is_stmt 0 view .LVU662
.LBE937:
.LBE940:
.LBE942:
.LBE952:
	.loc 1 98 2 is_stmt 1 view .LVU663
.LBB953:
.LBI945:
	.loc 2 110 13 view .LVU664
.LBB951:
	.loc 2 111 2 view .LVU665
	.loc 2 112 2 view .LVU666
	.loc 2 112 47 is_stmt 0 view .LVU667
	add	r1, r7, r9
	strb	r2, [r1, #28]
	.loc 2 113 2 is_stmt 1 view .LVU668
.LVL84:
.LBB950:
.LBI947:
	.loc 2 97 13 view .LVU669
.LBB949:
	.loc 2 98 2 view .LVU670
	.loc 2 99 2 view .LVU671
	.loc 2 100 2 view .LVU672
	.loc 2 101 2 view .LVU673
	.loc 2 101 8 is_stmt 0 view .LVU674
	add	r1, r6, r9
	add	r1, r1, #4096
	ldrb	ip, [r1, #28]	@ zero_extendqisi2
	bic	ip, ip, #15
	strb	ip, [r1, #28]
	.loc 2 102 2 is_stmt 1 view .LVU675
	.loc 2 103 2 view .LVU676
.LVL85:
	.loc 2 103 2 is_stmt 0 view .LVU677
.LBE949:
.LBE950:
.LBE951:
.LBE953:
	.loc 1 99 2 is_stmt 1 view .LVU678
.LBB954:
.LBI954:
	.loc 2 110 13 view .LVU679
.LBB955:
	.loc 2 111 2 view .LVU680
	.loc 2 112 2 view .LVU681
	.loc 2 112 47 is_stmt 0 view .LVU682
	ldr	r1, [sp, #20]
.LBB956:
.LBB957:
	.loc 2 101 8 view .LVU683
	ldr	ip, [sp, #24]
.LBE957:
.LBE956:
	.loc 2 112 47 view .LVU684
	add	r1, r1, r9
	strb	r2, [r1, #28]
	.loc 2 113 2 is_stmt 1 view .LVU685
.LVL86:
.LBB959:
.LBI956:
	.loc 2 97 13 view .LVU686
.LBB958:
	.loc 2 98 2 view .LVU687
	.loc 2 99 2 view .LVU688
	.loc 2 100 2 view .LVU689
	.loc 2 101 2 view .LVU690
	.loc 2 101 8 is_stmt 0 view .LVU691
	add	r1, ip, r9
	add	r1, r1, #4096
	ldrb	ip, [r1, #28]	@ zero_extendqisi2
	bic	ip, ip, #15
	strb	ip, [r1, #28]
	.loc 2 102 2 is_stmt 1 view .LVU692
	.loc 2 103 2 view .LVU693
.LVL87:
	.loc 2 103 2 is_stmt 0 view .LVU694
.LBE958:
.LBE959:
.LBE955:
.LBE954:
	.loc 1 100 2 is_stmt 1 view .LVU695
.LBB960:
.LBI960:
	.loc 2 110 13 view .LVU696
.LBB961:
	.loc 2 111 2 view .LVU697
	.loc 2 112 2 view .LVU698
	.loc 2 112 47 is_stmt 0 view .LVU699
	add	r1, r8, r9
	strb	r2, [r1, #28]
	.loc 2 113 2 is_stmt 1 view .LVU700
.LVL88:
.LBB962:
.LBI962:
	.loc 2 97 13 view .LVU701
.LBB963:
	.loc 2 98 2 view .LVU702
	.loc 2 99 2 view .LVU703
	.loc 2 100 2 view .LVU704
	.loc 2 101 2 view .LVU705
	.loc 2 101 8 is_stmt 0 view .LVU706
	add	r1, r0, r9
	add	r1, r1, #4096
	ldrb	ip, [r1, #28]	@ zero_extendqisi2
	bic	ip, ip, #15
	strb	ip, [r1, #28]
	.loc 2 102 2 is_stmt 1 view .LVU707
	.loc 2 103 2 view .LVU708
.LVL89:
	.loc 2 103 2 is_stmt 0 view .LVU709
.LBE963:
.LBE962:
.LBE961:
.LBE960:
	.loc 1 101 2 is_stmt 1 view .LVU710
.LBB964:
.LBI964:
	.loc 2 110 13 view .LVU711
.LBB965:
	.loc 2 111 2 view .LVU712
	.loc 2 112 2 view .LVU713
	.loc 2 112 47 is_stmt 0 view .LVU714
	ldr	r1, [sp, #28]
.LBB966:
.LBB967:
	.loc 2 101 8 view .LVU715
	ldr	ip, [sp, #32]
.LBE967:
.LBE966:
	.loc 2 112 47 view .LVU716
	add	r1, r1, r9
	strb	r2, [r1, #28]
	.loc 2 113 2 is_stmt 1 view .LVU717
.LVL90:
.LBB969:
.LBI966:
	.loc 2 97 13 view .LVU718
.LBB968:
	.loc 2 98 2 view .LVU719
	.loc 2 99 2 view .LVU720
	.loc 2 100 2 view .LVU721
	.loc 2 101 2 view .LVU722
	.loc 2 101 8 is_stmt 0 view .LVU723
	add	r1, ip, r9
	add	r1, r1, #4096
	ldrb	ip, [r1, #28]	@ zero_extendqisi2
	bic	ip, ip, #15
	strb	ip, [r1, #28]
	.loc 2 102 2 is_stmt 1 view .LVU724
	.loc 2 103 2 view .LVU725
.LVL91:
	.loc 2 103 2 is_stmt 0 view .LVU726
.LBE968:
.LBE969:
.LBE965:
.LBE964:
	.loc 1 103 2 is_stmt 1 view .LVU727
.LBB970:
.LBI970:
	.loc 2 110 13 view .LVU728
.LBB971:
	.loc 2 111 2 view .LVU729
	.loc 2 112 2 view .LVU730
	.loc 2 112 47 is_stmt 0 view .LVU731
	add	r1, lr, fp
	strb	r2, [r1, #28]
	.loc 2 113 2 is_stmt 1 view .LVU732
.LVL92:
.LBB972:
.LBI972:
	.loc 2 97 13 view .LVU733
.LBB973:
	.loc 2 98 2 view .LVU734
	.loc 2 99 2 view .LVU735
	.loc 2 100 2 view .LVU736
	.loc 2 101 2 view .LVU737
	.loc 2 101 8 is_stmt 0 view .LVU738
	add	r1, r5, fp
	add	r1, r1, #4096
	ldrb	ip, [r1, #28]	@ zero_extendqisi2
	bic	ip, ip, #15
	strb	ip, [r1, #28]
	.loc 2 102 2 is_stmt 1 view .LVU739
	.loc 2 103 2 view .LVU740
.LVL93:
	.loc 2 103 2 is_stmt 0 view .LVU741
.LBE973:
.LBE972:
.LBE971:
.LBE970:
	.loc 1 104 2 is_stmt 1 view .LVU742
.LBB974:
.LBI974:
	.loc 2 110 13 view .LVU743
.LBB975:
	.loc 2 111 2 view .LVU744
	.loc 2 112 2 view .LVU745
	.loc 2 112 47 is_stmt 0 view .LVU746
	add	r1, r7, fp
	strb	r2, [r1, #28]
	.loc 2 113 2 is_stmt 1 view .LVU747
.LVL94:
.LBB976:
.LBI976:
	.loc 2 97 13 view .LVU748
.LBB977:
	.loc 2 98 2 view .LVU749
	.loc 2 99 2 view .LVU750
	.loc 2 100 2 view .LVU751
	.loc 2 101 2 view .LVU752
	.loc 2 101 8 is_stmt 0 view .LVU753
	add	r1, r6, fp
.LBE977:
.LBE976:
.LBE975:
.LBE974:
.LBB981:
.LBB982:
	.loc 2 112 47 view .LVU754
	mov	r6, #6
.LBE982:
.LBE981:
.LBB986:
.LBB980:
.LBB979:
.LBB978:
	.loc 2 101 8 view .LVU755
	add	r1, r1, #4096
	ldrb	ip, [r1, #28]	@ zero_extendqisi2
	bic	ip, ip, #15
	strb	ip, [r1, #28]
	.loc 2 102 2 is_stmt 1 view .LVU756
	.loc 2 103 2 view .LVU757
.LVL95:
	.loc 2 103 2 is_stmt 0 view .LVU758
.LBE978:
.LBE979:
.LBE980:
.LBE986:
	.loc 1 105 2 is_stmt 1 view .LVU759
.LBB987:
.LBI981:
	.loc 2 110 13 view .LVU760
.LBB985:
	.loc 2 111 2 view .LVU761
	.loc 2 112 2 view .LVU762
	.loc 2 112 47 is_stmt 0 view .LVU763
	ldr	r1, [sp, #20]
	add	r1, r1, fp
	strb	r6, [r1, #28]
	.loc 2 113 2 is_stmt 1 view .LVU764
.LVL96:
.LBB983:
.LBI983:
	.loc 2 97 13 view .LVU765
.LBB984:
	.loc 2 98 2 view .LVU766
	.loc 2 99 2 view .LVU767
	.loc 2 100 2 view .LVU768
	.loc 2 101 2 view .LVU769
	.loc 2 101 8 is_stmt 0 view .LVU770
	ldr	ip, [sp, #24]
	add	r1, ip, fp
	add	r1, r1, #4096
	ldrb	ip, [r1, #28]	@ zero_extendqisi2
	bic	ip, ip, #15
	strb	ip, [r1, #28]
	.loc 2 102 2 is_stmt 1 view .LVU771
	.loc 2 103 2 view .LVU772
.LVL97:
	.loc 2 103 2 is_stmt 0 view .LVU773
.LBE984:
.LBE983:
.LBE985:
.LBE987:
	.loc 1 106 2 is_stmt 1 view .LVU774
.LBB988:
.LBI988:
	.loc 2 110 13 view .LVU775
.LBB989:
	.loc 2 111 2 view .LVU776
	.loc 2 112 2 view .LVU777
	.loc 2 112 47 is_stmt 0 view .LVU778
	add	r1, r8, fp
	strb	r2, [r1, #28]
	.loc 2 113 2 is_stmt 1 view .LVU779
.LVL98:
.LBB990:
.LBI990:
	.loc 2 97 13 view .LVU780
.LBB991:
	.loc 2 98 2 view .LVU781
	.loc 2 99 2 view .LVU782
	.loc 2 100 2 view .LVU783
	.loc 2 101 2 view .LVU784
	.loc 2 101 8 is_stmt 0 view .LVU785
	add	r1, r0, fp
	add	r1, r1, #4096
	ldrb	ip, [r1, #28]	@ zero_extendqisi2
	bic	ip, ip, #15
	strb	ip, [r1, #28]
	.loc 2 102 2 is_stmt 1 view .LVU786
	.loc 2 103 2 view .LVU787
.LVL99:
	.loc 2 103 2 is_stmt 0 view .LVU788
.LBE991:
.LBE990:
.LBE989:
.LBE988:
	.loc 1 107 2 is_stmt 1 view .LVU789
.LBB992:
.LBI992:
	.loc 2 110 13 view .LVU790
.LBB993:
	.loc 2 111 2 view .LVU791
	.loc 2 112 2 view .LVU792
	.loc 2 112 47 is_stmt 0 view .LVU793
	ldr	r1, [sp, #28]
.LBB994:
.LBB995:
	.loc 2 101 8 view .LVU794
	ldr	ip, [sp, #32]
.LBE995:
.LBE994:
	.loc 2 112 47 view .LVU795
	add	r1, r1, fp
	strb	r2, [r1, #28]
	.loc 2 113 2 is_stmt 1 view .LVU796
.LVL100:
.LBB997:
.LBI994:
	.loc 2 97 13 view .LVU797
.LBB996:
	.loc 2 98 2 view .LVU798
	.loc 2 99 2 view .LVU799
	.loc 2 100 2 view .LVU800
	.loc 2 101 2 view .LVU801
	.loc 2 101 8 is_stmt 0 view .LVU802
	add	r1, ip, fp
	add	r1, r1, #4096
	ldrb	ip, [r1, #28]	@ zero_extendqisi2
	bic	ip, ip, #15
	strb	ip, [r1, #28]
	.loc 2 102 2 is_stmt 1 view .LVU803
	.loc 2 103 2 view .LVU804
.LVL101:
	.loc 2 103 2 is_stmt 0 view .LVU805
.LBE996:
.LBE997:
.LBE993:
.LBE992:
	.loc 1 109 2 is_stmt 1 view .LVU806
.LBB998:
.LBI998:
	.loc 2 110 13 view .LVU807
.LBB999:
	.loc 2 111 2 view .LVU808
	.loc 2 112 2 view .LVU809
	.loc 2 112 47 is_stmt 0 view .LVU810
	add	ip, lr, r10
.LBE999:
.LBE998:
.LBB1015:
.LBB1016:
	add	lr, lr, r3
	str	lr, [sp, #40]
.LBB1017:
.LBB1018:
	.loc 2 101 8 view .LVU811
	add	lr, r5, r3
.LBE1018:
.LBE1017:
.LBE1016:
.LBE1015:
.LBB1036:
.LBB1037:
	.loc 2 111 40 view .LVU812
	ldr	r1, [sp, #120]
.LBE1037:
.LBE1036:
.LBB1065:
.LBB1031:
.LBB1025:
.LBB1019:
	.loc 2 101 8 view .LVU813
	add	lr, lr, #4096
.LBE1019:
.LBE1025:
.LBE1031:
.LBE1065:
.LBB1066:
.LBB1010:
	.loc 2 112 47 view .LVU814
	strb	r2, [ip, #28]
	.loc 2 113 2 is_stmt 1 view .LVU815
.LVL102:
.LBB1000:
.LBI1000:
	.loc 2 97 13 view .LVU816
.LBB1001:
	.loc 2 98 2 view .LVU817
	.loc 2 99 2 view .LVU818
	.loc 2 100 2 view .LVU819
	.loc 2 101 2 view .LVU820
.LBE1001:
.LBE1000:
.LBE1010:
.LBE1066:
.LBB1067:
.LBB1032:
.LBB1026:
.LBB1020:
	.loc 2 101 8 is_stmt 0 view .LVU821
	str	lr, [sp, #44]
.LVL103:
	.loc 2 101 8 view .LVU822
.LBE1020:
.LBE1026:
.LBE1032:
.LBE1067:
.LBB1068:
.LBB1011:
.LBB1006:
.LBB1002:
	add	ip, r5, r10
.LBE1002:
.LBE1006:
.LBE1011:
.LBE1068:
.LBB1069:
.LBB1052:
	.loc 2 111 40 view .LVU823
	ldr	lr, [sp, #120]
	adds	r1, r1, #5
.LBE1052:
.LBE1069:
.LBB1070:
.LBB1012:
.LBB1007:
.LBB1003:
	.loc 2 101 8 view .LVU824
	add	ip, ip, #4096
.LBE1003:
.LBE1007:
.LBE1012:
.LBE1070:
.LBB1071:
.LBB1053:
	.loc 2 111 40 view .LVU825
	addmi	r6, lr, #20
	movpl	r6, r1
.LBE1053:
.LBE1071:
.LBB1072:
.LBB1013:
.LBB1008:
.LBB1004:
	.loc 2 101 8 view .LVU826
	ldrb	lr, [ip, #28]	@ zero_extendqisi2
.LBE1004:
.LBE1008:
.LBE1013:
.LBE1072:
.LBB1073:
.LBB1074:
	.loc 2 112 47 view .LVU827
	add	r5, r7, r10
.LBE1074:
.LBE1073:
.LBB1083:
.LBB1014:
.LBB1009:
.LBB1005:
	.loc 2 101 8 view .LVU828
	bic	lr, lr, #15
	strb	lr, [ip, #28]
	.loc 2 102 2 is_stmt 1 view .LVU829
	.loc 2 103 2 view .LVU830
.LVL104:
	.loc 2 103 2 is_stmt 0 view .LVU831
.LBE1005:
.LBE1009:
.LBE1014:
.LBE1083:
	.loc 1 110 2 is_stmt 1 view .LVU832
.LBB1084:
.LBI1073:
	.loc 2 110 13 view .LVU833
.LBB1081:
	.loc 2 111 2 view .LVU834
	.loc 2 112 2 view .LVU835
.LBB1075:
.LBB1076:
	.loc 2 101 8 is_stmt 0 view .LVU836
	ldr	lr, [sp, #16]
.LBE1076:
.LBE1075:
	.loc 2 112 47 view .LVU837
	strb	r2, [r5, #28]
	.loc 2 113 2 is_stmt 1 view .LVU838
.LVL105:
.LBB1079:
.LBI1075:
	.loc 2 97 13 view .LVU839
.LBB1077:
	.loc 2 98 2 view .LVU840
	.loc 2 99 2 view .LVU841
	.loc 2 100 2 view .LVU842
	.loc 2 101 2 view .LVU843
	.loc 2 101 8 is_stmt 0 view .LVU844
	add	ip, lr, r10
	add	ip, ip, #4096
	ldrb	r5, [ip, #28]	@ zero_extendqisi2
.LBE1077:
.LBE1079:
.LBE1081:
.LBE1084:
.LBB1085:
.LBB1086:
	.loc 2 112 47 view .LVU845
	add	r7, r7, r3
.LBE1086:
.LBE1085:
.LBB1104:
.LBB1082:
.LBB1080:
.LBB1078:
	.loc 2 101 8 view .LVU846
	bic	r5, r5, #15
	strb	r5, [ip, #28]
	.loc 2 102 2 is_stmt 1 view .LVU847
	.loc 2 103 2 view .LVU848
.LVL106:
	.loc 2 103 2 is_stmt 0 view .LVU849
.LBE1078:
.LBE1080:
.LBE1082:
.LBE1104:
	.loc 1 111 2 is_stmt 1 view .LVU850
.LBB1105:
.LBI1105:
	.loc 2 110 13 view .LVU851
.LBB1106:
	.loc 2 111 2 view .LVU852
	.loc 2 112 2 view .LVU853
	.loc 2 112 47 is_stmt 0 view .LVU854
	ldr	r5, [sp, #20]
.LBE1106:
.LBE1105:
.LBB1119:
.LBB1097:
	str	r7, [sp, #16]
.LBE1097:
.LBE1119:
.LBB1120:
.LBB1115:
	add	ip, r5, r10
	strb	r2, [ip, #28]
	.loc 2 113 2 is_stmt 1 view .LVU855
.LVL107:
.LBB1107:
.LBI1107:
	.loc 2 97 13 view .LVU856
.LBB1108:
	.loc 2 98 2 view .LVU857
	.loc 2 99 2 view .LVU858
	.loc 2 100 2 view .LVU859
	.loc 2 101 2 view .LVU860
	.loc 2 101 8 is_stmt 0 view .LVU861
	ldr	ip, [sp, #24]
.LBE1108:
.LBE1107:
.LBE1115:
.LBE1120:
.LBB1121:
.LBB1122:
	.loc 2 112 47 view .LVU862
	add	r7, r5, r3
.LBE1122:
.LBE1121:
.LBB1137:
.LBB1116:
.LBB1112:
.LBB1109:
	.loc 2 101 8 view .LVU863
	add	r5, ip, r10
	add	r5, r5, #4096
.LBE1109:
.LBE1112:
.LBE1116:
.LBE1137:
.LBB1138:
.LBB1131:
	.loc 2 112 47 view .LVU864
	str	r7, [sp, #20]
.LBE1131:
.LBE1138:
.LBB1139:
.LBB1117:
.LBB1113:
.LBB1110:
	.loc 2 101 8 view .LVU865
	ldrb	r7, [r5, #28]	@ zero_extendqisi2
.LBE1110:
.LBE1113:
.LBE1117:
.LBE1139:
.LBB1140:
.LBB1098:
.LBB1087:
.LBB1088:
	add	lr, lr, r3
.LBE1088:
.LBE1087:
.LBE1098:
.LBE1140:
.LBB1141:
.LBB1118:
.LBB1114:
.LBB1111:
	bic	r7, r7, #15
	strb	r7, [r5, #28]
	.loc 2 102 2 is_stmt 1 view .LVU866
	.loc 2 103 2 view .LVU867
.LVL108:
	.loc 2 103 2 is_stmt 0 view .LVU868
.LBE1111:
.LBE1114:
.LBE1118:
.LBE1141:
	.loc 1 112 2 is_stmt 1 view .LVU869
.LBB1142:
.LBI1142:
	.loc 2 110 13 view .LVU870
.LBB1143:
	.loc 2 111 2 view .LVU871
	.loc 2 112 2 view .LVU872
	.loc 2 112 47 is_stmt 0 view .LVU873
	add	r5, r8, r10
	strb	r2, [r5, #28]
	.loc 2 113 2 is_stmt 1 view .LVU874
.LVL109:
.LBB1144:
.LBI1144:
	.loc 2 97 13 view .LVU875
.LBB1145:
	.loc 2 98 2 view .LVU876
	.loc 2 99 2 view .LVU877
	.loc 2 100 2 view .LVU878
	.loc 2 101 2 view .LVU879
	.loc 2 101 8 is_stmt 0 view .LVU880
	add	r5, r0, r10
.LBE1145:
.LBE1144:
.LBE1143:
.LBE1142:
.LBB1155:
.LBB1156:
	.loc 2 112 47 view .LVU881
	add	r7, r8, r3
.LBE1156:
.LBE1155:
.LBB1168:
.LBB1152:
.LBB1149:
.LBB1146:
	.loc 2 101 8 view .LVU882
	add	r5, r5, #4096
.LBE1146:
.LBE1149:
.LBE1152:
.LBE1168:
.LBB1169:
.LBB1163:
	.loc 2 112 47 view .LVU883
	str	r7, [sp, #24]
.LBE1163:
.LBE1169:
.LBB1170:
.LBB1153:
.LBB1150:
.LBB1147:
	.loc 2 101 8 view .LVU884
	ldrb	r7, [r5, #28]	@ zero_extendqisi2
.LBE1147:
.LBE1150:
.LBE1153:
.LBE1170:
.LBB1171:
.LBB1132:
.LBB1123:
.LBB1124:
	add	ip, ip, r3
.LBE1124:
.LBE1123:
.LBE1132:
.LBE1171:
.LBB1172:
.LBB1154:
.LBB1151:
.LBB1148:
	bic	r7, r7, #15
	strb	r7, [r5, #28]
	.loc 2 102 2 is_stmt 1 view .LVU885
	.loc 2 103 2 view .LVU886
.LVL110:
	.loc 2 103 2 is_stmt 0 view .LVU887
.LBE1148:
.LBE1151:
.LBE1154:
.LBE1172:
	.loc 1 113 2 is_stmt 1 view .LVU888
.LBB1173:
.LBI1173:
	.loc 2 110 13 view .LVU889
.LBB1174:
	.loc 2 111 2 view .LVU890
	.loc 2 112 2 view .LVU891
	.loc 2 112 47 is_stmt 0 view .LVU892
	ldr	r7, [sp, #28]
.LBE1174:
.LBE1173:
.LBB1184:
.LBB1164:
.LBB1157:
.LBB1158:
	.loc 2 101 8 view .LVU893
	add	r0, r0, r3
.LBE1158:
.LBE1157:
.LBE1164:
.LBE1184:
.LBB1185:
.LBB1181:
	.loc 2 112 47 view .LVU894
	add	r5, r7, r10
	strb	r2, [r5, #28]
	.loc 2 113 2 is_stmt 1 view .LVU895
.LVL111:
.LBB1175:
.LBI1175:
	.loc 2 97 13 view .LVU896
.LBB1176:
	.loc 2 98 2 view .LVU897
	.loc 2 99 2 view .LVU898
	.loc 2 100 2 view .LVU899
	.loc 2 101 2 view .LVU900
.LBE1176:
.LBE1175:
.LBE1181:
.LBE1185:
.LBB1186:
.LBB864:
.LBB855:
.LBB846:
	.loc 2 101 8 is_stmt 0 view .LVU901
	ldr	r5, [sp, #32]
.LBE846:
.LBE855:
	.loc 2 112 47 view .LVU902
	add	r7, r7, r3
.LBB856:
.LBB847:
	.loc 2 101 8 view .LVU903
	add	r3, r5, r3
.LBE847:
.LBE856:
.LBE864:
.LBE1186:
.LBB1187:
.LBB1182:
.LBB1179:
.LBB1177:
	add	r5, r5, r10
	add	r5, r5, #4096
	ldrb	r8, [r5, #28]	@ zero_extendqisi2
.LBE1177:
.LBE1179:
.LBE1182:
.LBE1187:
.LBB1188:
.LBB1099:
.LBB1093:
.LBB1089:
	add	lr, lr, #4096
.LBE1089:
.LBE1093:
.LBE1099:
.LBE1188:
.LBB1189:
.LBB1183:
.LBB1180:
.LBB1178:
	bic	r8, r8, #15
	strb	r8, [r5, #28]
	.loc 2 102 2 is_stmt 1 view .LVU904
	.loc 2 103 2 view .LVU905
.LVL112:
	.loc 2 103 2 is_stmt 0 view .LVU906
.LBE1178:
.LBE1180:
.LBE1183:
.LBE1189:
	.loc 1 115 2 is_stmt 1 view .LVU907
.LBB1190:
.LBI1015:
	.loc 2 110 13 view .LVU908
.LBB1033:
	.loc 2 111 2 view .LVU909
	.loc 2 112 2 view .LVU910
	.loc 2 112 47 is_stmt 0 view .LVU911
	ldr	r5, [sp, #40]
.LBB1027:
.LBB1021:
	.loc 2 101 8 view .LVU912
	ldr	r8, [sp, #44]
.LBE1021:
.LBE1027:
	.loc 2 112 47 view .LVU913
	strb	r2, [r5, #28]
	.loc 2 113 2 is_stmt 1 view .LVU914
.LVL113:
.LBB1028:
.LBI1017:
	.loc 2 97 13 view .LVU915
.LBB1022:
	.loc 2 98 2 view .LVU916
	.loc 2 99 2 view .LVU917
	.loc 2 100 2 view .LVU918
	.loc 2 101 2 view .LVU919
.LBE1022:
.LBE1028:
.LBE1033:
.LBE1190:
.LBB1191:
.LBB1054:
	.loc 2 112 23 is_stmt 0 view .LVU920
	rsbs	r5, r1, #0
	and	r5, r5, #15
	and	r1, r1, #15
	rsbpl	r1, r5, #0
.LBE1054:
.LBE1191:
.LBB1192:
.LBB1034:
.LBB1029:
.LBB1023:
	.loc 2 101 8 view .LVU921
	ldrb	r5, [r8, #28]	@ zero_extendqisi2
.LBE1023:
.LBE1029:
.LBE1034:
.LBE1192:
.LBB1193:
.LBB1133:
.LBB1128:
.LBB1125:
	add	ip, ip, #4096
.LBE1125:
.LBE1128:
.LBE1133:
.LBE1193:
.LBB1194:
.LBB1035:
.LBB1030:
.LBB1024:
	bic	r5, r5, #15
	strb	r5, [r8, #28]
	.loc 2 102 2 is_stmt 1 view .LVU922
	.loc 2 103 2 view .LVU923
.LVL114:
	.loc 2 103 2 is_stmt 0 view .LVU924
.LBE1024:
.LBE1030:
.LBE1035:
.LBE1194:
	.loc 1 116 2 is_stmt 1 view .LVU925
.LBB1195:
.LBI1085:
	.loc 2 110 13 view .LVU926
.LBB1100:
	.loc 2 111 2 view .LVU927
	.loc 2 112 2 view .LVU928
	.loc 2 112 47 is_stmt 0 view .LVU929
	ldr	r5, [sp, #16]
.LBE1100:
.LBE1195:
.LBB1196:
.LBB1197:
	.loc 2 111 40 view .LVU930
	ldr	r8, [sp, #120]
.LBE1197:
.LBE1196:
.LBB1233:
.LBB1101:
	.loc 2 112 47 view .LVU931
	strb	r2, [r5, #28]
	.loc 2 113 2 is_stmt 1 view .LVU932
.LVL115:
.LBB1094:
.LBI1087:
	.loc 2 97 13 view .LVU933
.LBB1090:
	.loc 2 98 2 view .LVU934
	.loc 2 99 2 view .LVU935
	.loc 2 100 2 view .LVU936
	.loc 2 101 2 view .LVU937
.LBE1090:
.LBE1094:
.LBE1101:
.LBE1233:
.LBB1234:
.LBB1216:
	.loc 2 111 40 is_stmt 0 view .LVU938
	ldr	r5, [sp, #120]
.LBE1216:
.LBE1234:
.LBB1235:
.LBB1165:
.LBB1161:
.LBB1159:
	.loc 2 101 8 view .LVU939
	add	r0, r0, #4096
.LBE1159:
.LBE1161:
.LBE1165:
.LBE1235:
.LBB1236:
.LBB1217:
	.loc 2 111 40 view .LVU940
	adds	r5, r5, #6
	str	r5, [sp, #16]
	addmi	r5, r8, #21
.LBE1217:
.LBE1236:
.LBB1237:
.LBB1102:
.LBB1095:
.LBB1091:
	.loc 2 101 8 view .LVU941
	ldrb	r8, [lr, #28]	@ zero_extendqisi2
.LBE1091:
.LBE1095:
.LBE1102:
.LBE1237:
.LBB1238:
.LBB1055:
	.loc 2 111 40 view .LVU942
	asr	r6, r6, #4
.LBE1055:
.LBE1238:
.LBB1239:
.LBB1103:
.LBB1096:
.LBB1092:
	.loc 2 101 8 view .LVU943
	bic	r8, r8, #15
	strb	r8, [lr, #28]
	.loc 2 102 2 is_stmt 1 view .LVU944
	.loc 2 103 2 view .LVU945
.LVL116:
	.loc 2 103 2 is_stmt 0 view .LVU946
.LBE1092:
.LBE1096:
.LBE1103:
.LBE1239:
	.loc 1 117 2 is_stmt 1 view .LVU947
.LBB1240:
.LBI1121:
	.loc 2 110 13 view .LVU948
.LBB1134:
	.loc 2 111 2 view .LVU949
	.loc 2 112 2 view .LVU950
	.loc 2 112 47 is_stmt 0 view .LVU951
	ldr	lr, [sp, #20]
.LBE1134:
.LBE1240:
.LBB1241:
.LBB865:
.LBB857:
.LBB848:
	.loc 2 101 8 view .LVU952
	add	r3, r3, #4096
.LBE848:
.LBE857:
.LBE865:
.LBE1241:
.LBB1242:
.LBB1135:
	.loc 2 112 47 view .LVU953
	strb	r2, [lr, #28]
	.loc 2 113 2 is_stmt 1 view .LVU954
.LVL117:
.LBB1129:
.LBI1123:
	.loc 2 97 13 view .LVU955
.LBB1126:
	.loc 2 98 2 view .LVU956
	.loc 2 99 2 view .LVU957
	.loc 2 100 2 view .LVU958
	.loc 2 101 2 view .LVU959
	.loc 2 101 8 is_stmt 0 view .LVU960
	ldrb	lr, [ip, #28]	@ zero_extendqisi2
.LBE1126:
.LBE1129:
.LBE1135:
.LBE1242:
.LBB1243:
.LBB1056:
	.loc 2 112 47 view .LVU961
	ldr	r8, [sp, #4]
.LBE1056:
.LBE1243:
.LBB1244:
.LBB1136:
.LBB1130:
.LBB1127:
	.loc 2 101 8 view .LVU962
	bic	lr, lr, #15
	strb	lr, [ip, #28]
	.loc 2 102 2 is_stmt 1 view .LVU963
	.loc 2 103 2 view .LVU964
.LVL118:
	.loc 2 103 2 is_stmt 0 view .LVU965
.LBE1127:
.LBE1130:
.LBE1136:
.LBE1244:
	.loc 1 118 2 is_stmt 1 view .LVU966
.LBB1245:
.LBI1155:
	.loc 2 110 13 view .LVU967
.LBB1166:
	.loc 2 111 2 view .LVU968
	.loc 2 112 2 view .LVU969
	.loc 2 112 47 is_stmt 0 view .LVU970
	ldr	ip, [sp, #24]
.LBE1166:
.LBE1245:
.LBB1246:
.LBB1218:
	.loc 2 111 40 view .LVU971
	asr	r5, r5, #4
.LBE1218:
.LBE1246:
.LBB1247:
.LBB1167:
	.loc 2 112 47 view .LVU972
	strb	r2, [ip, #28]
	.loc 2 113 2 is_stmt 1 view .LVU973
.LVL119:
.LBB1162:
.LBI1157:
	.loc 2 97 13 view .LVU974
.LBB1160:
	.loc 2 98 2 view .LVU975
	.loc 2 99 2 view .LVU976
	.loc 2 100 2 view .LVU977
	.loc 2 101 2 view .LVU978
	.loc 2 101 8 is_stmt 0 view .LVU979
	ldrb	ip, [r0, #28]	@ zero_extendqisi2
	bic	ip, ip, #15
	strb	ip, [r0, #28]
	.loc 2 102 2 is_stmt 1 view .LVU980
	.loc 2 103 2 view .LVU981
.LVL120:
	.loc 2 103 2 is_stmt 0 view .LVU982
.LBE1160:
.LBE1162:
.LBE1167:
.LBE1247:
	.loc 1 119 2 is_stmt 1 view .LVU983
.LBB1248:
.LBI841:
	.loc 2 110 13 view .LVU984
.LBB866:
	.loc 2 111 2 view .LVU985
	.loc 2 112 2 view .LVU986
	.loc 2 112 47 is_stmt 0 view .LVU987
	strb	r2, [r7, #28]
	.loc 2 113 2 is_stmt 1 view .LVU988
.LVL121:
.LBB858:
.LBI843:
	.loc 2 97 13 view .LVU989
.LBB849:
	.loc 2 98 2 view .LVU990
	.loc 2 99 2 view .LVU991
	.loc 2 100 2 view .LVU992
	.loc 2 101 2 view .LVU993
	.loc 2 101 8 is_stmt 0 view .LVU994
	ldrb	lr, [r3, #28]	@ zero_extendqisi2
.LBE849:
.LBE858:
.LBE866:
.LBE1248:
.LBB1249:
.LBB1057:
	.loc 2 112 47 view .LVU995
	add	r0, r6, r6, lsl r2
	add	r0, r6, r0, lsl #1
	add	r7, r8, r0
.LBE1057:
.LBE1249:
.LBB1250:
.LBB867:
.LBB859:
.LBB850:
	.loc 2 101 8 view .LVU996
	bic	lr, lr, #15
.LBE850:
.LBE859:
.LBE867:
.LBE1250:
.LBB1251:
.LBB1058:
.LBB1038:
.LBB1039:
	lsl	r6, r0, #4
.LBE1039:
.LBE1038:
.LBE1058:
.LBE1251:
.LBB1252:
.LBB868:
.LBB860:
.LBB851:
	strb	lr, [r3, #28]
	.loc 2 102 2 is_stmt 1 view .LVU997
.LBE851:
.LBE860:
.LBE868:
.LBE1252:
.LBB1253:
.LBB1059:
.LBB1046:
.LBB1040:
	.loc 2 101 8 is_stmt 0 view .LVU998
	add	ip, r8, r1
.LBE1040:
.LBE1046:
.LBE1059:
.LBE1253:
.LBB1254:
.LBB869:
.LBB861:
.LBB852:
	.loc 2 102 2 view .LVU999
	ldr	lr, [sp, #36]
	ldr	r3, [sp, #56]
.LBE852:
.LBE861:
.LBE869:
.LBE1254:
.LBB1255:
.LBB1060:
	.loc 2 112 47 view .LVU1000
	add	r7, r7, r1
	add	r7, r4, r7, lsl #4
.LBB1047:
.LBB1041:
	.loc 2 101 8 view .LVU1001
	add	ip, r6, ip, lsl #4
	add	ip, r4, ip
.LBE1041:
.LBE1047:
.LBE1060:
.LBE1255:
.LBB1256:
.LBB870:
.LBB862:
.LBB853:
	.loc 2 102 2 view .LVU1002
	str	r3, [lr, #28]
	.loc 2 103 2 is_stmt 1 view .LVU1003
.LVL122:
	.loc 2 103 2 is_stmt 0 view .LVU1004
.LBE853:
.LBE862:
.LBE870:
.LBE1256:
	.loc 1 122 2 is_stmt 1 view .LVU1005
.LBB1257:
.LBI1036:
	.loc 2 110 13 view .LVU1006
.LBB1061:
	.loc 2 111 2 view .LVU1007
	.loc 2 112 2 view .LVU1008
	.loc 2 112 47 is_stmt 0 view .LVU1009
	add	r3, r7, r9
	strb	r2, [r3, #28]
	.loc 2 113 2 is_stmt 1 view .LVU1010
.LVL123:
.LBB1048:
.LBI1038:
	.loc 2 97 13 view .LVU1011
.LBB1042:
	.loc 2 98 2 view .LVU1012
	.loc 2 99 2 view .LVU1013
	.loc 2 100 2 view .LVU1014
	.loc 2 101 2 view .LVU1015
	.loc 2 101 8 is_stmt 0 view .LVU1016
	add	r3, ip, r9
	add	r3, r3, #4096
	ldrb	lr, [r3, #28]	@ zero_extendqisi2
	bic	lr, lr, #15
	strb	lr, [r3, #28]
	.loc 2 102 2 is_stmt 1 view .LVU1017
.LBE1042:
.LBE1048:
.LBE1061:
.LBE1257:
.LBB1258:
.LBB1259:
	.loc 2 112 47 is_stmt 0 view .LVU1018
	ldr	r3, [sp, #8]
.LBE1259:
.LBE1258:
.LBB1281:
.LBB1282:
	ldr	lr, [sp, #12]
.LBE1282:
.LBE1281:
.LBB1306:
.LBB1272:
	add	r8, r0, r3, lsl #4
.LBE1272:
.LBE1306:
.LBB1307:
.LBB1297:
	add	r0, r0, lr, lsl #4
.LBE1297:
.LBE1307:
.LBB1308:
.LBB1273:
.LBB1260:
.LBB1261:
	.loc 2 101 8 view .LVU1019
	add	lr, r1, r3, lsl #4
.LBE1261:
.LBE1260:
.LBE1273:
.LBE1308:
.LBB1309:
.LBB1298:
.LBB1283:
.LBB1284:
	ldr	r3, [sp, #12]
.LBE1284:
.LBE1283:
.LBE1298:
.LBE1309:
.LBB1310:
.LBB1274:
	.loc 2 112 47 view .LVU1020
	add	r8, r8, r1
.LBE1274:
.LBE1310:
.LBB1311:
.LBB1299:
	add	r0, r0, r1
.LBE1299:
.LBE1311:
.LBB1312:
.LBB1275:
.LBB1267:
.LBB1262:
	.loc 2 101 8 view .LVU1021
	add	lr, r6, lr, lsl #4
.LBE1262:
.LBE1267:
.LBE1275:
.LBE1312:
.LBB1313:
.LBB1300:
.LBB1291:
.LBB1285:
	add	r1, r1, r3, lsl #4
.LVL124:
	.loc 2 101 8 view .LVU1022
	add	r1, r6, r1, lsl #4
.LBE1285:
.LBE1291:
.LBE1300:
.LBE1313:
.LBB1314:
.LBB1276:
	.loc 2 112 47 view .LVU1023
	add	r8, r4, r8, lsl #4
.LBB1268:
.LBB1263:
	.loc 2 101 8 view .LVU1024
	add	lr, r4, lr
.LBE1263:
.LBE1268:
.LBE1276:
.LBE1314:
.LBB1315:
.LBB1062:
.LBB1049:
.LBB1043:
	.loc 2 102 11 view .LVU1025
	add	r6, r4, r6
.LBE1043:
.LBE1049:
.LBE1062:
.LBE1315:
.LBB1316:
.LBB1277:
	.loc 2 112 47 view .LVU1026
	add	r8, r8, fp
.LBE1277:
.LBE1316:
.LBB1317:
.LBB1063:
.LBB1050:
.LBB1044:
	.loc 2 102 11 view .LVU1027
	add	r6, r6, #8192
.LBE1044:
.LBE1050:
.LBE1063:
.LBE1317:
.LBB1318:
.LBB1278:
.LBB1269:
.LBB1264:
	.loc 2 101 8 view .LVU1028
	add	lr, lr, fp
	add	lr, lr, #4096
.LBE1264:
.LBE1269:
.LBE1278:
.LBE1318:
.LBB1319:
.LBB1301:
.LBB1292:
.LBB1286:
	add	r3, r4, r1
.LBE1286:
.LBE1292:
.LBE1301:
.LBE1319:
.LBB1320:
.LBB1064:
.LBB1051:
.LBB1045:
	.loc 2 102 11 view .LVU1029
	ldr	r1, [r6, #28]
	.loc 2 103 2 is_stmt 1 view .LVU1030
.LVL125:
	.loc 2 103 2 is_stmt 0 view .LVU1031
.LBE1045:
.LBE1051:
.LBE1064:
.LBE1320:
	.loc 1 124 2 is_stmt 1 view .LVU1032
.LBB1321:
.LBI1258:
	.loc 2 110 13 view .LVU1033
.LBB1279:
	.loc 2 111 2 view .LVU1034
	.loc 2 112 2 view .LVU1035
	.loc 2 112 47 is_stmt 0 view .LVU1036
	strb	r2, [r8, #28]
	.loc 2 113 2 is_stmt 1 view .LVU1037
.LVL126:
.LBB1270:
.LBI1260:
	.loc 2 97 13 view .LVU1038
.LBB1265:
	.loc 2 98 2 view .LVU1039
	.loc 2 99 2 view .LVU1040
	.loc 2 100 2 view .LVU1041
	.loc 2 101 2 view .LVU1042
	.loc 2 101 8 is_stmt 0 view .LVU1043
	ldrb	r8, [lr, #28]	@ zero_extendqisi2
.LBE1265:
.LBE1270:
.LBE1279:
.LBE1321:
.LBB1322:
.LBB1302:
	.loc 2 112 47 view .LVU1044
	add	r0, r4, r0, lsl #4
.LBE1302:
.LBE1322:
.LBB1323:
.LBB1280:
.LBB1271:
.LBB1266:
	.loc 2 101 8 view .LVU1045
	bic	r8, r8, #15
	strb	r8, [lr, #28]
	.loc 2 102 2 is_stmt 1 view .LVU1046
	.loc 2 103 2 view .LVU1047
.LVL127:
	.loc 2 103 2 is_stmt 0 view .LVU1048
.LBE1266:
.LBE1271:
.LBE1280:
.LBE1323:
	.loc 1 125 2 is_stmt 1 view .LVU1049
.LBB1324:
.LBI1324:
	.loc 2 110 13 view .LVU1050
.LBB1325:
	.loc 2 111 2 view .LVU1051
	.loc 2 112 2 view .LVU1052
	.loc 2 112 47 is_stmt 0 view .LVU1053
	add	lr, r7, fp
	strb	r2, [lr, #28]
	.loc 2 113 2 is_stmt 1 view .LVU1054
.LVL128:
.LBB1326:
.LBI1326:
	.loc 2 97 13 view .LVU1055
.LBB1327:
	.loc 2 98 2 view .LVU1056
	.loc 2 99 2 view .LVU1057
	.loc 2 100 2 view .LVU1058
	.loc 2 101 2 view .LVU1059
	.loc 2 101 8 is_stmt 0 view .LVU1060
	add	lr, ip, fp
	add	lr, lr, #4096
	ldrb	r8, [lr, #28]	@ zero_extendqisi2
.LBE1327:
.LBE1326:
.LBE1325:
.LBE1324:
.LBB1331:
.LBB1303:
	.loc 2 112 47 view .LVU1061
	add	r0, r0, fp
.LBB1293:
.LBB1287:
	.loc 2 101 8 view .LVU1062
	add	r3, r3, fp
.LBE1287:
.LBE1293:
.LBE1303:
.LBE1331:
.LBB1332:
.LBB1330:
.LBB1329:
.LBB1328:
	bic	r8, r8, #15
	strb	r8, [lr, #28]
	.loc 2 102 2 is_stmt 1 view .LVU1063
	.loc 2 103 2 view .LVU1064
.LVL129:
	.loc 2 103 2 is_stmt 0 view .LVU1065
.LBE1328:
.LBE1329:
.LBE1330:
.LBE1332:
	.loc 1 126 2 is_stmt 1 view .LVU1066
.LBB1333:
.LBI1281:
	.loc 2 110 13 view .LVU1067
.LBB1304:
	.loc 2 111 2 view .LVU1068
	.loc 2 112 2 view .LVU1069
.LBB1294:
.LBB1288:
	.loc 2 101 8 is_stmt 0 view .LVU1070
	add	r3, r3, #4096
.LBE1288:
.LBE1294:
	.loc 2 112 47 view .LVU1071
	strb	r2, [r0, #28]
	.loc 2 113 2 is_stmt 1 view .LVU1072
.LVL130:
.LBB1295:
.LBI1283:
	.loc 2 97 13 view .LVU1073
.LBB1289:
	.loc 2 98 2 view .LVU1074
	.loc 2 99 2 view .LVU1075
	.loc 2 100 2 view .LVU1076
	.loc 2 101 2 view .LVU1077
	.loc 2 101 8 is_stmt 0 view .LVU1078
	ldrb	r0, [r3, #28]	@ zero_extendqisi2
.LBE1289:
.LBE1295:
.LBE1304:
.LBE1333:
.LBB1334:
.LBB1219:
	.loc 2 112 47 view .LVU1079
	ldr	r8, [sp, #4]
.LBE1219:
.LBE1334:
.LBB1335:
.LBB1305:
.LBB1296:
.LBB1290:
	.loc 2 101 8 view .LVU1080
	bic	r0, r0, #15
	strb	r0, [r3, #28]
	.loc 2 102 2 is_stmt 1 view .LVU1081
	.loc 2 103 2 view .LVU1082
.LVL131:
	.loc 2 103 2 is_stmt 0 view .LVU1083
.LBE1290:
.LBE1296:
.LBE1305:
.LBE1335:
	.loc 1 128 2 is_stmt 1 view .LVU1084
.LBB1336:
.LBI1336:
	.loc 2 110 13 view .LVU1085
.LBB1337:
	.loc 2 111 2 view .LVU1086
	.loc 2 112 2 view .LVU1087
.LBE1337:
.LBE1336:
.LBB1360:
.LBB1220:
	.loc 2 112 23 is_stmt 0 view .LVU1088
	ldr	r0, [sp, #16]
.LBE1220:
.LBE1360:
.LBB1361:
.LBB1352:
	.loc 2 112 47 view .LVU1089
	add	r7, r7, r10
.LBE1352:
.LBE1361:
.LBB1362:
.LBB1221:
	.loc 2 112 23 view .LVU1090
	rsbs	r3, r0, #0
	and	lr, r0, #15
.LBE1221:
.LBE1362:
.LBB1363:
.LBB1353:
.LBB1338:
.LBB1339:
	.loc 2 101 8 view .LVU1091
	add	ip, ip, r10
.LBE1339:
.LBE1338:
.LBE1353:
.LBE1363:
.LBB1364:
.LBB1222:
	.loc 2 112 47 view .LVU1092
	add	r0, r5, r5, lsl r2
	.loc 2 112 23 view .LVU1093
	and	r3, r3, #15
.LBE1222:
.LBE1364:
.LBB1365:
.LBB1354:
	.loc 2 112 47 view .LVU1094
	strb	r2, [r7, #28]
	.loc 2 113 2 is_stmt 1 view .LVU1095
.LVL132:
.LBB1346:
.LBI1338:
	.loc 2 97 13 view .LVU1096
.LBB1340:
	.loc 2 98 2 view .LVU1097
	.loc 2 99 2 view .LVU1098
	.loc 2 100 2 view .LVU1099
	.loc 2 101 2 view .LVU1100
.LBE1340:
.LBE1346:
.LBE1354:
.LBE1365:
.LBB1366:
.LBB1223:
	.loc 2 112 23 is_stmt 0 view .LVU1101
	rsbpl	lr, r3, #0
	.loc 2 112 47 view .LVU1102
	add	r0, r5, r0, lsl #1
.LBE1223:
.LBE1366:
.LBB1367:
.LBB1355:
.LBB1347:
.LBB1341:
	.loc 2 101 8 view .LVU1103
	add	ip, ip, #4096
.LBE1341:
.LBE1347:
.LBE1355:
.LBE1367:
.LBB1368:
.LBB1224:
	.loc 2 112 47 view .LVU1104
	add	r7, r8, r0
.LBB1198:
.LBB1199:
	.loc 2 101 8 view .LVU1105
	add	r3, r8, lr
.LBE1199:
.LBE1198:
.LBE1224:
.LBE1368:
.LBB1369:
.LBB1356:
.LBB1348:
.LBB1342:
	ldrb	r8, [ip, #28]	@ zero_extendqisi2
.LBE1342:
.LBE1348:
.LBE1356:
.LBE1369:
.LBB1370:
.LBB1225:
.LBB1208:
.LBB1200:
	lsl	r5, r0, #4
.LBE1200:
.LBE1208:
	.loc 2 112 47 view .LVU1106
	add	r7, r7, lr
	add	r7, r4, r7, lsl #4
.LBE1225:
.LBE1370:
.LBB1371:
.LBB1357:
.LBB1349:
.LBB1343:
	.loc 2 102 2 view .LVU1107
	add	r1, r1, #5
.LBE1343:
.LBE1349:
.LBE1357:
.LBE1371:
.LBB1372:
.LBB1226:
.LBB1209:
.LBB1201:
	.loc 2 101 8 view .LVU1108
	add	r3, r5, r3, lsl #4
.LBE1201:
.LBE1209:
.LBE1226:
.LBE1372:
.LBB1373:
.LBB1358:
.LBB1350:
.LBB1344:
	bic	r8, r8, #15
	strb	r8, [ip, #28]
	.loc 2 102 2 is_stmt 1 view .LVU1109
.LBE1344:
.LBE1350:
.LBE1358:
.LBE1373:
.LBB1374:
.LBB1227:
.LBB1210:
.LBB1202:
	.loc 2 101 8 is_stmt 0 view .LVU1110
	add	r3, r4, r3
.LBE1202:
.LBE1210:
.LBE1227:
.LBE1374:
.LBB1375:
.LBB1359:
.LBB1351:
.LBB1345:
	.loc 2 102 2 view .LVU1111
	str	r1, [r6, #28]
	.loc 2 103 2 is_stmt 1 view .LVU1112
.LVL133:
	.loc 2 103 2 is_stmt 0 view .LVU1113
.LBE1345:
.LBE1351:
.LBE1359:
.LBE1375:
	.loc 1 130 2 is_stmt 1 view .LVU1114
.LBB1376:
.LBI1196:
	.loc 2 110 13 view .LVU1115
.LBB1228:
	.loc 2 111 2 view .LVU1116
	.loc 2 112 2 view .LVU1117
	.loc 2 112 47 is_stmt 0 view .LVU1118
	add	r1, r7, r9
	strb	r2, [r1, #28]
	.loc 2 113 2 is_stmt 1 view .LVU1119
.LVL134:
.LBB1211:
.LBI1198:
	.loc 2 97 13 view .LVU1120
.LBB1203:
	.loc 2 98 2 view .LVU1121
	.loc 2 99 2 view .LVU1122
	.loc 2 100 2 view .LVU1123
	.loc 2 101 2 view .LVU1124
	.loc 2 101 8 is_stmt 0 view .LVU1125
	add	r1, r3, r9
	add	r1, r1, #4096
	ldrb	ip, [r1, #28]	@ zero_extendqisi2
.LBE1203:
.LBE1211:
.LBE1228:
.LBE1376:
.LBB1377:
.LBB1378:
	.loc 2 112 47 view .LVU1126
	ldr	r9, [sp, #12]
.LVL135:
	.loc 2 112 47 view .LVU1127
.LBE1378:
.LBE1377:
.LBB1404:
.LBB1229:
.LBB1212:
.LBB1204:
	.loc 2 101 8 view .LVU1128
	bic	ip, ip, #15
	strb	ip, [r1, #28]
	.loc 2 102 2 is_stmt 1 view .LVU1129
.LBE1204:
.LBE1212:
.LBE1229:
.LBE1404:
.LBB1405:
.LBB1406:
	.loc 2 112 47 is_stmt 0 view .LVU1130
	ldr	ip, [sp, #8]
.LBE1406:
.LBE1405:
.LBB1428:
.LBB1395:
.LBB1379:
.LBB1380:
	.loc 2 101 8 view .LVU1131
	add	r6, lr, r9, lsl #4
.LBE1380:
.LBE1379:
.LBE1395:
.LBE1428:
.LBB1429:
.LBB1421:
	.loc 2 112 47 view .LVU1132
	add	r1, r0, ip, lsl #4
.LBB1407:
.LBB1408:
	.loc 2 101 8 view .LVU1133
	add	ip, lr, ip, lsl #4
.LBE1408:
.LBE1407:
	.loc 2 112 47 view .LVU1134
	add	r1, r1, lr
.LBB1415:
.LBB1409:
	.loc 2 101 8 view .LVU1135
	add	ip, r5, ip, lsl #4
.LBE1409:
.LBE1415:
.LBE1421:
.LBE1429:
.LBB1430:
.LBB1396:
.LBB1388:
.LBB1381:
	add	r6, r5, r6, lsl #4
.LBE1381:
.LBE1388:
.LBE1396:
.LBE1430:
.LBB1431:
.LBB1422:
	.loc 2 112 47 view .LVU1136
	add	r1, r4, r1, lsl #4
.LBB1416:
.LBB1410:
	.loc 2 101 8 view .LVU1137
	add	ip, r4, ip
.LBE1410:
.LBE1416:
.LBE1422:
.LBE1431:
.LBB1432:
.LBB1230:
.LBB1213:
.LBB1205:
	.loc 2 102 11 view .LVU1138
	add	r5, r4, r5
.LBE1205:
.LBE1213:
.LBE1230:
.LBE1432:
.LBB1433:
.LBB1423:
	.loc 2 112 47 view .LVU1139
	add	r1, r1, fp
.LBE1423:
.LBE1433:
.LBB1434:
.LBB1231:
.LBB1214:
.LBB1206:
	.loc 2 102 11 view .LVU1140
	add	r5, r5, #8192
.LBE1206:
.LBE1214:
.LBE1231:
.LBE1434:
.LBB1435:
.LBB1424:
.LBB1417:
.LBB1411:
	.loc 2 101 8 view .LVU1141
	add	ip, ip, fp
.LBE1411:
.LBE1417:
.LBE1424:
.LBE1435:
.LBB1436:
.LBB1397:
	.loc 2 112 47 view .LVU1142
	add	r0, r0, r9, lsl #4
.LBE1397:
.LBE1436:
.LBB1437:
.LBB1425:
.LBB1418:
.LBB1412:
	.loc 2 101 8 view .LVU1143
	add	ip, ip, #4096
.LBE1412:
.LBE1418:
.LBE1425:
.LBE1437:
.LBB1438:
.LBB1398:
	.loc 2 112 47 view .LVU1144
	add	r0, r0, lr
.LBE1398:
.LBE1438:
.LBB1439:
.LBB1232:
.LBB1215:
.LBB1207:
	.loc 2 102 11 view .LVU1145
	ldr	lr, [r5, #28]
.LVL136:
	.loc 2 103 2 is_stmt 1 view .LVU1146
	.loc 2 103 2 is_stmt 0 view .LVU1147
.LBE1207:
.LBE1215:
.LBE1232:
.LBE1439:
	.loc 1 132 2 is_stmt 1 view .LVU1148
.LBB1440:
.LBI1405:
	.loc 2 110 13 view .LVU1149
.LBB1426:
	.loc 2 111 2 view .LVU1150
	.loc 2 112 2 view .LVU1151
	.loc 2 112 47 is_stmt 0 view .LVU1152
	strb	r2, [r1, #28]
	.loc 2 113 2 is_stmt 1 view .LVU1153
.LVL137:
.LBB1419:
.LBI1407:
	.loc 2 97 13 view .LVU1154
.LBB1413:
	.loc 2 98 2 view .LVU1155
	.loc 2 99 2 view .LVU1156
	.loc 2 100 2 view .LVU1157
	.loc 2 101 2 view .LVU1158
	.loc 2 101 8 is_stmt 0 view .LVU1159
	ldrb	r1, [ip, #28]	@ zero_extendqisi2
.LBE1413:
.LBE1419:
.LBE1426:
.LBE1440:
.LBB1441:
.LBB1399:
	.loc 2 112 47 view .LVU1160
	add	r0, r4, r0, lsl #4
.LBE1399:
.LBE1441:
.LBB1442:
.LBB1427:
.LBB1420:
.LBB1414:
	.loc 2 101 8 view .LVU1161
	bic	r1, r1, #15
	strb	r1, [ip, #28]
	.loc 2 102 2 is_stmt 1 view .LVU1162
	.loc 2 103 2 view .LVU1163
.LVL138:
	.loc 2 103 2 is_stmt 0 view .LVU1164
.LBE1414:
.LBE1420:
.LBE1427:
.LBE1442:
	.loc 1 133 2 is_stmt 1 view .LVU1165
.LBB1443:
.LBI1443:
	.loc 2 110 13 view .LVU1166
.LBB1444:
	.loc 2 111 2 view .LVU1167
	.loc 2 112 2 view .LVU1168
	.loc 2 112 47 is_stmt 0 view .LVU1169
	add	r1, r7, fp
	strb	r2, [r1, #28]
	.loc 2 113 2 is_stmt 1 view .LVU1170
.LVL139:
.LBB1445:
.LBI1445:
	.loc 2 97 13 view .LVU1171
.LBB1446:
	.loc 2 98 2 view .LVU1172
	.loc 2 99 2 view .LVU1173
	.loc 2 100 2 view .LVU1174
	.loc 2 101 2 view .LVU1175
	.loc 2 101 8 is_stmt 0 view .LVU1176
	add	r1, r3, fp
	add	r1, r1, #4096
	ldrb	ip, [r1, #28]	@ zero_extendqisi2
.LBE1446:
.LBE1445:
.LBE1444:
.LBE1443:
.LBB1453:
.LBB1400:
.LBB1389:
.LBB1382:
	add	r4, r4, r6
.LVL140:
	.loc 2 101 8 view .LVU1177
.LBE1382:
.LBE1389:
	.loc 2 112 47 view .LVU1178
	add	r0, r0, fp
.LBB1390:
.LBB1383:
	.loc 2 101 8 view .LVU1179
	add	r4, r4, fp
.LBE1383:
.LBE1390:
.LBE1400:
.LBE1453:
.LBB1454:
.LBB1451:
.LBB1449:
.LBB1447:
	bic	ip, ip, #15
	strb	ip, [r1, #28]
.LBE1447:
.LBE1449:
.LBE1451:
.LBE1454:
.LBB1455:
.LBB1401:
.LBB1391:
.LBB1384:
	add	r4, r4, #4096
.LBE1384:
.LBE1391:
	.loc 2 112 47 view .LVU1180
	strb	r2, [r0, #28]
.LBB1392:
.LBB1385:
	.loc 2 101 8 view .LVU1181
	ldrb	r1, [r4, #28]	@ zero_extendqisi2
.LBE1385:
.LBE1392:
.LBE1401:
.LBE1455:
.LBB1456:
.LBB347:
	.loc 2 112 47 view .LVU1182
	add	r7, r7, r10
.LBE347:
.LBE1456:
.LBB1457:
.LBB1452:
.LBB1450:
.LBB1448:
	.loc 2 102 2 is_stmt 1 view .LVU1183
	.loc 2 103 2 view .LVU1184
.LVL141:
	.loc 2 103 2 is_stmt 0 view .LVU1185
.LBE1448:
.LBE1450:
.LBE1452:
.LBE1457:
	.loc 1 134 2 is_stmt 1 view .LVU1186
.LBB1458:
.LBI1377:
	.loc 2 110 13 view .LVU1187
.LBB1402:
	.loc 2 111 2 view .LVU1188
	.loc 2 112 2 view .LVU1189
	.loc 2 113 2 view .LVU1190
.LBB1393:
.LBI1379:
	.loc 2 97 13 view .LVU1191
.LBB1386:
	.loc 2 98 2 view .LVU1192
	.loc 2 99 2 view .LVU1193
	.loc 2 100 2 view .LVU1194
	.loc 2 101 2 view .LVU1195
.LBE1386:
.LBE1393:
.LBE1402:
.LBE1458:
.LBB1459:
.LBB348:
.LBB343:
.LBB339:
	.loc 2 101 8 is_stmt 0 view .LVU1196
	add	r3, r3, r10
.LBE339:
.LBE343:
.LBE348:
.LBE1459:
.LBB1460:
.LBB1403:
.LBB1394:
.LBB1387:
	bic	r1, r1, #15
	strb	r1, [r4, #28]
	.loc 2 102 2 is_stmt 1 view .LVU1197
	.loc 2 103 2 view .LVU1198
.LVL142:
	.loc 2 103 2 is_stmt 0 view .LVU1199
.LBE1387:
.LBE1394:
.LBE1403:
.LBE1460:
	.loc 1 136 2 is_stmt 1 view .LVU1200
.LBB1461:
.LBI334:
	.loc 2 110 13 view .LVU1201
.LBB349:
	.loc 2 111 2 view .LVU1202
	.loc 2 112 2 view .LVU1203
.LBB344:
.LBB340:
	.loc 2 101 8 is_stmt 0 view .LVU1204
	add	r3, r3, #4096
.LBE340:
.LBE344:
	.loc 2 112 47 view .LVU1205
	strb	r2, [r7, #28]
	.loc 2 113 2 is_stmt 1 view .LVU1206
.LVL143:
.LBB345:
.LBI336:
	.loc 2 97 13 view .LVU1207
.LBB341:
	.loc 2 98 2 view .LVU1208
	.loc 2 99 2 view .LVU1209
	.loc 2 100 2 view .LVU1210
	.loc 2 101 2 view .LVU1211
	.loc 2 101 8 is_stmt 0 view .LVU1212
	ldrb	r2, [r3, #28]	@ zero_extendqisi2
	.loc 2 102 2 view .LVU1213
	add	lr, lr, #5
	.loc 2 101 8 view .LVU1214
	bic	r2, r2, #15
	strb	r2, [r3, #28]
	.loc 2 102 2 is_stmt 1 view .LVU1215
	.loc 2 103 2 is_stmt 0 view .LVU1216
	ldr	r2, [sp, #64]
	ldr	r3, [sp, #60]
	.loc 2 102 2 view .LVU1217
	str	lr, [r5, #28]
	.loc 2 103 2 is_stmt 1 view .LVU1218
	str	r3, [r2, #668]
.LVL144:
	.loc 2 103 2 is_stmt 0 view .LVU1219
.LBE341:
.LBE345:
.LBE349:
.LBE1461:
	.loc 1 137 1 view .LVU1220
	add	sp, sp, #84
	.cfi_remember_state
	.cfi_def_cfa_offset 36
	@ sp needed
	pop	{r4, r5, r6, r7, r8, r9, r10, fp, pc}
.LVL145:
.L4:
	.cfi_restore_state
.LBB1462:
	.loc 1 53 3 is_stmt 1 view .LVU1221
.LBB271:
.LBI271:
	.loc 2 110 13 view .LVU1222
.LBB272:
	.loc 2 111 2 view .LVU1223
	.loc 2 111 40 is_stmt 0 view .LVU1224
	ldr	r3, [sp, #120]
	.loc 2 112 47 view .LVU1225
	mov	r2, #6
	.loc 2 111 40 view .LVU1226
	adds	ip, r3, #1
.LVL146:
	.loc 2 111 40 view .LVU1227
	addmi	r3, r3, #16
	movpl	r3, ip
	.loc 2 112 23 view .LVU1228
	rsbs	r1, ip, #0
	and	r1, r1, #15
	and	ip, ip, #15
.LVL147:
	.loc 2 111 40 view .LVU1229
	asr	r3, r3, #4
.LVL148:
	.loc 2 112 2 is_stmt 1 view .LVU1230
	.loc 2 112 23 is_stmt 0 view .LVU1231
	rsbpl	ip, r1, #0
	.loc 2 112 47 view .LVU1232
	lsl	r1, r5, #4
	str	r1, [sp, #4]
	add	r1, r3, r3, lsl #8
	add	r3, r3, r1, lsl #1
.LVL149:
.LBB273:
.LBB274:
	.loc 2 101 8 view .LVU1233
	lsl	r1, r3, #4
.LBE274:
.LBE273:
	.loc 2 112 47 view .LVU1234
	add	r3, r3, r5, lsl #4
.LBB279:
.LBB275:
	.loc 2 101 8 view .LVU1235
	add	r0, ip, r5, lsl #4
.LBE275:
.LBE279:
	.loc 2 112 47 view .LVU1236
	add	r3, r3, ip
.LBB280:
.LBB276:
	.loc 2 101 8 view .LVU1237
	add	r0, r1, r0, lsl #4
.LBE276:
.LBE280:
	.loc 2 112 47 view .LVU1238
	add	r3, r4, r3, lsl #4
	add	r3, r3, fp
.LBB281:
.LBB277:
	.loc 2 101 8 view .LVU1239
	add	r0, r4, r0
.LBE277:
.LBE281:
	.loc 2 112 47 view .LVU1240
	strb	r2, [r3, #28]
	.loc 2 113 2 is_stmt 1 view .LVU1241
.LVL150:
.LBB282:
.LBI273:
	.loc 2 97 13 view .LVU1242
.LBB278:
	.loc 2 98 2 view .LVU1243
	.loc 2 99 2 view .LVU1244
	.loc 2 100 2 view .LVU1245
	.loc 2 101 2 view .LVU1246
	.loc 2 101 8 is_stmt 0 view .LVU1247
	add	r3, r0, fp
	add	r3, r3, #4096
	ldrb	r2, [r3, #28]	@ zero_extendqisi2
	.loc 2 102 2 view .LVU1248
	add	r1, r4, r1
	.loc 2 101 8 view .LVU1249
	bic	r2, r2, #15
	strb	r2, [r3, #28]
	.loc 2 102 2 is_stmt 1 view .LVU1250
	add	r1, r1, #8192
	ldr	r3, [r1, #28]
	.loc 2 103 9 is_stmt 0 view .LVU1251
	add	lr, r4, #65536
	.loc 2 102 2 view .LVU1252
	add	r3, r3, #1
	str	r3, [r1, #28]
	.loc 2 103 2 is_stmt 1 view .LVU1253
	ldr	r3, [lr, #668]
	.loc 2 103 9 is_stmt 0 view .LVU1254
	str	lr, [sp, #64]
	.loc 2 103 2 view .LVU1255
	add	r3, r3, #1
	.loc 2 104 1 view .LVU1256
	b	.L5
.LBE278:
.LBE282:
.LBE272:
.LBE271:
.LBE1462:
	.cfi_endproc
.LFE126:
	.size	Chunk_MakeTree, .-Chunk_MakeTree
	.section	.text.TestGen_Generate,"ax",%progbits
	.align	2
	.global	TestGen_Generate
	.syntax unified
	.arm
	.type	TestGen_Generate, %function
TestGen_Generate:
.LVL151:
.LFB125:
	.loc 1 7 70 is_stmt 1 view -0
	.cfi_startproc
	@ args = 4, pretend = 0, frame = 16
	@ frame_needed = 0, uses_anonymous_args = 0
	.loc 1 8 2 view .LVU1258
	.loc 1 7 70 is_stmt 0 view .LVU1259
	push	{r4, r5, r6, r7, r8, r9, r10, fp, lr}
	.cfi_def_cfa_offset 36
	.cfi_offset 4, -36
	.cfi_offset 5, -32
	.cfi_offset 6, -28
	.cfi_offset 7, -24
	.cfi_offset 8, -20
	.cfi_offset 9, -16
	.cfi_offset 10, -12
	.cfi_offset 11, -8
	.cfi_offset 14, -4
.LBB1477:
	.loc 1 9 11 view .LVU1260
	mov	r10, #0
	mov	r9, #14
.LBE1477:
	.loc 1 7 70 view .LVU1261
	sub	sp, sp, #28
	.cfi_def_cfa_offset 64
.LVL152:
	.loc 1 9 2 is_stmt 1 view .LVU1262
.LBB1504:
	.loc 1 9 7 view .LVU1263
	.loc 1 9 20 view .LVU1264
.LBB1478:
	.loc 1 10 3 view .LVU1265
	.loc 1 11 3 view .LVU1266
.LBE1478:
.LBE1504:
	.loc 1 7 70 is_stmt 0 view .LVU1267
	add	r7, sp, #12
	stm	r7, {r1, r2, r3}
.LBB1505:
.LBB1502:
.LBB1479:
.LBB1480:
.LBB1481:
.LBB1482:
.LBB1483:
	.loc 1 154 19 view .LVU1268
	ldr	r6, .L23
.LVL153:
.L17:
	.loc 1 154 19 view .LVU1269
.LBE1483:
.LBE1482:
.LBE1481:
.LBE1480:
.LBE1479:
	.loc 1 28 3 is_stmt 1 view .LVU1270
.LBB1500:
	.loc 1 28 8 view .LVU1271
	.loc 1 28 21 view .LVU1272
	.loc 1 28 12 is_stmt 0 view .LVU1273
	mov	r8, #0
.LVL154:
.L8:
.LBB1498:
	.loc 1 30 22 is_stmt 1 view .LVU1274
	.loc 1 30 13 is_stmt 0 view .LVU1275
	mov	r4, #0
	lsl	r5, r8, #8
	b	.L10
.LVL155:
.L12:
	.loc 1 30 31 is_stmt 1 view .LVU1276
	add	r4, r4, #1
.LVL156:
	.loc 1 30 22 view .LVU1277
	cmp	r4, #16
	beq	.L11
.LVL157:
.L10:
	.loc 1 32 5 view .LVU1278
	.loc 1 32 7 is_stmt 0 view .LVU1279
	cmp	r10, #16
	bne	.L12
.LVL158:
.L9:
	.loc 1 33 6 is_stmt 1 view .LVU1280
	ldr	r2, [sp, #16]
.LVL159:
.LBB1491:
.LBI1491:
	.loc 2 110 13 view .LVU1281
.LBB1492:
	.loc 2 111 2 view .LVU1282
	.loc 2 112 2 view .LVU1283
	.loc 2 112 47 is_stmt 0 view .LVU1284
	add	r3, r2, r5
	add	r3, r3, r4
	add	r1, r3, #8256
	strb	r9, [r1, #12]
	.loc 2 113 2 is_stmt 1 view .LVU1285
.LVL160:
.LBB1493:
.LBI1493:
	.loc 2 97 13 view .LVU1286
.LBB1494:
	.loc 2 98 2 view .LVU1287
	.loc 2 99 2 view .LVU1288
	.loc 2 100 2 view .LVU1289
	.loc 2 101 2 view .LVU1290
	.loc 2 101 8 is_stmt 0 view .LVU1291
	add	r3, r3, #12352
	ldrb	r1, [r3, #12]	@ zero_extendqisi2
	.loc 2 102 2 view .LVU1292
	add	r0, r2, #16384
	.loc 2 101 8 view .LVU1293
	bic	r1, r1, #15
	strb	r1, [r3, #12]
	.loc 2 102 2 is_stmt 1 view .LVU1294
	ldr	r3, [r0, #76]
	.loc 2 103 2 is_stmt 0 view .LVU1295
	add	r2, r2, #65536
.LVL161:
	.loc 2 102 2 view .LVU1296
	add	r3, r3, #1
	str	r3, [r0, #76]
	.loc 2 103 2 is_stmt 1 view .LVU1297
	ldr	r3, [r2, #668]
	add	r3, r3, #1
	str	r3, [r2, #668]
.LVL162:
	.loc 2 103 2 is_stmt 0 view .LVU1298
.LBE1494:
.LBE1493:
.LBE1492:
.LBE1491:
	.loc 1 34 6 is_stmt 1 view .LVU1299
.LBB1495:
.LBB1485:
.LBI1482:
	.loc 1 139 5 view .LVU1300
.LBB1484:
	.loc 1 141 2 view .LVU1301
	.loc 1 143 2 view .LVU1302
	.loc 1 145 3 view .LVU1303
	.loc 1 146 3 view .LVU1304
	.loc 1 154 2 view .LVU1305
	.loc 1 154 12 is_stmt 0 view .LVU1306
	bl	rand
.LVL163:
	.loc 1 155 2 is_stmt 1 view .LVU1307
	.loc 1 154 19 is_stmt 0 view .LVU1308
	smull	r3, r2, r6, r0
	asr	r3, r0, #31
	rsb	r3, r3, r2, asr #1
	add	r2, r3, r3, lsl #2
	add	r3, r3, r2, lsl #1
	sub	r0, r0, r3
	.loc 1 154 9 view .LVU1309
	add	r0, r0, #3
.LBE1484:
.LBE1485:
	.loc 1 34 9 view .LVU1310
	cmp	r8, r0
	bne	.L12
	.loc 1 36 7 is_stmt 1 view .LVU1311
.LVL164:
.LBB1486:
.LBI1486:
	.loc 1 139 5 view .LVU1312
.LBB1487:
	.loc 1 141 2 view .LVU1313
	.loc 1 143 2 view .LVU1314
	.loc 1 145 3 view .LVU1315
	.loc 1 146 3 view .LVU1316
	.loc 1 154 2 view .LVU1317
	.loc 1 154 12 is_stmt 0 view .LVU1318
	bl	rand
.LVL165:
.LBE1487:
.LBE1486:
.LBE1495:
	.loc 1 30 31 is_stmt 1 view .LVU1319
.LBB1496:
.LBB1489:
.LBB1488:
	.loc 1 155 2 view .LVU1320
	.loc 1 154 19 is_stmt 0 view .LVU1321
	smull	r3, r2, r6, r0
	asr	r3, r0, #31
	rsb	r3, r3, r2, asr #1
	add	r2, r3, r3, lsl #2
	add	r3, r3, r2, lsl #1
	sub	fp, r0, r3
	.loc 1 154 9 view .LVU1322
	add	r3, fp, #3
.LBE1488:
.LBE1489:
	.loc 1 36 10 view .LVU1323
	cmp	r3, r4
	beq	.L13
.LBE1496:
	.loc 1 30 31 view .LVU1324
	add	r4, r4, #1
.LVL166:
	.loc 1 30 22 is_stmt 1 view .LVU1325
	cmp	r4, #16
	bne	.L9
.LVL167:
.L11:
	.loc 1 30 22 is_stmt 0 view .LVU1326
.LBE1498:
	.loc 1 28 30 is_stmt 1 discriminator 2 view .LVU1327
	add	r8, r8, #1
.LVL168:
	.loc 1 28 21 discriminator 2 view .LVU1328
	cmp	r8, #16
	bne	.L8
.LBE1500:
.LBE1502:
	.loc 1 9 27 discriminator 2 view .LVU1329
	add	r10, r10, #1
.LVL169:
	.loc 1 9 20 discriminator 2 view .LVU1330
	cmp	r10, #17
	beq	.L7
.LBB1503:
	.loc 1 10 3 view .LVU1331
.LVL170:
	.loc 1 11 3 view .LVU1332
	ldr	r3, .L23+4
	add	r3, r3, r10
	ldrb	r9, [r3, #-1]	@ zero_extendqisi2
	b	.L17
.LVL171:
.L13:
.LBB1501:
.LBB1499:
.LBB1497:
.LBB1490:
	.loc 1 38 8 view .LVU1333
	mov	r2, #16
	str	r4, [sp, #4]
	str	r2, [sp]
	mov	r3, r8
	ldm	r7, {r0, r1, r2}
	bl	Chunk_MakeTree
.LVL172:
.LBE1490:
.LBE1497:
	.loc 1 30 31 view .LVU1334
	add	r4, fp, #4
.LVL173:
	.loc 1 30 22 view .LVU1335
	.loc 1 32 5 view .LVU1336
	.loc 1 32 5 is_stmt 0 view .LVU1337
	b	.L9
.LVL174:
.L7:
	.loc 1 32 5 view .LVU1338
.LBE1499:
.LBE1501:
.LBE1503:
.LBE1505:
	.loc 1 45 1 view .LVU1339
	add	sp, sp, #28
	.cfi_def_cfa_offset 36
	@ sp needed
	pop	{r4, r5, r6, r7, r8, r9, r10, fp, pc}
.LVL175:
.L24:
	.loc 1 45 1 view .LVU1340
	.align	2
.L23:
	.word	780903145
	.word	.LANCHOR0
	.cfi_endproc
.LFE125:
	.size	TestGen_Generate, .-TestGen_Generate
	.global	__aeabi_idivmod
	.section	.text.random_number,"ax",%progbits
	.align	2
	.global	random_number
	.syntax unified
	.arm
	.type	random_number, %function
random_number:
.LVL176:
.LFB127:
	.loc 1 140 1 is_stmt 1 view -0
	.cfi_startproc
	@ args = 0, pretend = 0, frame = 0
	@ frame_needed = 0, uses_anonymous_args = 0
	.loc 1 141 2 view .LVU1342
	.loc 1 143 2 view .LVU1343
	.loc 1 143 5 is_stmt 0 view .LVU1344
	cmp	r0, r1
	.loc 1 140 1 view .LVU1345
	push	{r4, r5, r6, lr}
	.cfi_def_cfa_offset 16
	.cfi_offset 4, -16
	.cfi_offset 5, -12
	.cfi_offset 6, -8
	.cfi_offset 14, -4
	.loc 1 143 5 view .LVU1346
	addge	r5, r1, #1
	movlt	r5, r0
	addlt	r4, r1, #1
	movge	r4, r0
.LVL177:
	.loc 1 154 2 is_stmt 1 view .LVU1347
	.loc 1 154 12 is_stmt 0 view .LVU1348
	bl	rand
.LVL178:
	.loc 1 155 2 is_stmt 1 view .LVU1349
	.loc 1 154 19 is_stmt 0 view .LVU1350
	sub	r1, r4, r5
	bl	__aeabi_idivmod
.LVL179:
	.loc 1 156 1 view .LVU1351
	add	r0, r1, r5
	pop	{r4, r5, r6, pc}
	.cfi_endproc
.LFE127:
	.size	random_number, .-random_number
	.section	.rodata
	.align	2
	.set	.LANCHOR0,. + 0
	.type	CSWTCH.8, %object
	.size	CSWTCH.8, 16
CSWTCH.8:
	.byte	1
	.byte	1
	.byte	1
	.byte	1
	.byte	1
	.byte	1
	.byte	1
	.byte	1
	.byte	1
	.byte	1
	.byte	2
	.byte	2
	.byte	2
	.byte	2
	.byte	2
	.byte	3
	.text
.Letext0:
	.file 3 "/opt/devkitpro/devkitARM/lib/gcc/arm-none-eabi/12.2.0/include/stddef.h"
	.file 4 "/opt/devkitpro/devkitARM/arm-none-eabi/include/machine/_default_types.h"
	.file 5 "/opt/devkitpro/devkitARM/arm-none-eabi/include/sys/_stdint.h"
	.file 6 "/opt/devkitpro/devkitARM/arm-none-eabi/include/sys/lock.h"
	.file 7 "/Users/blackout/Desktop/Craftus-Rehabilitated/include/blocks/Block.h"
	.file 8 "/Users/blackout/Desktop/Craftus-Rehabilitated/include/misc/Xorshift.h"
	.file 9 "/Users/blackout/Desktop/Craftus-Rehabilitated/include/rendering/VBOCache.h"
	.file 10 "/opt/devkitPro//libctru/include/3ds/synchronization.h"
	.file 11 "/Users/blackout/Desktop/Craftus-Rehabilitated/include/world/WorkQueue.h"
	.file 12 "/Users/blackout/Desktop/Craftus-Rehabilitated/include/world/World.h"
	.file 13 "/Users/blackout/Desktop/Craftus-Rehabilitated/include/world/worldgen/TestGen.h"
	.file 14 "/opt/devkitPro//libctru/include/3ds/types.h"
	.file 15 "/opt/devkitpro/devkitARM/arm-none-eabi/include/stdlib.h"